
/home/bdroy/Embedded/ch32v-base/ch32v305_dap/CH32V305_DAP.elf:     file format elf32-littleriscv
/home/bdroy/Embedded/ch32v-base/ch32v305_dap/CH32V305_DAP.elf
architecture: riscv:rv32, flags 0x00000112:
EXEC_P, HAS_SYMS, D_PAGED
start address 0x00000000

Program Header:
0x70000003 off    0x00049b92 vaddr 0x00000000 paddr 0x00000000 align 2**0
         filesz 0x00000031 memsz 0x00000000 flags r--
    LOAD off    0x00001000 vaddr 0x00000000 paddr 0x00000000 align 2**12
         filesz 0x0000ddd0 memsz 0x0000ddd0 flags r-x
    LOAD off    0x0000f000 vaddr 0x20000000 paddr 0x0000ddd0 align 2**12
         filesz 0x000065b0 memsz 0x00006b74 flags rw-
    LOAD off    0x00000800 vaddr 0x20007800 paddr 0x20007800 align 2**12
         filesz 0x00000000 memsz 0x00000800 flags rw-

Sections:
Idx Name          Size      VMA       LMA       File off  Algn
  0 .init         00000038  00000000  00000000  00001000  2**1
                  CONTENTS, ALLOC, LOAD, READONLY, CODE
  1 .vector       000001c8  00000038  00000038  00001038  2**1
                  CONTENTS, ALLOC, LOAD, READONLY, CODE
  2 .text         0000dbd0  00000200  00000200  00001200  2**2
                  CONTENTS, ALLOC, LOAD, READONLY, CODE
  3 .fini         00000000  0000ddd0  0000ddd0  000155b0  2**0
                  CONTENTS, ALLOC, LOAD, CODE
  4 .dalign       00000000  20000000  20000000  000155b0  2**0
                  CONTENTS
  5 .dlalign      00000000  0000ddd0  0000ddd0  000155b0  2**0
                  CONTENTS
  6 .data         000001a0  20000000  0000ddd0  0000f000  2**2
                  CONTENTS, ALLOC, LOAD, DATA
  7 .noncacheable 00006410  200001a0  0000df70  0000f1a0  2**2
                  CONTENTS, ALLOC, LOAD, DATA
  8 .bss          000005c4  200065b0  00014380  000155b0  2**2
                  ALLOC
  9 .stack        00000800  20007800  20007800  00015800  2**0
                  ALLOC
 10 .debug_info   0000fd61  00000000  00000000  000155b0  2**0
                  CONTENTS, READONLY, DEBUGGING, OCTETS
 11 .debug_abbrev 00002a1c  00000000  00000000  00025311  2**0
                  CONTENTS, READONLY, DEBUGGING, OCTETS
 12 .debug_loc    00005658  00000000  00000000  00027d2d  2**0
                  CONTENTS, READONLY, DEBUGGING, OCTETS
 13 .debug_aranges 00000c38  00000000  00000000  0002d388  2**3
                  CONTENTS, READONLY, DEBUGGING, OCTETS
 14 .debug_ranges 00000af0  00000000  00000000  0002dfc0  2**3
                  CONTENTS, READONLY, DEBUGGING, OCTETS
 15 .debug_line   00016f94  00000000  00000000  0002eab0  2**0
                  CONTENTS, READONLY, DEBUGGING, OCTETS
 16 .debug_str    0000411b  00000000  00000000  00045a44  2**0
                  CONTENTS, READONLY, DEBUGGING, OCTETS
 17 .comment      00000033  00000000  00000000  00049b5f  2**0
                  CONTENTS, READONLY
 18 .riscv.attributes 00000031  00000000  00000000  00049b92  2**0
                  CONTENTS, READONLY
 19 .debug_frame  00003114  00000000  00000000  00049bc4  2**2
                  CONTENTS, READONLY, DEBUGGING, OCTETS
SYMBOL TABLE:
00000000 l    d  .init	00000000 .init
00000038 l    d  .vector	00000000 .vector
00000200 l    d  .text	00000000 .text
0000ddd0 l    d  .fini	00000000 .fini
20000000 l    d  .dalign	00000000 .dalign
0000ddd0 l    d  .dlalign	00000000 .dlalign
20000000 l    d  .data	00000000 .data
200001a0 l    d  .noncacheable	00000000 .noncacheable
200065b0 l    d  .bss	00000000 .bss
20007800 l    d  .stack	00000000 .stack
00000000 l    d  .debug_info	00000000 .debug_info
00000000 l    d  .debug_abbrev	00000000 .debug_abbrev
00000000 l    d  .debug_loc	00000000 .debug_loc
00000000 l    d  .debug_aranges	00000000 .debug_aranges
00000000 l    d  .debug_ranges	00000000 .debug_ranges
00000000 l    d  .debug_line	00000000 .debug_line
00000000 l    d  .debug_str	00000000 .debug_str
00000000 l    d  .comment	00000000 .comment
00000000 l    d  .riscv.attributes	00000000 .riscv.attributes
00000000 l    d  .debug_frame	00000000 .debug_frame
00000000 l    df *ABS*	00000000 startup_ch32v30x_D8C.S.obj
00000038 l       .vector	00000000 _vector_base
00000000 l    df *ABS*	00000000 lib_a-memcpy-asm.o
00000000 l    df *ABS*	00000000 lib_a-memset.o
00000000 l    df *ABS*	00000000 lib_a-memmove.o
00000000 l    df *ABS*	00000000 DAP.c
0000024c l     F .text	00000014 DAP_GetVendorString
00000260 l     F .text	00000014 DAP_GetProductString
00000274 l     F .text	000000d8 DAP_GetSerNumString
2000663c l     O .bss	00000009 UID_BUF.0
0000034c l     F .text	00000014 DAP_GetTargetDeviceVendorString
00000360 l     F .text	00000014 DAP_GetTargetDeviceNameString
00000374 l     F .text	00000014 DAP_GetTargetBoardVendorString
00000388 l     F .text	00000014 DAP_GetTargetBoardNameString
0000039c l     F .text	00000014 DAP_GetProductFirmwareVersionString
000003b0 l     F .text	000000ec PORT_JTAG_SETUP
0000049c l     F .text	0000008e PORT_SWD_SETUP
0000052a l     F .text	00000088 PORT_OFF
000005b2 l     F .text	00000038 LED_CONNECTED_OUT
000005ea l     F .text	00000012 LED_RUNNING_OUT
000005fc l     F .text	00000010 TIMESTAMP_GET
0000060c l     F .text	0000005a DAP_SETUP
00000666 l     F .text	00000010 RESET_TARGET
20000198 l     O .data	00000006 DAP_FW_Ver
00000676 l     F .text	0000009e Set_Clock_Delay
00000714 l     F .text	00000144 DAP_Info
00000858 l     F .text	00000072 DAP_Delay
000008ca l     F .text	00000068 DAP_HostStatus
00000932 l     F .text	00000082 DAP_Connect
000009b4 l     F .text	0000002e DAP_Disconnect
000009e2 l     F .text	00000032 DAP_ResetTarget
00000a14 l     F .text	000002ca DAP_SWJ_Pins
00000cde l     F .text	00000074 DAP_SWJ_Clock
00000d52 l     F .text	00000066 DAP_SWJ_Sequence
00000db8 l     F .text	00000060 DAP_SWD_Configure
00000e18 l     F .text	000001b2 DAP_SWD_Sequence
00000fca l     F .text	000000f2 DAP_JTAG_Sequence
000010bc l     F .text	0000011a DAP_JTAG_Configure
000011d6 l     F .text	000000cc DAP_JTAG_IDCode
000012a2 l     F .text	00000088 DAP_TransferConfigure
0000132a l     F .text	00000752 DAP_SWD_Transfer
00001a7c l     F .text	0000076a DAP_JTAG_Transfer
000021e6 l     F .text	000000a8 DAP_Dummy_Transfer
0000228e l     F .text	0000006a DAP_Transfer
000022f8 l     F .text	00000302 DAP_SWD_TransferBlock
000025fa l     F .text	00000354 DAP_JTAG_TransferBlock
0000294e l     F .text	000000be DAP_TransferBlock
00002a0c l     F .text	00000062 DAP_SWD_WriteAbort
00002a6e l     F .text	00000098 DAP_JTAG_WriteAbort
00002b06 l     F .text	0000006c DAP_WriteAbort
00000000 l    df *ABS*	00000000 DAP_vendor.c
00000000 l    df *ABS*	00000000 JTAG_DP.c
00002f26 l     F .text	00000010 TIMESTAMP_GET
000030e4 l     F .text	0000038c JTAG_IR_Fast
00003470 l     F .text	000006a6 JTAG_TransferFast
00003b16 l     F .text	0000074e JTAG_IR_Slow
00004264 l     F .text	00000d42 JTAG_TransferSlow
00000000 l    df *ABS*	00000000 SW_DP.c
00005c5a l     F .text	00000010 TIMESTAMP_GET
00005f86 l     F .text	000009c4 SWD_TransferFast
0000694a l     F .text	000010fc SWD_TransferSlow
00000000 l    df *ABS*	00000000 dap_main.c
200065b2 l     O .bss	00000002 USB_RequestIndexI
200065b4 l     O .bss	00000002 USB_RequestIndexO
200065b6 l     O .bss	00000002 USB_RequestCountI
200065b8 l     O .bss	00000002 USB_RequestCountO
200065ba l     O .bss	00000001 USB_RequestIdle
200065bc l     O .bss	00000002 USB_ResponseIndexI
200065be l     O .bss	00000002 USB_ResponseIndexO
200065c0 l     O .bss	00000002 USB_ResponseCountI
200065c2 l     O .bss	00000002 USB_ResponseCountO
200065c4 l     O .bss	00000001 USB_ResponseIdle
200001a0 l     O .noncacheable	00001000 USB_Request
200011a0 l     O .noncacheable	00001000 USB_Response
20006648 l     O .bss	00000010 USB_RespSize
200021a0 l     O .noncacheable	00002000 uartrx_ringbuffer
200041a0 l     O .noncacheable	00002000 usbrx_ringbuffer
200061a0 l     O .noncacheable	00000200 usb_tmpbuffer
200065d1 l     O .bss	00000001 usbrx_idle_flag
200065d2 l     O .bss	00000001 usbtx_idle_flag
200065d3 l     O .bss	00000001 uarttx_idle_flag
20000158 l     O .data	00000008 dap_out_ep
20000160 l     O .data	00000008 dap_in_ep
20000168 l     O .data	00000008 cdc_out_ep
20000170 l     O .data	00000008 cdc_in_ep
00007da8 l     F .text	00000062 chry_dap_state_init
200066cc l     O .bss	00000009 UID_BUF.0
00000000 l    df *ABS*	00000000 chry_ringbuffer.c
00000000 l    df *ABS*	00000000 usbd_cdc.c
00008848 l     F .text	0000015e cdc_acm_class_interface_request_handler
00000000 l    df *ABS*	00000000 usbd_core.c
00008a2c l     F .text	00000012 usbd_print_setup
00008a3e l     F .text	00000022 is_device_configured
00008a60 l     F .text	00000060 usbd_set_endpoint
00008ac0 l     F .text	00000060 usbd_reset_endpoint
00008b20 l     F .text	000001ee usbd_get_descriptor
00008d0e l     F .text	000000d6 usbd_set_configuration
00008de4 l     F .text	000000fa usbd_set_interface
0000980c l     F .text	000000bc usbd_class_event_notify_handler
00008ede l     F .text	00000154 usbd_std_device_req_handler
00009032 l     F .text	0000018e usbd_std_interface_req_handler
000091c0 l     F .text	000000fc usbd_std_endpoint_req_handler
000092bc l     F .text	000000bc usbd_standard_request_handler
00009378 l     F .text	0000012a usbd_class_request_handler
000094a2 l     F .text	000002b2 usbd_vendor_request_handler
00009754 l     F .text	000000b8 usbd_setup_request_handler
00000000 l    df *ABS*	00000000 usb_dc_usbhs.c
00000000 l    df *ABS*	00000000 swd_host.c
200065d8 l     O .bss	00000008 dap_state
0000b0e0 l     F .text	0000001c swd_get_apsel
0000b35e l     F .text	0000009e swd_write_data
00000000 l    df *ABS*	00000000 debug.c
200065e0 l     O .bss	00000001 p_us
200065e2 l     O .bss	00000002 p_ms
20000188 l     O .data	00000004 curbrk.0
00000000 l    df *ABS*	00000000 ch32v30x_dma.c
00000000 l    df *ABS*	00000000 ch32v30x_gpio.c
00000000 l    df *ABS*	00000000 ch32v30x_misc.c
00000000 l    df *ABS*	00000000 ch32v30x_rcc.c
200000d4 l     O .data	00000010 APBAHBPrescTable
2000018c l     O .data	00000004 ADCPrescTable
00000000 l    df *ABS*	00000000 ch32v30x_usart.c
00000000 l    df *ABS*	00000000 ch32v30x_it.c
00000000 l    df *ABS*	00000000 main.c
00000000 l    df *ABS*	00000000 system_ch32v30x.c
0000cc4e l     F .text	00000014 SetSysClock
0000cc62 l     F .text	00000114 SetSysClockTo144_HSE
00000000 l    df *ABS*	00000000 usb2uart.c
00000000 l    df *ABS*	00000000 lib_a-memcmp.o
00000000 l    df *ABS*	00000000 lib_a-sprintf.o
00000000 l    df *ABS*	00000000 lib_a-nano-svfprintf.o
00000000 l    df *ABS*	00000000 lib_a-nano-vfprintf_i.o
00000000 l    df *ABS*	00000000 lib_a-memchr.o
00000000 l    df *ABS*	00000000 lib_a-nano-freer.o
00000000 l    df *ABS*	00000000 lib_a-nano-mallocr.o
0000d836 l     F .text	00000058 sbrk_aligned
00000000 l    df *ABS*	00000000 lib_a-nano-reallocr.o
00000000 l    df *ABS*	00000000 lib_a-sbrkr.o
00000000 l    df *ABS*	00000000 lib_a-mlock.o
00000000 l    df *ABS*	00000000 lib_a-nano-msizer.o
00000000 l    df *ABS*	00000000 lib_a-lock.o
00000000 l    df *ABS*	00000000 lib_a-impure.o
200000f4 l     O .data	00000060 impure_data
0000da56 g     F .text	00000014 _malloc_usable_size_r
0000c6d0  w      .text	00000000 EXTI2_IRQHandler
0000c71a  w      .text	00000000 TIM8_TRG_COM_IRQHandler
0000c71c  w      .text	00000000 TIM8_CC_IRQHandler
0000b8a0 g     F .text	00000040 DMA_Cmd
0000c752  w      .text	00000000 UART8_IRQHandler
20000958 g       .data	00000000 __global_pointer$
00002d64 g     F .text	000000de DAP_ExecuteCommand
0000c6f6  w      .text	00000000 TIM1_CC_IRQHandler
0000991e g     F .text	000001c8 usbd_event_ep0_setup_complete_handler
0000c810 g     F .text	00000008 HardFault_Handler
0000c8ea g     F .text	0000003e usb_dc_low_level_init
0000da4c g     F .text	0000000a __malloc_unlock
0000c72c  w      .text	00000000 TIM6_IRQHandler
00009cf6 g     F .text	00000066 usbd_event_ep_out_complete_handler
0000c6bc  w      .text	00000000 SysTick_Handler
0000c6c2  w      .text	00000000 PVD_IRQHandler
0000c722  w      .text	00000000 SDIO_IRQHandler
00000226 g     F .text	00000026 memmove
0000c754  w      .text	00000000 TIM9_BRK_IRQHandler
0000c768  w      .text	00000000 DMA2_Channel8_IRQHandler
0000c800 g     F .text	00000010 NMI_Handler
0000c2c6 g     F .text	00000040 RCC_USBHSPHYPLLALIVEcmd
0000c742  w      .text	00000000 CAN2_RX1_IRQHandler
0000c6d2  w      .text	00000000 EXTI3_IRQHandler
0000a6a2 g     F .text	00000a3e USBHS_IRQHandler
20000180 g     O .data	00000008 bos_desc
00002f36 g     F .text	000001ae JTAG_Sequence
20006694 g     O .bss	0000001c intf1
00008364 g     F .text	0000004e usbd_cdc_acm_get_line_coding
0000c644 g     F .text	00000042 USART_GetFlagStatus
0000c76a  w      .text	00000000 DMA2_Channel9_IRQHandler
00007d52 g     F .text	00000056 usbd_cdc_acm_bulk_in
0000c762  w      .text	00000000 TIM10_CC_IRQHandler
200065f0 g     O .bss	00000004 errno
0000dc8c g     O .text	00000021 USBD_BinaryObjectStoreDescriptor
20006658 g     O .bss	00000010 g_uartrx
200065b0 g       .bss	00000000 _sbss
00000800 g       *ABS*	00000000 __stack_size
0000b7f8 g     F .text	000000a8 DMA_Init
00005c16 g     F .text	00000044 JTAG_Transfer
000089a6 g     F .text	0000003a usbd_cdc_acm_init_intf
00002b72 g     F .text	000001f2 DAP_ProcessCommand
0000b902 g     F .text	0000001c DMA_GetCurrDataCounter
0000c306 g     F .text	0000003c RCC_USBCLK48MConfig
0000c928 g     F .text	00000094 check_iap_status
00000200 g     F .text	00000016 memcpy
00009bbc g     F .text	000000d4 usbd_event_ep0_out_complete_handler
00009dde g     F .text	00000020 usbd_msosv2_desc_register
0000bbbe g     F .text	000001d0 GPIO_PinRemapConfig
0000d19c g     F .text	00000256 _svfprintf_r
0000c6cc  w      .text	00000000 EXTI0_IRQHandler
0000c702  w      .text	00000000 I2C2_EV_IRQHandler
0000c760  w      .text	00000000 TIM10_TRG_COM_IRQHandler
0000a1f2 g     F .text	000000c0 usbd_ep_set_stall
20000190 g     O .data	00000004 SystemCoreClock
00000038 g       .init	00000000 _einit
0000c24e g     F .text	0000003c RCC_USBHSPLLCLKConfig
0000b8e0 g     F .text	00000022 DMA_SetCurrDataCounter
0000b3fc g     F .text	00000042 swd_write_word
0000c186 g     F .text	00000046 RCC_APB2PeriphClockCmd
0000c744  w      .text	00000000 CAN2_SCE_IRQHandler
0000c6e4  w      .text	00000000 ADC1_2_IRQHandler
00008822 g     F .text	00000026 chry_ringbuffer_linear_read_done
0000b91e g     F .text	00000222 GPIO_Init
00007b0e g     F .text	000000fc dap_out_callback
0000c6ba  w      .text	00000000 Break_Point_Handler
200065e4 g     O .bss	00000004 NVIC_Priority_Group
0000c706  w      .text	00000000 SPI1_IRQHandler
0000c55a g     F .text	00000058 USART_Cmd
0000da12 g     F .text	00000030 _sbrk_r
00009d5c g     F .text	00000082 usbd_desc_register
0000c6c4  w      .text	00000000 TAMPER_IRQHandler
0000c740  w      .text	00000000 CAN2_RX0_IRQHandler
0000c718  w      .text	00000000 TIM8_UP_IRQHandler
0000c1cc g     F .text	00000046 RCC_APB1PeriphClockCmd
20006678 g     O .bss	0000001c dap_intf
0000c6b6  w      .text	00000000 Ecall_M_Mode_Handler
00008a18  w    F .text	00000014 usbd_cdc_acm_send_break
20007800 g       .stack	00000000 _heap_end
200065f8 g     O .bss	00000044 DAP_Data
0000d99a g     F .text	00000078 _realloc_r
0000c732  w      .text	00000000 DMA2_Channel2_IRQHandler
0000c140 g     F .text	00000046 RCC_AHBPeriphClockCmd
0000c6dc  w      .text	00000000 DMA1_Channel4_IRQHandler
0000b488 g     F .text	0000005e _sbrk
0000a062 g     F .text	0000017a usbd_ep_open
0000c756  w      .text	00000000 TIM9_UP_IRQHandler
00005d60 g     F .text	00000226 SWD_Sequence
0000c70e  w      .text	00000000 USART3_IRQHandler
0000c6c6  w      .text	00000000 RTC_IRQHandler
20006b74 g       .bss	00000000 _ebss
200065d0 g     O .bss	00000001 config_uart_transfer
0000c6e2  w      .text	00000000 DMA1_Channel7_IRQHandler
00009f3e g     F .text	00000022 usb_device_is_configured
0000c28a g     F .text	0000003c RCC_USBHSPLLCKREFCLKConfig
0000c6ea  w      .text	00000000 CAN1_RX1_IRQHandler
00008024 g     F .text	000002c6 chry_dap_handle
0000b43e g     F .text	0000004a Delay_Init
0000c74c  w      .text	00000000 DVP_IRQHandler
00009dfe g     F .text	00000020 usbd_bos_desc_register
0000c72a  w      .text	00000000 UART5_IRQHandler
200065f4 g     O .bss	00000001 __lock___malloc_recursive_mutex
0000bb7a g     F .text	00000022 GPIO_SetBits
0000878c g     F .text	00000096 chry_ringbuffer_linear_read_setup
0000c6fc  w      .text	00000000 TIM4_IRQHandler
0000cf04 g     F .text	00000110 uartx_preinit
00009f76 g     F .text	000000b4 usb_dc_init
0000c730  w      .text	00000000 DMA2_Channel1_IRQHandler
0000c6fe  w      .text	00000000 I2C1_EV_IRQHandler
0000da6c g     F .text	00000002 __retarget_lock_release_recursive
0000c8ae g     F .text	0000003c USBHS_RCC_Init
0000d0bc g     F .text	000000e0 __ssputs_r
0000bdac g     F .text	00000394 RCC_GetClocksFreq
0000c6e0  w      .text	00000000 DMA1_Channel6_IRQHandler
0000c728  w      .text	00000000 UART4_IRQHandler
0000c736  w      .text	00000000 DMA2_Channel4_IRQHandler
0000d77c g     F .text	00000018 memchr
0000c342 g     F .text	00000218 USART_Init
0000d794 g     F .text	000000a2 _free_r
0000c6fa  w      .text	00000000 TIM3_IRQHandler
0000c6ca  w      .text	00000000 RCC_IRQHandler
00008738 g     F .text	00000054 chry_ringbuffer_drop
0000c6f4  w      .text	00000000 TIM1_TRG_COM_IRQHandler
200063a0 g     O .noncacheable	00000210 g_usbd_core
0000cd76 g     F .text	000000d2 DMA_INIT
0000c6d6  w      .text	00000000 DMA1_Channel1_IRQHandler
00000000 g       .init	00000000 _start
0000c766  w      .text	00000000 DMA2_Channel7_IRQHandler
200000e4 g     O .data	00000010 AHBPrescTable
200066d8 g     O .bss	0000028c g_ch32_usbhs_udc
00005c6a g     F .text	000000f6 SWJ_Sequence
0000b0fc g     F .text	0000003a swd_set_target_reset
0000c710  w      .text	00000000 EXTI15_10_IRQHandler
00005be2 g     F .text	00000034 JTAG_IR
0000c212 g     F .text	0000003c RCC_USBHSConfig
00007a46 g     F .text	00000044 SWD_Transfer
0000a54a g     F .text	00000158 usbd_ep_start_read
0000bb9c g     F .text	00000022 GPIO_ResetBits
000089e0  w    F .text	0000001c usbd_cdc_acm_set_dtr
00009c90 g     F .text	00000066 usbd_event_ep_in_complete_handler
0000c72e  w      .text	00000000 TIM7_IRQHandler
0000c73e  w      .text	00000000 CAN2_TX_IRQHandler
20000000 g     O .data	000000d1 cmsisdap_descriptor
20000000 g       .dalign	00000000 _data_vma
0000c724  w      .text	00000000 TIM5_IRQHandler
0000ce48 g     F .text	000000bc UART3_CfgInit
200065cf g     O .bss	00000001 config_uart
0000a02a g     F .text	00000038 usbd_set_address
0000d058 g     F .text	00000024 memcmp
00002ec6 g     F .text	00000060 DAP_ProcessVendorCommand
0000a1dc g     F .text	00000016 usbd_ep_close
0000c6ee  w      .text	00000000 EXTI9_5_IRQHandler
000083b2 g     F .text	000001e4 chry_dap_usb2uart_handle
0000c73c  w      .text	00000000 ETH_WKUP_IRQHandler
0000b284 g     F .text	000000da swd_write_ap
0000da42 g     F .text	0000000a __malloc_lock
200065c8 g     O .bss	00000007 g_cdc_lincoding
0000c708  w      .text	00000000 SPI2_IRQHandler
0000da6a g     F .text	00000002 __retarget_lock_acquire_recursive
00004fa6 g     F .text	00000464 JTAG_ReadIDCode
00000216 g     F .text	00000010 memset
0000c9bc g     F .text	00000050 main
0000c75c  w      .text	00000000 TIM10_BRK_IRQHandler
0000862e g     F .text	0000002c chry_ringbuffer_get_free
0000c75a  w      .text	00000000 TIM9_CC_IRQHandler
0000a30c g     F .text	0000023e usbd_ep_start_write
0000c738  w      .text	00000000 DMA2_Channel5_IRQHandler
0000d88e g     F .text	0000010c _malloc_r
0000a2b2 g     F .text	0000005a usbd_ep_clear_stall
20006668 g     O .bss	00000010 g_usbrx
0000c6de  w      .text	00000000 DMA1_Channel5_IRQHandler
0000c6d4  w      .text	00000000 EXTI4_IRQHandler
0000860c g     F .text	00000022 chry_ringbuffer_get_used
0000c6e8  w      .text	00000000 USB_LP_CAN1_RX0_IRQHandler
0000c686 g     F .text	0000002c USART_ClearFlag
00007c0a g     F .text	000000e0 dap_in_callback
200065d5 g     O .bss	00000001 ep0_tx_data_toggle
00007e0a g     F .text	0000021a chry_dap_init
0000ca0c g     F .text	00000098 SystemInit
0000c71e  w      .text	00000000 RNG_IRQHandler
200066b0 g     O .bss	0000001c intf2
000098c8 g     F .text	00000056 usbd_event_reset_handler
0000b136 g     F .text	0000005c int2array
0000c6e6  w      .text	00000000 USB_HP_CAN1_TX_IRQHandler
0000d07c g     F .text	00000040 sprintf
00000000 g       .init	00000000 _sinit
0000c6da  w      .text	00000000 DMA1_Channel3_IRQHandler
0000c720  w      .text	00000000 FSMC_IRQHandler
200065d4 g     O .bss	00000001 ep0_rx_data_toggle
0000c73a  w      .text	00000000 ETH_IRQHandler
0000d3f2 g     F .text	00000110 _printf_common
20000194 g     O .data	00000004 _impure_ptr
0000c6f2  w      .text	00000000 TIM1_UP_IRQHandler
0000d19c g     F .text	00000256 _svfiprintf_r
0000c6c0  w      .text	00000000 WWDG_IRQHandler
20006964 g     O .bss	0000000f epx_tx_data_toggle
0000c748  w      .text	00000000 USBHSWakeup_IRQHandler
0000c76e  w      .text	00000000 DMA2_Channel11_IRQHandler
0000c6b8  w      .text	00000000 Ecall_U_Mode_Handler
0000c764  w      .text	00000000 DMA2_Channel6_IRQHandler
0000c6f8  w      .text	00000000 TIM2_IRQHandler
20008000 g       .stack	00000000 _eusrstack
0000c6be  w      .text	00000000 SW_Handler
0000b192 g     F .text	0000005c swd_transfer_retry
000089fc  w    F .text	0000001c usbd_cdc_acm_set_rts
0000d014 g     F .text	00000044 chry_dap_usb2uart_uart_config_callback
0000c6f0  w      .text	00000000 TIM1_BRK_IRQHandler
0000540a g     F .text	000007d8 JTAG_WriteAbort
0000c618 g     F .text	0000002c USART_SendData
0000c818 g     F .text	00000096 enable_power_output
0000c76c  w      .text	00000000 DMA2_Channel10_IRQHandler
0000c6ce  w      .text	00000000 EXTI1_IRQHandler
200065b0 g     O .bss	00000001 DAP_TransferAbort
00009f60 g     F .text	00000016 usbd_initialize
200001a0 g       .data	00000000 _edata
00007a8a g     F .text	00000084 usbd_event_handler
20006b74 g       .bss	00000000 _end
0000c712  w      .text	00000000 RTCAlarm_IRQHandler
00008596 g     F .text	00000076 chry_ringbuffer_init
00007cea g     F .text	00000068 usbd_cdc_acm_bulk_out
0000ddd0 g       .dlalign	00000000 _data_lma
0000b1ee g     F .text	00000096 swd_write_dp
0000c75e  w      .text	00000000 TIM10_UP_IRQHandler
0000c758  w      .text	00000000 TIM9_TRG_COM_IRQHandler
0000c750  w      .text	00000000 UART7_IRQHandler
0000c70c  w      .text	00000000 USART2_IRQHandler
0000c74e  w      .text	00000000 UART6_IRQHandler
20006974 g     O .bss	00000200 RxBuffer1
0000865a g     F .text	000000de chry_ringbuffer_write
0000caa4 g     F .text	000001aa SystemCoreClockUpdate
00009e84 g     F .text	000000ba usbd_add_endpoint
00009ae6 g     F .text	000000d6 usbd_event_ep0_in_complete_handler
000082ea g     F .text	0000007a usbd_cdc_acm_set_line_coding
0000c704  w      .text	00000000 I2C2_ER_IRQHandler
0000c6d8  w      .text	00000000 DMA1_Channel2_IRQHandler
0000d07c g     F .text	00000040 siprintf
0000dbe0 g     O .text	000000aa USBD_WinUSBDescriptorSetDescriptor
0000c716  w      .text	00000000 TIM8_BRK_IRQHandler
0000c770  w      .text	00000000 handle_reset
0000c6ec  w      .text	00000000 CAN1_SCE_IRQHandler
0000c6c8  w      .text	00000000 FLASH_IRQHandler
0000c70a  w      .text	00000000 USART1_IRQHandler
0000c746  w      .text	00000000 OTG_FS_IRQHandler
0000d502 g     F .text	0000027a _printf_i
0000c726  w      .text	00000000 SPI3_IRQHandler
200065e8 g     O .bss	00000004 __malloc_sbrk_start
0000c700  w      .text	00000000 I2C1_ER_IRQHandler
0000bd8e g     F .text	0000001e NVIC_PriorityGroupConfig
0000b4e6 g     F .text	00000312 DMA_DeInit
20000178 g     O .data	00000008 msosv2_desc
200065ec g     O .bss	00000004 __malloc_free_list
0000bb40 g     F .text	0000003a GPIO_ReadInputDataBit
0000c5b2 g     F .text	00000066 USART_DMACmd
0000c714  w      .text	00000000 USBWakeUp_IRQHandler
00009e1e g     F .text	00000066 usbd_add_interface
00002e42 g     F .text	00000084 DAP_Setup
0000c734  w      .text	00000000 DMA2_Channel3_IRQHandler



Disassembly of section .init:

00000000 <_sinit>:
   0:	7700c06f          	j	c770 <handle_reset>
   4:	00000013          	.word	0x00000013
   8:	00000013          	.word	0x00000013
   c:	00000013          	.word	0x00000013
  10:	00000013          	.word	0x00000013
  14:	00000013          	.word	0x00000013
  18:	00000013          	.word	0x00000013
  1c:	00000013          	.word	0x00000013
  20:	00000013          	.word	0x00000013
  24:	00000013          	.word	0x00000013
  28:	00000013          	.word	0x00000013
  2c:	00000013          	.word	0x00000013
  30:	00000013          	.word	0x00000013
  34:	00100073          	.word	0x00100073

Disassembly of section .vector:

00000038 <_vector_base>:
	...
  40:	0000c800          	.word	0x0000c800
  44:	0000c810          	.word	0x0000c810
  48:	00000000          	.word	0x00000000
  4c:	0000c6b6          	.word	0x0000c6b6
	...
  58:	0000c6b8          	.word	0x0000c6b8
  5c:	0000c6ba          	.word	0x0000c6ba
	...
  68:	0000c6bc          	.word	0x0000c6bc
  6c:	00000000          	.word	0x00000000
  70:	0000c6be          	.word	0x0000c6be
  74:	00000000          	.word	0x00000000
  78:	0000c6c0          	.word	0x0000c6c0
  7c:	0000c6c2          	.word	0x0000c6c2
  80:	0000c6c4          	.word	0x0000c6c4
  84:	0000c6c6          	.word	0x0000c6c6
  88:	0000c6c8          	.word	0x0000c6c8
  8c:	0000c6ca          	.word	0x0000c6ca
  90:	0000c6cc          	.word	0x0000c6cc
  94:	0000c6ce          	.word	0x0000c6ce
  98:	0000c6d0          	.word	0x0000c6d0
  9c:	0000c6d2          	.word	0x0000c6d2
  a0:	0000c6d4          	.word	0x0000c6d4
  a4:	0000c6d6          	.word	0x0000c6d6
  a8:	0000c6d8          	.word	0x0000c6d8
  ac:	0000c6da          	.word	0x0000c6da
  b0:	0000c6dc          	.word	0x0000c6dc
  b4:	0000c6de          	.word	0x0000c6de
  b8:	0000c6e0          	.word	0x0000c6e0
  bc:	0000c6e2          	.word	0x0000c6e2
  c0:	0000c6e4          	.word	0x0000c6e4
  c4:	0000c6e6          	.word	0x0000c6e6
  c8:	0000c6e8          	.word	0x0000c6e8
  cc:	0000c6ea          	.word	0x0000c6ea
  d0:	0000c6ec          	.word	0x0000c6ec
  d4:	0000c6ee          	.word	0x0000c6ee
  d8:	0000c6f0          	.word	0x0000c6f0
  dc:	0000c6f2          	.word	0x0000c6f2
  e0:	0000c6f4          	.word	0x0000c6f4
  e4:	0000c6f6          	.word	0x0000c6f6
  e8:	0000c6f8          	.word	0x0000c6f8
  ec:	0000c6fa          	.word	0x0000c6fa
  f0:	0000c6fc          	.word	0x0000c6fc
  f4:	0000c6fe          	.word	0x0000c6fe
  f8:	0000c700          	.word	0x0000c700
  fc:	0000c702          	.word	0x0000c702
 100:	0000c704          	.word	0x0000c704
 104:	0000c706          	.word	0x0000c706
 108:	0000c708          	.word	0x0000c708
 10c:	0000c70a          	.word	0x0000c70a
 110:	0000c70c          	.word	0x0000c70c
 114:	0000c70e          	.word	0x0000c70e
 118:	0000c710          	.word	0x0000c710
 11c:	0000c712          	.word	0x0000c712
 120:	0000c714          	.word	0x0000c714
 124:	0000c716          	.word	0x0000c716
 128:	0000c718          	.word	0x0000c718
 12c:	0000c71a          	.word	0x0000c71a
 130:	0000c71c          	.word	0x0000c71c
 134:	0000c71e          	.word	0x0000c71e
 138:	0000c720          	.word	0x0000c720
 13c:	0000c722          	.word	0x0000c722
 140:	0000c724          	.word	0x0000c724
 144:	0000c726          	.word	0x0000c726
 148:	0000c728          	.word	0x0000c728
 14c:	0000c72a          	.word	0x0000c72a
 150:	0000c72c          	.word	0x0000c72c
 154:	0000c72e          	.word	0x0000c72e
 158:	0000c730          	.word	0x0000c730
 15c:	0000c732          	.word	0x0000c732
 160:	0000c734          	.word	0x0000c734
 164:	0000c736          	.word	0x0000c736
 168:	0000c738          	.word	0x0000c738
 16c:	0000c73a          	.word	0x0000c73a
 170:	0000c73c          	.word	0x0000c73c
 174:	0000c73e          	.word	0x0000c73e
 178:	0000c740          	.word	0x0000c740
 17c:	0000c742          	.word	0x0000c742
 180:	0000c744          	.word	0x0000c744
 184:	0000c746          	.word	0x0000c746
 188:	0000c748          	.word	0x0000c748
 18c:	0000a6a2          	.word	0x0000a6a2
 190:	0000c74c          	.word	0x0000c74c
 194:	0000c74e          	.word	0x0000c74e
 198:	0000c750          	.word	0x0000c750
 19c:	0000c752          	.word	0x0000c752
 1a0:	0000c754          	.word	0x0000c754
 1a4:	0000c756          	.word	0x0000c756
 1a8:	0000c758          	.word	0x0000c758
 1ac:	0000c75a          	.word	0x0000c75a
 1b0:	0000c75c          	.word	0x0000c75c
 1b4:	0000c75e          	.word	0x0000c75e
 1b8:	0000c760          	.word	0x0000c760
 1bc:	0000c762          	.word	0x0000c762
 1c0:	0000c764          	.word	0x0000c764
 1c4:	0000c766          	.word	0x0000c766
 1c8:	0000c768          	.word	0x0000c768
 1cc:	0000c76a          	.word	0x0000c76a
 1d0:	0000c76c          	.word	0x0000c76c
 1d4:	0000c76e          	.word	0x0000c76e
	...

Disassembly of section .text:

00000200 <memcpy>:
     200:	832a                	mv	t1,a0
     202:	ca09                	beqz	a2,214 <memcpy+0x14>
     204:	00058383          	lb	t2,0(a1)
     208:	00730023          	sb	t2,0(t1)
     20c:	167d                	addi	a2,a2,-1
     20e:	0305                	addi	t1,t1,1
     210:	0585                	addi	a1,a1,1
     212:	fa6d                	bnez	a2,204 <memcpy+0x4>
     214:	8082                	ret

00000216 <memset>:
     216:	832a                	mv	t1,a0
     218:	c611                	beqz	a2,224 <memset+0xe>
     21a:	00b30023          	sb	a1,0(t1)
     21e:	167d                	addi	a2,a2,-1
     220:	0305                	addi	t1,t1,1
     222:	fe65                	bnez	a2,21a <memset+0x4>
     224:	8082                	ret

00000226 <memmove>:
     226:	c215                	beqz	a2,24a <memmove+0x24>
     228:	832a                	mv	t1,a0
     22a:	4685                	li	a3,1
     22c:	00b56763          	bltu	a0,a1,23a <memmove+0x14>
     230:	56fd                	li	a3,-1
     232:	fff60713          	addi	a4,a2,-1
     236:	933a                	add	t1,t1,a4
     238:	95ba                	add	a1,a1,a4
     23a:	00058383          	lb	t2,0(a1)
     23e:	00730023          	sb	t2,0(t1)
     242:	167d                	addi	a2,a2,-1
     244:	9336                	add	t1,t1,a3
     246:	95b6                	add	a1,a1,a3
     248:	fa6d                	bnez	a2,23a <memmove+0x14>
     24a:	8082                	ret

0000024c <DAP_GetVendorString>:
     24c:	1101                	addi	sp,sp,-32
     24e:	ce22                	sw	s0,28(sp)
     250:	1000                	addi	s0,sp,32
     252:	fea42623          	sw	a0,-20(s0)
     256:	4781                	li	a5,0
     258:	853e                	mv	a0,a5
     25a:	4472                	lw	s0,28(sp)
     25c:	6105                	addi	sp,sp,32
     25e:	8082                	ret

00000260 <DAP_GetProductString>:
     260:	1101                	addi	sp,sp,-32
     262:	ce22                	sw	s0,28(sp)
     264:	1000                	addi	s0,sp,32
     266:	fea42623          	sw	a0,-20(s0)
     26a:	4781                	li	a5,0
     26c:	853e                	mv	a0,a5
     26e:	4472                	lw	s0,28(sp)
     270:	6105                	addi	sp,sp,32
     272:	8082                	ret

00000274 <DAP_GetSerNumString>:
     274:	7179                	addi	sp,sp,-48
     276:	d606                	sw	ra,44(sp)
     278:	d422                	sw	s0,40(sp)
     27a:	1800                	addi	s0,sp,48
     27c:	fca42e23          	sw	a0,-36(s0)
     280:	1ffff7b7          	lui	a5,0x1ffff
     284:	7e878793          	addi	a5,a5,2024 # 1ffff7e8 <_data_lma+0x1fff1a18>
     288:	4398                	lw	a4,0(a5)
     28a:	000207b7          	lui	a5,0x20
     28e:	17fd                	addi	a5,a5,-1 # 1ffff <_data_lma+0x1222f>
     290:	8ff9                	and	a5,a5,a4
     292:	fef42623          	sw	a5,-20(s0)
     296:	1ffff7b7          	lui	a5,0x1ffff
     29a:	7e878793          	addi	a5,a5,2024 # 1ffff7e8 <_data_lma+0x1fff1a18>
     29e:	439c                	lw	a5,0(a5)
     2a0:	83f1                	srli	a5,a5,0x1c
     2a2:	07c6                	slli	a5,a5,0x11
     2a4:	fec42703          	lw	a4,-20(s0)
     2a8:	8fd9                	or	a5,a5,a4
     2aa:	fef42623          	sw	a5,-20(s0)
     2ae:	1ffff7b7          	lui	a5,0x1ffff
     2b2:	7ec78793          	addi	a5,a5,2028 # 1ffff7ec <_data_lma+0x1fff1a1c>
     2b6:	439c                	lw	a5,0(a5)
     2b8:	01579713          	slli	a4,a5,0x15
     2bc:	006007b7          	lui	a5,0x600
     2c0:	8ff9                	and	a5,a5,a4
     2c2:	fec42703          	lw	a4,-20(s0)
     2c6:	8fd9                	or	a5,a5,a4
     2c8:	fef42623          	sw	a5,-20(s0)
     2cc:	1ffff7b7          	lui	a5,0x1ffff
     2d0:	7f078793          	addi	a5,a5,2032 # 1ffff7f0 <_data_lma+0x1fff1a20>
     2d4:	439c                	lw	a5,0(a5)
     2d6:	83bd                	srli	a5,a5,0xf
     2d8:	07de                	slli	a5,a5,0x17
     2da:	fec42703          	lw	a4,-20(s0)
     2de:	8fd9                	or	a5,a5,a4
     2e0:	fef42623          	sw	a5,-20(s0)
     2e4:	fec42603          	lw	a2,-20(s0)
     2e8:	67b9                	lui	a5,0xe
     2ea:	a7078593          	addi	a1,a5,-1424 # da70 <__retarget_lock_release_recursive+0x4>
     2ee:	200067b7          	lui	a5,0x20006
     2f2:	63c78513          	addi	a0,a5,1596 # 2000663c <UID_BUF.0>
     2f6:	5870c0ef          	jal	ra,d07c <siprintf>
     2fa:	fdc42783          	lw	a5,-36(s0)
     2fe:	20006737          	lui	a4,0x20006
     302:	63c70713          	addi	a4,a4,1596 # 2000663c <UID_BUF.0>
     306:	2314                	.2byte	0x2314
     308:	8e36                	mv	t3,a3
     30a:	3314                	.2byte	0x3314
     30c:	8336                	mv	t1,a3
     30e:	2334                	.2byte	0x2334
     310:	88b6                	mv	a7,a3
     312:	3334                	.2byte	0x3334
     314:	8836                	mv	a6,a3
     316:	2354                	.2byte	0x2354
     318:	8536                	mv	a0,a3
     31a:	3354                	.2byte	0x3354
     31c:	85b6                	mv	a1,a3
     31e:	2374                	.2byte	0x2374
     320:	8636                	mv	a2,a3
     322:	3374                	.2byte	0x3374
     324:	2718                	.2byte	0x2718
     326:	01c78023          	sb	t3,0(a5)
     32a:	006780a3          	sb	t1,1(a5)
     32e:	01178123          	sb	a7,2(a5)
     332:	010781a3          	sb	a6,3(a5)
     336:	a3c8                	.2byte	0xa3c8
     338:	b3cc                	.2byte	0xb3cc
     33a:	a3f0                	.2byte	0xa3f0
     33c:	b3f4                	.2byte	0xb3f4
     33e:	a798                	.2byte	0xa798
     340:	47a5                	li	a5,9
     342:	853e                	mv	a0,a5
     344:	50b2                	lw	ra,44(sp)
     346:	5422                	lw	s0,40(sp)
     348:	6145                	addi	sp,sp,48
     34a:	8082                	ret

0000034c <DAP_GetTargetDeviceVendorString>:
     34c:	1101                	addi	sp,sp,-32
     34e:	ce22                	sw	s0,28(sp)
     350:	1000                	addi	s0,sp,32
     352:	fea42623          	sw	a0,-20(s0)
     356:	4781                	li	a5,0
     358:	853e                	mv	a0,a5
     35a:	4472                	lw	s0,28(sp)
     35c:	6105                	addi	sp,sp,32
     35e:	8082                	ret

00000360 <DAP_GetTargetDeviceNameString>:
     360:	1101                	addi	sp,sp,-32
     362:	ce22                	sw	s0,28(sp)
     364:	1000                	addi	s0,sp,32
     366:	fea42623          	sw	a0,-20(s0)
     36a:	4781                	li	a5,0
     36c:	853e                	mv	a0,a5
     36e:	4472                	lw	s0,28(sp)
     370:	6105                	addi	sp,sp,32
     372:	8082                	ret

00000374 <DAP_GetTargetBoardVendorString>:
     374:	1101                	addi	sp,sp,-32
     376:	ce22                	sw	s0,28(sp)
     378:	1000                	addi	s0,sp,32
     37a:	fea42623          	sw	a0,-20(s0)
     37e:	4781                	li	a5,0
     380:	853e                	mv	a0,a5
     382:	4472                	lw	s0,28(sp)
     384:	6105                	addi	sp,sp,32
     386:	8082                	ret

00000388 <DAP_GetTargetBoardNameString>:
     388:	1101                	addi	sp,sp,-32
     38a:	ce22                	sw	s0,28(sp)
     38c:	1000                	addi	s0,sp,32
     38e:	fea42623          	sw	a0,-20(s0)
     392:	4781                	li	a5,0
     394:	853e                	mv	a0,a5
     396:	4472                	lw	s0,28(sp)
     398:	6105                	addi	sp,sp,32
     39a:	8082                	ret

0000039c <DAP_GetProductFirmwareVersionString>:
     39c:	1101                	addi	sp,sp,-32
     39e:	ce22                	sw	s0,28(sp)
     3a0:	1000                	addi	s0,sp,32
     3a2:	fea42623          	sw	a0,-20(s0)
     3a6:	4781                	li	a5,0
     3a8:	853e                	mv	a0,a5
     3aa:	4472                	lw	s0,28(sp)
     3ac:	6105                	addi	sp,sp,32
     3ae:	8082                	ret

000003b0 <PORT_JTAG_SETUP>:
     3b0:	1101                	addi	sp,sp,-32
     3b2:	ce06                	sw	ra,28(sp)
     3b4:	cc22                	sw	s0,24(sp)
     3b6:	1000                	addi	s0,sp,32
     3b8:	fe042223          	sw	zero,-28(s0)
     3bc:	fe042423          	sw	zero,-24(s0)
     3c0:	fe042623          	sw	zero,-20(s0)
     3c4:	4585                	li	a1,1
     3c6:	4511                	li	a0,4
     3c8:	5bf0b0ef          	jal	ra,c186 <RCC_APB2PeriphClockCmd>
     3cc:	6799                	lui	a5,0x6
     3ce:	fef41223          	sh	a5,-28(s0)
     3d2:	47c1                	li	a5,16
     3d4:	fef42623          	sw	a5,-20(s0)
     3d8:	478d                	li	a5,3
     3da:	fef42423          	sw	a5,-24(s0)
     3de:	fe440793          	addi	a5,s0,-28
     3e2:	85be                	mv	a1,a5
     3e4:	400117b7          	lui	a5,0x40011
     3e8:	80078513          	addi	a0,a5,-2048 # 40010800 <_eusrstack+0x20008800>
     3ec:	5320b0ef          	jal	ra,b91e <GPIO_Init>
     3f0:	6599                	lui	a1,0x6
     3f2:	400117b7          	lui	a5,0x40011
     3f6:	80078513          	addi	a0,a5,-2048 # 40010800 <_eusrstack+0x20008800>
     3fa:	7800b0ef          	jal	ra,bb7a <GPIO_SetBits>
     3fe:	4585                	li	a1,1
     400:	4541                	li	a0,16
     402:	5850b0ef          	jal	ra,c186 <RCC_APB2PeriphClockCmd>
     406:	10000793          	li	a5,256
     40a:	fef41223          	sh	a5,-28(s0)
     40e:	47d1                	li	a5,20
     410:	fef42623          	sw	a5,-20(s0)
     414:	478d                	li	a5,3
     416:	fef42423          	sw	a5,-24(s0)
     41a:	fe440793          	addi	a5,s0,-28
     41e:	85be                	mv	a1,a5
     420:	40011537          	lui	a0,0x40011
     424:	4fa0b0ef          	jal	ra,b91e <GPIO_Init>
     428:	10000593          	li	a1,256
     42c:	40011537          	lui	a0,0x40011
     430:	74a0b0ef          	jal	ra,bb7a <GPIO_SetBits>
     434:	4585                	li	a1,1
     436:	4521                	li	a0,8
     438:	54f0b0ef          	jal	ra,c186 <RCC_APB2PeriphClockCmd>
     43c:	77e1                	lui	a5,0xffff8
     43e:	fef41223          	sh	a5,-28(s0)
     442:	47c1                	li	a5,16
     444:	fef42623          	sw	a5,-20(s0)
     448:	478d                	li	a5,3
     44a:	fef42423          	sw	a5,-24(s0)
     44e:	fe440793          	addi	a5,s0,-28
     452:	85be                	mv	a1,a5
     454:	400117b7          	lui	a5,0x40011
     458:	c0078513          	addi	a0,a5,-1024 # 40010c00 <_eusrstack+0x20008c00>
     45c:	4c20b0ef          	jal	ra,b91e <GPIO_Init>
     460:	6791                	lui	a5,0x4
     462:	fef41223          	sh	a5,-28(s0)
     466:	4791                	li	a5,4
     468:	fef42623          	sw	a5,-20(s0)
     46c:	478d                	li	a5,3
     46e:	fef42423          	sw	a5,-24(s0)
     472:	fe440793          	addi	a5,s0,-28
     476:	85be                	mv	a1,a5
     478:	400117b7          	lui	a5,0x40011
     47c:	c0078513          	addi	a0,a5,-1024 # 40010c00 <_eusrstack+0x20008c00>
     480:	49e0b0ef          	jal	ra,b91e <GPIO_Init>
     484:	65a1                	lui	a1,0x8
     486:	400117b7          	lui	a5,0x40011
     48a:	c0078513          	addi	a0,a5,-1024 # 40010c00 <_eusrstack+0x20008c00>
     48e:	6ec0b0ef          	jal	ra,bb7a <GPIO_SetBits>
     492:	0001                	nop
     494:	40f2                	lw	ra,28(sp)
     496:	4462                	lw	s0,24(sp)
     498:	6105                	addi	sp,sp,32
     49a:	8082                	ret

0000049c <PORT_SWD_SETUP>:
     49c:	1101                	addi	sp,sp,-32
     49e:	ce06                	sw	ra,28(sp)
     4a0:	cc22                	sw	s0,24(sp)
     4a2:	1000                	addi	s0,sp,32
     4a4:	fe042223          	sw	zero,-28(s0)
     4a8:	fe042423          	sw	zero,-24(s0)
     4ac:	fe042623          	sw	zero,-20(s0)
     4b0:	4585                	li	a1,1
     4b2:	4511                	li	a0,4
     4b4:	4d30b0ef          	jal	ra,c186 <RCC_APB2PeriphClockCmd>
     4b8:	6799                	lui	a5,0x6
     4ba:	fef41223          	sh	a5,-28(s0)
     4be:	47c1                	li	a5,16
     4c0:	fef42623          	sw	a5,-20(s0)
     4c4:	478d                	li	a5,3
     4c6:	fef42423          	sw	a5,-24(s0)
     4ca:	fe440793          	addi	a5,s0,-28
     4ce:	85be                	mv	a1,a5
     4d0:	400117b7          	lui	a5,0x40011
     4d4:	80078513          	addi	a0,a5,-2048 # 40010800 <_eusrstack+0x20008800>
     4d8:	4460b0ef          	jal	ra,b91e <GPIO_Init>
     4dc:	6599                	lui	a1,0x6
     4de:	400117b7          	lui	a5,0x40011
     4e2:	80078513          	addi	a0,a5,-2048 # 40010800 <_eusrstack+0x20008800>
     4e6:	6940b0ef          	jal	ra,bb7a <GPIO_SetBits>
     4ea:	4585                	li	a1,1
     4ec:	4541                	li	a0,16
     4ee:	4990b0ef          	jal	ra,c186 <RCC_APB2PeriphClockCmd>
     4f2:	10000793          	li	a5,256
     4f6:	fef41223          	sh	a5,-28(s0)
     4fa:	47d1                	li	a5,20
     4fc:	fef42623          	sw	a5,-20(s0)
     500:	478d                	li	a5,3
     502:	fef42423          	sw	a5,-24(s0)
     506:	fe440793          	addi	a5,s0,-28
     50a:	85be                	mv	a1,a5
     50c:	40011537          	lui	a0,0x40011
     510:	40e0b0ef          	jal	ra,b91e <GPIO_Init>
     514:	10000593          	li	a1,256
     518:	40011537          	lui	a0,0x40011
     51c:	65e0b0ef          	jal	ra,bb7a <GPIO_SetBits>
     520:	0001                	nop
     522:	40f2                	lw	ra,28(sp)
     524:	4462                	lw	s0,24(sp)
     526:	6105                	addi	sp,sp,32
     528:	8082                	ret

0000052a <PORT_OFF>:
     52a:	1101                	addi	sp,sp,-32
     52c:	ce06                	sw	ra,28(sp)
     52e:	cc22                	sw	s0,24(sp)
     530:	1000                	addi	s0,sp,32
     532:	fe042223          	sw	zero,-28(s0)
     536:	fe042423          	sw	zero,-24(s0)
     53a:	fe042623          	sw	zero,-20(s0)
     53e:	6799                	lui	a5,0x6
     540:	fef41223          	sh	a5,-28(s0)
     544:	4791                	li	a5,4
     546:	fef42623          	sw	a5,-20(s0)
     54a:	478d                	li	a5,3
     54c:	fef42423          	sw	a5,-24(s0)
     550:	fe440793          	addi	a5,s0,-28
     554:	85be                	mv	a1,a5
     556:	400117b7          	lui	a5,0x40011
     55a:	80078513          	addi	a0,a5,-2048 # 40010800 <_eusrstack+0x20008800>
     55e:	3c00b0ef          	jal	ra,b91e <GPIO_Init>
     562:	10000793          	li	a5,256
     566:	fef41223          	sh	a5,-28(s0)
     56a:	4791                	li	a5,4
     56c:	fef42623          	sw	a5,-20(s0)
     570:	478d                	li	a5,3
     572:	fef42423          	sw	a5,-24(s0)
     576:	fe440793          	addi	a5,s0,-28
     57a:	85be                	mv	a1,a5
     57c:	40011537          	lui	a0,0x40011
     580:	39e0b0ef          	jal	ra,b91e <GPIO_Init>
     584:	77f1                	lui	a5,0xffffc
     586:	fef41223          	sh	a5,-28(s0)
     58a:	4791                	li	a5,4
     58c:	fef42623          	sw	a5,-20(s0)
     590:	478d                	li	a5,3
     592:	fef42423          	sw	a5,-24(s0)
     596:	fe440793          	addi	a5,s0,-28
     59a:	85be                	mv	a1,a5
     59c:	400117b7          	lui	a5,0x40011
     5a0:	c0078513          	addi	a0,a5,-1024 # 40010c00 <_eusrstack+0x20008c00>
     5a4:	37a0b0ef          	jal	ra,b91e <GPIO_Init>
     5a8:	0001                	nop
     5aa:	40f2                	lw	ra,28(sp)
     5ac:	4462                	lw	s0,24(sp)
     5ae:	6105                	addi	sp,sp,32
     5b0:	8082                	ret

000005b2 <LED_CONNECTED_OUT>:
     5b2:	1101                	addi	sp,sp,-32
     5b4:	ce22                	sw	s0,28(sp)
     5b6:	1000                	addi	s0,sp,32
     5b8:	fea42623          	sw	a0,-20(s0)
     5bc:	fec42783          	lw	a5,-20(s0)
     5c0:	8b85                	andi	a5,a5,1
     5c2:	cb89                	beqz	a5,5d4 <LED_CONNECTED_OUT+0x22>
     5c4:	400117b7          	lui	a5,0x40011
     5c8:	80078793          	addi	a5,a5,-2048 # 40010800 <_eusrstack+0x20008800>
     5cc:	10000713          	li	a4,256
     5d0:	cbd8                	sw	a4,20(a5)
     5d2:	a801                	j	5e2 <LED_CONNECTED_OUT+0x30>
     5d4:	400117b7          	lui	a5,0x40011
     5d8:	80078793          	addi	a5,a5,-2048 # 40010800 <_eusrstack+0x20008800>
     5dc:	10000713          	li	a4,256
     5e0:	cb98                	sw	a4,16(a5)
     5e2:	0001                	nop
     5e4:	4472                	lw	s0,28(sp)
     5e6:	6105                	addi	sp,sp,32
     5e8:	8082                	ret

000005ea <LED_RUNNING_OUT>:
     5ea:	1101                	addi	sp,sp,-32
     5ec:	ce22                	sw	s0,28(sp)
     5ee:	1000                	addi	s0,sp,32
     5f0:	fea42623          	sw	a0,-20(s0)
     5f4:	0001                	nop
     5f6:	4472                	lw	s0,28(sp)
     5f8:	6105                	addi	sp,sp,32
     5fa:	8082                	ret

000005fc <TIMESTAMP_GET>:
     5fc:	1141                	addi	sp,sp,-16
     5fe:	c622                	sw	s0,12(sp)
     600:	0800                	addi	s0,sp,16
     602:	4781                	li	a5,0
     604:	853e                	mv	a0,a5
     606:	4432                	lw	s0,12(sp)
     608:	0141                	addi	sp,sp,16
     60a:	8082                	ret

0000060c <DAP_SETUP>:
     60c:	1101                	addi	sp,sp,-32
     60e:	ce06                	sw	ra,28(sp)
     610:	cc22                	sw	s0,24(sp)
     612:	1000                	addi	s0,sp,32
     614:	fe042223          	sw	zero,-28(s0)
     618:	fe042423          	sw	zero,-24(s0)
     61c:	fe042623          	sw	zero,-20(s0)
     620:	4585                	li	a1,1
     622:	4511                	li	a0,4
     624:	3630b0ef          	jal	ra,c186 <RCC_APB2PeriphClockCmd>
     628:	10000793          	li	a5,256
     62c:	fef41223          	sh	a5,-28(s0)
     630:	47d1                	li	a5,20
     632:	fef42623          	sw	a5,-20(s0)
     636:	478d                	li	a5,3
     638:	fef42423          	sw	a5,-24(s0)
     63c:	fe440793          	addi	a5,s0,-28
     640:	85be                	mv	a1,a5
     642:	400117b7          	lui	a5,0x40011
     646:	80078513          	addi	a0,a5,-2048 # 40010800 <_eusrstack+0x20008800>
     64a:	2d40b0ef          	jal	ra,b91e <GPIO_Init>
     64e:	400117b7          	lui	a5,0x40011
     652:	80078793          	addi	a5,a5,-2048 # 40010800 <_eusrstack+0x20008800>
     656:	10000713          	li	a4,256
     65a:	cbd8                	sw	a4,20(a5)
     65c:	0001                	nop
     65e:	40f2                	lw	ra,28(sp)
     660:	4462                	lw	s0,24(sp)
     662:	6105                	addi	sp,sp,32
     664:	8082                	ret

00000666 <RESET_TARGET>:
     666:	1141                	addi	sp,sp,-16
     668:	c622                	sw	s0,12(sp)
     66a:	0800                	addi	s0,sp,16
     66c:	4781                	li	a5,0
     66e:	853e                	mv	a0,a5
     670:	4432                	lw	s0,12(sp)
     672:	0141                	addi	sp,sp,16
     674:	8082                	ret

00000676 <Set_Clock_Delay>:
     676:	7179                	addi	sp,sp,-48
     678:	d622                	sw	s0,44(sp)
     67a:	1800                	addi	s0,sp,48
     67c:	fca42e23          	sw	a0,-36(s0)
     680:	fdc42703          	lw	a4,-36(s0)
     684:	007a17b7          	lui	a5,0x7a1
     688:	1ff78793          	addi	a5,a5,511 # 7a11ff <_data_lma+0x79342f>
     68c:	00e7ff63          	bgeu	a5,a4,6aa <Set_Clock_Delay+0x34>
     690:	200067b7          	lui	a5,0x20006
     694:	5f878793          	addi	a5,a5,1528 # 200065f8 <DAP_Data>
     698:	4705                	li	a4,1
     69a:	b398                	.2byte	0xb398
     69c:	200067b7          	lui	a5,0x20006
     6a0:	5f878793          	addi	a5,a5,1528 # 200065f8 <DAP_Data>
     6a4:	4705                	li	a4,1
     6a6:	c3d8                	sw	a4,4(a5)
     6a8:	a095                	j	70c <Set_Clock_Delay+0x96>
     6aa:	200067b7          	lui	a5,0x20006
     6ae:	5f878793          	addi	a5,a5,1528 # 200065f8 <DAP_Data>
     6b2:	000780a3          	sb	zero,1(a5)
     6b6:	fdc42703          	lw	a4,-36(s0)
     6ba:	00f427b7          	lui	a5,0xf42
     6be:	3ff78793          	addi	a5,a5,1023 # f423ff <_data_lma+0xf3462f>
     6c2:	973e                	add	a4,a4,a5
     6c4:	fdc42783          	lw	a5,-36(s0)
     6c8:	02f757b3          	divu	a5,a4,a5
     6cc:	fef42623          	sw	a5,-20(s0)
     6d0:	fec42703          	lw	a4,-20(s0)
     6d4:	4789                	li	a5,2
     6d6:	02e7f163          	bgeu	a5,a4,6f8 <Set_Clock_Delay+0x82>
     6da:	fec42783          	lw	a5,-20(s0)
     6de:	17f9                	addi	a5,a5,-2
     6e0:	fef42623          	sw	a5,-20(s0)
     6e4:	fec42783          	lw	a5,-20(s0)
     6e8:	00278713          	addi	a4,a5,2
     6ec:	478d                	li	a5,3
     6ee:	02f757b3          	divu	a5,a4,a5
     6f2:	fef42623          	sw	a5,-20(s0)
     6f6:	a021                	j	6fe <Set_Clock_Delay+0x88>
     6f8:	4785                	li	a5,1
     6fa:	fef42623          	sw	a5,-20(s0)
     6fe:	200067b7          	lui	a5,0x20006
     702:	5f878793          	addi	a5,a5,1528 # 200065f8 <DAP_Data>
     706:	fec42703          	lw	a4,-20(s0)
     70a:	c3d8                	sw	a4,4(a5)
     70c:	0001                	nop
     70e:	5432                	lw	s0,44(sp)
     710:	6145                	addi	sp,sp,48
     712:	8082                	ret

00000714 <DAP_Info>:
     714:	7179                	addi	sp,sp,-48
     716:	d606                	sw	ra,44(sp)
     718:	d422                	sw	s0,40(sp)
     71a:	1800                	addi	s0,sp,48
     71c:	87aa                	mv	a5,a0
     71e:	fcb42c23          	sw	a1,-40(s0)
     722:	fcf40fa3          	sb	a5,-33(s0)
     726:	fe0407a3          	sb	zero,-17(s0)
     72a:	fdf44783          	lbu	a5,-33(s0)
     72e:	4725                	li	a4,9
     730:	02f74d63          	blt	a4,a5,76a <DAP_Info+0x56>
     734:	02f04063          	bgtz	a5,754 <DAP_Info+0x40>
     738:	aa01                	j	848 <__stack_size+0x48>
     73a:	f1078793          	addi	a5,a5,-240
     73e:	473d                	li	a4,15
     740:	10f76463          	bltu	a4,a5,848 <__stack_size+0x48>
     744:	00279713          	slli	a4,a5,0x2
     748:	67b9                	lui	a5,0xe
     74a:	a8078793          	addi	a5,a5,-1408 # da80 <__retarget_lock_release_recursive+0x14>
     74e:	97ba                	add	a5,a5,a4
     750:	439c                	lw	a5,0(a5)
     752:	8782                	jr	a5
     754:	4725                	li	a4,9
     756:	0ef76963          	bltu	a4,a5,848 <__stack_size+0x48>
     75a:	00279713          	slli	a4,a5,0x2
     75e:	67b9                	lui	a5,0xe
     760:	ac078793          	addi	a5,a5,-1344 # dac0 <__retarget_lock_release_recursive+0x54>
     764:	97ba                	add	a5,a5,a4
     766:	439c                	lw	a5,0(a5)
     768:	8782                	jr	a5
     76a:	0ff00713          	li	a4,255
     76e:	0cf74d63          	blt	a4,a5,848 <__stack_size+0x48>
     772:	0f000713          	li	a4,240
     776:	fce7d2e3          	bge	a5,a4,73a <DAP_Info+0x26>
     77a:	a0f9                	j	848 <__stack_size+0x48>
     77c:	fd842503          	lw	a0,-40(s0)
     780:	34f1                	jal	24c <DAP_GetVendorString>
     782:	87aa                	mv	a5,a0
     784:	fef407a3          	sb	a5,-17(s0)
     788:	a0c9                	j	84a <__stack_size+0x4a>
     78a:	fd842503          	lw	a0,-40(s0)
     78e:	3cc9                	jal	260 <DAP_GetProductString>
     790:	87aa                	mv	a5,a0
     792:	fef407a3          	sb	a5,-17(s0)
     796:	a855                	j	84a <__stack_size+0x4a>
     798:	fd842503          	lw	a0,-40(s0)
     79c:	3ce1                	jal	274 <DAP_GetSerNumString>
     79e:	87aa                	mv	a5,a0
     7a0:	fef407a3          	sb	a5,-17(s0)
     7a4:	a05d                	j	84a <__stack_size+0x4a>
     7a6:	4799                	li	a5,6
     7a8:	fef407a3          	sb	a5,-17(s0)
     7ac:	fef44783          	lbu	a5,-17(s0)
     7b0:	863e                	mv	a2,a5
     7b2:	84018593          	addi	a1,gp,-1984 # 20000198 <DAP_FW_Ver>
     7b6:	fd842503          	lw	a0,-40(s0)
     7ba:	3499                	jal	200 <memcpy>
     7bc:	a079                	j	84a <__stack_size+0x4a>
     7be:	fd842503          	lw	a0,-40(s0)
     7c2:	3669                	jal	34c <DAP_GetTargetDeviceVendorString>
     7c4:	87aa                	mv	a5,a0
     7c6:	fef407a3          	sb	a5,-17(s0)
     7ca:	a041                	j	84a <__stack_size+0x4a>
     7cc:	fd842503          	lw	a0,-40(s0)
     7d0:	3e41                	jal	360 <DAP_GetTargetDeviceNameString>
     7d2:	87aa                	mv	a5,a0
     7d4:	fef407a3          	sb	a5,-17(s0)
     7d8:	a88d                	j	84a <__stack_size+0x4a>
     7da:	fd842503          	lw	a0,-40(s0)
     7de:	3e59                	jal	374 <DAP_GetTargetBoardVendorString>
     7e0:	87aa                	mv	a5,a0
     7e2:	fef407a3          	sb	a5,-17(s0)
     7e6:	a095                	j	84a <__stack_size+0x4a>
     7e8:	fd842503          	lw	a0,-40(s0)
     7ec:	3e71                	jal	388 <DAP_GetTargetBoardNameString>
     7ee:	87aa                	mv	a5,a0
     7f0:	fef407a3          	sb	a5,-17(s0)
     7f4:	a899                	j	84a <__stack_size+0x4a>
     7f6:	fd842503          	lw	a0,-40(s0)
     7fa:	364d                	jal	39c <DAP_GetProductFirmwareVersionString>
     7fc:	87aa                	mv	a5,a0
     7fe:	fef407a3          	sb	a5,-17(s0)
     802:	a0a1                	j	84a <__stack_size+0x4a>
     804:	fd842783          	lw	a5,-40(s0)
     808:	474d                	li	a4,19
     80a:	a398                	.2byte	0xa398
     80c:	fd842783          	lw	a5,-40(s0)
     810:	0785                	addi	a5,a5,1
     812:	4705                	li	a4,1
     814:	a398                	.2byte	0xa398
     816:	4789                	li	a5,2
     818:	fef407a3          	sb	a5,-17(s0)
     81c:	a03d                	j	84a <__stack_size+0x4a>
     81e:	fd842783          	lw	a5,-40(s0)
     822:	00078023          	sb	zero,0(a5)
     826:	fd842783          	lw	a5,-40(s0)
     82a:	0785                	addi	a5,a5,1
     82c:	4709                	li	a4,2
     82e:	a398                	.2byte	0xa398
     830:	4789                	li	a5,2
     832:	fef407a3          	sb	a5,-17(s0)
     836:	a811                	j	84a <__stack_size+0x4a>
     838:	fd842783          	lw	a5,-40(s0)
     83c:	4721                	li	a4,8
     83e:	a398                	.2byte	0xa398
     840:	4785                	li	a5,1
     842:	fef407a3          	sb	a5,-17(s0)
     846:	a011                	j	84a <__stack_size+0x4a>
     848:	0001                	nop
     84a:	fef44783          	lbu	a5,-17(s0)
     84e:	853e                	mv	a0,a5
     850:	50b2                	lw	ra,44(sp)
     852:	5422                	lw	s0,40(sp)
     854:	6145                	addi	sp,sp,48
     856:	8082                	ret

00000858 <DAP_Delay>:
     858:	7179                	addi	sp,sp,-48
     85a:	d622                	sw	s0,44(sp)
     85c:	1800                	addi	s0,sp,48
     85e:	fca42e23          	sw	a0,-36(s0)
     862:	fcb42c23          	sw	a1,-40(s0)
     866:	fdc42783          	lw	a5,-36(s0)
     86a:	239c                	.2byte	0x239c
     86c:	873e                	mv	a4,a5
     86e:	fdc42783          	lw	a5,-36(s0)
     872:	0785                	addi	a5,a5,1
     874:	239c                	.2byte	0x239c
     876:	07a2                	slli	a5,a5,0x8
     878:	8fd9                	or	a5,a5,a4
     87a:	fef42623          	sw	a5,-20(s0)
     87e:	fec42703          	lw	a4,-20(s0)
     882:	87ba                	mv	a5,a4
     884:	0786                	slli	a5,a5,0x1
     886:	97ba                	add	a5,a5,a4
     888:	078a                	slli	a5,a5,0x2
     88a:	8f99                	sub	a5,a5,a4
     88c:	fef42623          	sw	a5,-20(s0)
     890:	fec42783          	lw	a5,-20(s0)
     894:	fef42423          	sw	a5,-24(s0)
     898:	fe842783          	lw	a5,-24(s0)
     89c:	fef42223          	sw	a5,-28(s0)
     8a0:	0001                	nop
     8a2:	fe442783          	lw	a5,-28(s0)
     8a6:	17fd                	addi	a5,a5,-1
     8a8:	fef42223          	sw	a5,-28(s0)
     8ac:	fe442783          	lw	a5,-28(s0)
     8b0:	fbed                	bnez	a5,8a2 <DAP_Delay+0x4a>
     8b2:	0001                	nop
     8b4:	fd842783          	lw	a5,-40(s0)
     8b8:	00078023          	sb	zero,0(a5)
     8bc:	000207b7          	lui	a5,0x20
     8c0:	0785                	addi	a5,a5,1 # 20001 <_data_lma+0x12231>
     8c2:	853e                	mv	a0,a5
     8c4:	5432                	lw	s0,44(sp)
     8c6:	6145                	addi	sp,sp,48
     8c8:	8082                	ret

000008ca <DAP_HostStatus>:
     8ca:	1101                	addi	sp,sp,-32
     8cc:	ce06                	sw	ra,28(sp)
     8ce:	cc22                	sw	s0,24(sp)
     8d0:	1000                	addi	s0,sp,32
     8d2:	fea42623          	sw	a0,-20(s0)
     8d6:	feb42423          	sw	a1,-24(s0)
     8da:	fec42783          	lw	a5,-20(s0)
     8de:	239c                	.2byte	0x239c
     8e0:	c789                	beqz	a5,8ea <DAP_HostStatus+0x20>
     8e2:	4705                	li	a4,1
     8e4:	00e78b63          	beq	a5,a4,8fa <DAP_HostStatus+0x30>
     8e8:	a00d                	j	90a <DAP_HostStatus+0x40>
     8ea:	fec42783          	lw	a5,-20(s0)
     8ee:	0785                	addi	a5,a5,1
     8f0:	239c                	.2byte	0x239c
     8f2:	8b85                	andi	a5,a5,1
     8f4:	853e                	mv	a0,a5
     8f6:	3975                	jal	5b2 <LED_CONNECTED_OUT>
     8f8:	a00d                	j	91a <DAP_HostStatus+0x50>
     8fa:	fec42783          	lw	a5,-20(s0)
     8fe:	0785                	addi	a5,a5,1
     900:	239c                	.2byte	0x239c
     902:	8b85                	andi	a5,a5,1
     904:	853e                	mv	a0,a5
     906:	31d5                	jal	5ea <LED_RUNNING_OUT>
     908:	a809                	j	91a <DAP_HostStatus+0x50>
     90a:	fe842783          	lw	a5,-24(s0)
     90e:	577d                	li	a4,-1
     910:	a398                	.2byte	0xa398
     912:	000207b7          	lui	a5,0x20
     916:	0785                	addi	a5,a5,1 # 20001 <_data_lma+0x12231>
     918:	a801                	j	928 <DAP_HostStatus+0x5e>
     91a:	fe842783          	lw	a5,-24(s0)
     91e:	00078023          	sb	zero,0(a5)
     922:	000207b7          	lui	a5,0x20
     926:	0785                	addi	a5,a5,1 # 20001 <_data_lma+0x12231>
     928:	853e                	mv	a0,a5
     92a:	40f2                	lw	ra,28(sp)
     92c:	4462                	lw	s0,24(sp)
     92e:	6105                	addi	sp,sp,32
     930:	8082                	ret

00000932 <DAP_Connect>:
     932:	7179                	addi	sp,sp,-48
     934:	d606                	sw	ra,44(sp)
     936:	d422                	sw	s0,40(sp)
     938:	1800                	addi	s0,sp,48
     93a:	fca42e23          	sw	a0,-36(s0)
     93e:	fcb42c23          	sw	a1,-40(s0)
     942:	fdc42783          	lw	a5,-36(s0)
     946:	239c                	.2byte	0x239c
     948:	e789                	bnez	a5,952 <DAP_Connect+0x20>
     94a:	4785                	li	a5,1
     94c:	fef42623          	sw	a5,-20(s0)
     950:	a031                	j	95c <DAP_Connect+0x2a>
     952:	fdc42783          	lw	a5,-36(s0)
     956:	239c                	.2byte	0x239c
     958:	fef42623          	sw	a5,-20(s0)
     95c:	fec42703          	lw	a4,-20(s0)
     960:	4785                	li	a5,1
     962:	00f70863          	beq	a4,a5,972 <DAP_Connect+0x40>
     966:	fec42703          	lw	a4,-20(s0)
     96a:	4789                	li	a5,2
     96c:	00f70b63          	beq	a4,a5,982 <DAP_Connect+0x50>
     970:	a00d                	j	992 <DAP_Connect+0x60>
     972:	200067b7          	lui	a5,0x20006
     976:	5f878793          	addi	a5,a5,1528 # 200065f8 <DAP_Data>
     97a:	4705                	li	a4,1
     97c:	a398                	.2byte	0xa398
     97e:	3e39                	jal	49c <PORT_SWD_SETUP>
     980:	a821                	j	998 <DAP_Connect+0x66>
     982:	200067b7          	lui	a5,0x20006
     986:	5f878793          	addi	a5,a5,1528 # 200065f8 <DAP_Data>
     98a:	4709                	li	a4,2
     98c:	a398                	.2byte	0xa398
     98e:	340d                	jal	3b0 <PORT_JTAG_SETUP>
     990:	a021                	j	998 <DAP_Connect+0x66>
     992:	fe042623          	sw	zero,-20(s0)
     996:	0001                	nop
     998:	fec42783          	lw	a5,-20(s0)
     99c:	0ff7f713          	zext.b	a4,a5
     9a0:	fd842783          	lw	a5,-40(s0)
     9a4:	a398                	.2byte	0xa398
     9a6:	67c1                	lui	a5,0x10
     9a8:	0785                	addi	a5,a5,1 # 10001 <_data_lma+0x2231>
     9aa:	853e                	mv	a0,a5
     9ac:	50b2                	lw	ra,44(sp)
     9ae:	5422                	lw	s0,40(sp)
     9b0:	6145                	addi	sp,sp,48
     9b2:	8082                	ret

000009b4 <DAP_Disconnect>:
     9b4:	1101                	addi	sp,sp,-32
     9b6:	ce06                	sw	ra,28(sp)
     9b8:	cc22                	sw	s0,24(sp)
     9ba:	1000                	addi	s0,sp,32
     9bc:	fea42623          	sw	a0,-20(s0)
     9c0:	200067b7          	lui	a5,0x20006
     9c4:	5f878793          	addi	a5,a5,1528 # 200065f8 <DAP_Data>
     9c8:	00078023          	sb	zero,0(a5)
     9cc:	3eb9                	jal	52a <PORT_OFF>
     9ce:	fec42783          	lw	a5,-20(s0)
     9d2:	00078023          	sb	zero,0(a5)
     9d6:	4785                	li	a5,1
     9d8:	853e                	mv	a0,a5
     9da:	40f2                	lw	ra,28(sp)
     9dc:	4462                	lw	s0,24(sp)
     9de:	6105                	addi	sp,sp,32
     9e0:	8082                	ret

000009e2 <DAP_ResetTarget>:
     9e2:	1101                	addi	sp,sp,-32
     9e4:	ce06                	sw	ra,28(sp)
     9e6:	cc22                	sw	s0,24(sp)
     9e8:	ca26                	sw	s1,20(sp)
     9ea:	1000                	addi	s0,sp,32
     9ec:	fea42623          	sw	a0,-20(s0)
     9f0:	fec42783          	lw	a5,-20(s0)
     9f4:	00178493          	addi	s1,a5,1
     9f8:	31bd                	jal	666 <RESET_TARGET>
     9fa:	87aa                	mv	a5,a0
     9fc:	a09c                	.2byte	0xa09c
     9fe:	fec42783          	lw	a5,-20(s0)
     a02:	00078023          	sb	zero,0(a5)
     a06:	4789                	li	a5,2
     a08:	853e                	mv	a0,a5
     a0a:	40f2                	lw	ra,28(sp)
     a0c:	4462                	lw	s0,24(sp)
     a0e:	44d2                	lw	s1,20(sp)
     a10:	6105                	addi	sp,sp,32
     a12:	8082                	ret

00000a14 <DAP_SWJ_Pins>:
     a14:	7139                	addi	sp,sp,-64
     a16:	de06                	sw	ra,60(sp)
     a18:	dc22                	sw	s0,56(sp)
     a1a:	0080                	addi	s0,sp,64
     a1c:	fca42623          	sw	a0,-52(s0)
     a20:	fcb42423          	sw	a1,-56(s0)
     a24:	fcc42783          	lw	a5,-52(s0)
     a28:	239c                	.2byte	0x239c
     a2a:	fef42623          	sw	a5,-20(s0)
     a2e:	fcc42783          	lw	a5,-52(s0)
     a32:	0785                	addi	a5,a5,1
     a34:	239c                	.2byte	0x239c
     a36:	fef42423          	sw	a5,-24(s0)
     a3a:	fcc42783          	lw	a5,-52(s0)
     a3e:	0789                	addi	a5,a5,2
     a40:	239c                	.2byte	0x239c
     a42:	873e                	mv	a4,a5
     a44:	fcc42783          	lw	a5,-52(s0)
     a48:	078d                	addi	a5,a5,3
     a4a:	239c                	.2byte	0x239c
     a4c:	07a2                	slli	a5,a5,0x8
     a4e:	8f5d                	or	a4,a4,a5
     a50:	fcc42783          	lw	a5,-52(s0)
     a54:	0791                	addi	a5,a5,4
     a56:	239c                	.2byte	0x239c
     a58:	07c2                	slli	a5,a5,0x10
     a5a:	8f5d                	or	a4,a4,a5
     a5c:	fcc42783          	lw	a5,-52(s0)
     a60:	0795                	addi	a5,a5,5
     a62:	239c                	.2byte	0x239c
     a64:	07e2                	slli	a5,a5,0x18
     a66:	8fd9                	or	a5,a5,a4
     a68:	fef42223          	sw	a5,-28(s0)
     a6c:	fe842783          	lw	a5,-24(s0)
     a70:	8b85                	andi	a5,a5,1
     a72:	c39d                	beqz	a5,a98 <DAP_SWJ_Pins+0x84>
     a74:	fec42783          	lw	a5,-20(s0)
     a78:	8b85                	andi	a5,a5,1
     a7a:	cb81                	beqz	a5,a8a <DAP_SWJ_Pins+0x76>
     a7c:	400117b7          	lui	a5,0x40011
     a80:	80078793          	addi	a5,a5,-2048 # 40010800 <_eusrstack+0x20008800>
     a84:	6711                	lui	a4,0x4
     a86:	cb98                	sw	a4,16(a5)
     a88:	a801                	j	a98 <DAP_SWJ_Pins+0x84>
     a8a:	400117b7          	lui	a5,0x40011
     a8e:	80078793          	addi	a5,a5,-2048 # 40010800 <_eusrstack+0x20008800>
     a92:	6711                	lui	a4,0x4
     a94:	cbd8                	sw	a4,20(a5)
     a96:	0001                	nop
     a98:	fe842783          	lw	a5,-24(s0)
     a9c:	8b89                	andi	a5,a5,2
     a9e:	c39d                	beqz	a5,ac4 <DAP_SWJ_Pins+0xb0>
     aa0:	fec42783          	lw	a5,-20(s0)
     aa4:	8b89                	andi	a5,a5,2
     aa6:	cb81                	beqz	a5,ab6 <DAP_SWJ_Pins+0xa2>
     aa8:	400117b7          	lui	a5,0x40011
     aac:	80078793          	addi	a5,a5,-2048 # 40010800 <_eusrstack+0x20008800>
     ab0:	6709                	lui	a4,0x2
     ab2:	cb98                	sw	a4,16(a5)
     ab4:	a801                	j	ac4 <DAP_SWJ_Pins+0xb0>
     ab6:	400117b7          	lui	a5,0x40011
     aba:	80078793          	addi	a5,a5,-2048 # 40010800 <_eusrstack+0x20008800>
     abe:	6709                	lui	a4,0x2
     ac0:	cbd8                	sw	a4,20(a5)
     ac2:	0001                	nop
     ac4:	fe842783          	lw	a5,-24(s0)
     ac8:	8b91                	andi	a5,a5,4
     aca:	cb85                	beqz	a5,afa <DAP_SWJ_Pins+0xe6>
     acc:	fec42783          	lw	a5,-20(s0)
     ad0:	8389                	srli	a5,a5,0x2
     ad2:	fcf42e23          	sw	a5,-36(s0)
     ad6:	fdc42783          	lw	a5,-36(s0)
     ada:	8b85                	andi	a5,a5,1
     adc:	cb81                	beqz	a5,aec <DAP_SWJ_Pins+0xd8>
     ade:	400117b7          	lui	a5,0x40011
     ae2:	c0078793          	addi	a5,a5,-1024 # 40010c00 <_eusrstack+0x20008c00>
     ae6:	6721                	lui	a4,0x8
     ae8:	cb98                	sw	a4,16(a5)
     aea:	a039                	j	af8 <DAP_SWJ_Pins+0xe4>
     aec:	400117b7          	lui	a5,0x40011
     af0:	c0078793          	addi	a5,a5,-1024 # 40010c00 <_eusrstack+0x20008c00>
     af4:	6721                	lui	a4,0x8
     af6:	cbd8                	sw	a4,20(a5)
     af8:	0001                	nop
     afa:	fe842783          	lw	a5,-24(s0)
     afe:	0207f793          	andi	a5,a5,32
     b02:	c799                	beqz	a5,b10 <DAP_SWJ_Pins+0xfc>
     b04:	fec42783          	lw	a5,-20(s0)
     b08:	8395                	srli	a5,a5,0x5
     b0a:	fcf42c23          	sw	a5,-40(s0)
     b0e:	0001                	nop
     b10:	fe842783          	lw	a5,-24(s0)
     b14:	0807f793          	andi	a5,a5,128
     b18:	cb8d                	beqz	a5,b4a <DAP_SWJ_Pins+0x136>
     b1a:	fec42783          	lw	a5,-20(s0)
     b1e:	839d                	srli	a5,a5,0x7
     b20:	fcf42a23          	sw	a5,-44(s0)
     b24:	fd442783          	lw	a5,-44(s0)
     b28:	8b85                	andi	a5,a5,1
     b2a:	c799                	beqz	a5,b38 <DAP_SWJ_Pins+0x124>
     b2c:	400117b7          	lui	a5,0x40011
     b30:	10000713          	li	a4,256
     b34:	cb98                	sw	a4,16(a5)
     b36:	a809                	j	b48 <DAP_SWJ_Pins+0x134>
     b38:	400117b7          	lui	a5,0x40011
     b3c:	10000713          	li	a4,256
     b40:	cbd8                	sw	a4,20(a5)
     b42:	4501                	li	a0,0
     b44:	5b80a0ef          	jal	ra,b0fc <swd_set_target_reset>
     b48:	0001                	nop
     b4a:	fe442783          	lw	a5,-28(s0)
     b4e:	c7ed                	beqz	a5,c38 <DAP_SWJ_Pins+0x224>
     b50:	4785                	li	a5,1
     b52:	fef42223          	sw	a5,-28(s0)
     b56:	345d                	jal	5fc <TIMESTAMP_GET>
     b58:	fea42023          	sw	a0,-32(s0)
     b5c:	fe842783          	lw	a5,-24(s0)
     b60:	8b85                	andi	a5,a5,1
     b62:	c38d                	beqz	a5,b84 <DAP_SWJ_Pins+0x170>
     b64:	400117b7          	lui	a5,0x40011
     b68:	80078793          	addi	a5,a5,-2048 # 40010800 <_eusrstack+0x20008800>
     b6c:	47d8                	lw	a4,12(a5)
     b6e:	6791                	lui	a5,0x4
     b70:	8ff9                	and	a5,a5,a4
     b72:	00f037b3          	snez	a5,a5
     b76:	0ff7f793          	zext.b	a5,a5
     b7a:	873e                	mv	a4,a5
     b7c:	fec42783          	lw	a5,-20(s0)
     b80:	08e79963          	bne	a5,a4,c12 <DAP_SWJ_Pins+0x1fe>
     b84:	fe842783          	lw	a5,-24(s0)
     b88:	8b89                	andi	a5,a5,2
     b8a:	c38d                	beqz	a5,bac <DAP_SWJ_Pins+0x198>
     b8c:	fec42783          	lw	a5,-20(s0)
     b90:	8385                	srli	a5,a5,0x1
     b92:	40011737          	lui	a4,0x40011
     b96:	80070713          	addi	a4,a4,-2048 # 40010800 <_eusrstack+0x20008800>
     b9a:	4754                	lw	a3,12(a4)
     b9c:	6709                	lui	a4,0x2
     b9e:	8f75                	and	a4,a4,a3
     ba0:	00e03733          	snez	a4,a4
     ba4:	0ff77713          	zext.b	a4,a4
     ba8:	06e79763          	bne	a5,a4,c16 <DAP_SWJ_Pins+0x202>
     bac:	fe842783          	lw	a5,-24(s0)
     bb0:	8b91                	andi	a5,a5,4
     bb2:	c38d                	beqz	a5,bd4 <DAP_SWJ_Pins+0x1c0>
     bb4:	fec42783          	lw	a5,-20(s0)
     bb8:	8389                	srli	a5,a5,0x2
     bba:	40011737          	lui	a4,0x40011
     bbe:	c0070713          	addi	a4,a4,-1024 # 40010c00 <_eusrstack+0x20008c00>
     bc2:	4754                	lw	a3,12(a4)
     bc4:	6721                	lui	a4,0x8
     bc6:	8f75                	and	a4,a4,a3
     bc8:	00e03733          	snez	a4,a4
     bcc:	0ff77713          	zext.b	a4,a4
     bd0:	04e79563          	bne	a5,a4,c1a <DAP_SWJ_Pins+0x206>
     bd4:	fe842783          	lw	a5,-24(s0)
     bd8:	0207f793          	andi	a5,a5,32
     bdc:	c799                	beqz	a5,bea <DAP_SWJ_Pins+0x1d6>
     bde:	fec42783          	lw	a5,-20(s0)
     be2:	8395                	srli	a5,a5,0x5
     be4:	4701                	li	a4,0
     be6:	02e79c63          	bne	a5,a4,c1e <DAP_SWJ_Pins+0x20a>
     bea:	fe842783          	lw	a5,-24(s0)
     bee:	0807f793          	andi	a5,a5,128
     bf2:	c3b1                	beqz	a5,c36 <DAP_SWJ_Pins+0x222>
     bf4:	fec42783          	lw	a5,-20(s0)
     bf8:	839d                	srli	a5,a5,0x7
     bfa:	40011737          	lui	a4,0x40011
     bfe:	4758                	lw	a4,12(a4)
     c00:	10077713          	andi	a4,a4,256
     c04:	00e03733          	snez	a4,a4
     c08:	0ff77713          	zext.b	a4,a4
     c0c:	02e78563          	beq	a5,a4,c36 <DAP_SWJ_Pins+0x222>
     c10:	a801                	j	c20 <DAP_SWJ_Pins+0x20c>
     c12:	0001                	nop
     c14:	a031                	j	c20 <DAP_SWJ_Pins+0x20c>
     c16:	0001                	nop
     c18:	a021                	j	c20 <DAP_SWJ_Pins+0x20c>
     c1a:	0001                	nop
     c1c:	a011                	j	c20 <DAP_SWJ_Pins+0x20c>
     c1e:	0001                	nop
     c20:	3af1                	jal	5fc <TIMESTAMP_GET>
     c22:	872a                	mv	a4,a0
     c24:	fe042783          	lw	a5,-32(s0)
     c28:	40f707b3          	sub	a5,a4,a5
     c2c:	fe442703          	lw	a4,-28(s0)
     c30:	f2e7e6e3          	bltu	a5,a4,b5c <DAP_SWJ_Pins+0x148>
     c34:	a011                	j	c38 <DAP_SWJ_Pins+0x224>
     c36:	0001                	nop
     c38:	400117b7          	lui	a5,0x40011
     c3c:	80078793          	addi	a5,a5,-2048 # 40010800 <_eusrstack+0x20008800>
     c40:	47d8                	lw	a4,12(a5)
     c42:	6791                	lui	a5,0x4
     c44:	8ff9                	and	a5,a5,a4
     c46:	00f037b3          	snez	a5,a5
     c4a:	0ff7f793          	zext.b	a5,a5
     c4e:	86be                	mv	a3,a5
     c50:	400117b7          	lui	a5,0x40011
     c54:	80078793          	addi	a5,a5,-2048 # 40010800 <_eusrstack+0x20008800>
     c58:	47d8                	lw	a4,12(a5)
     c5a:	6789                	lui	a5,0x2
     c5c:	8ff9                	and	a5,a5,a4
     c5e:	00f037b3          	snez	a5,a5
     c62:	0ff7f793          	zext.b	a5,a5
     c66:	0786                	slli	a5,a5,0x1
     c68:	00f6e733          	or	a4,a3,a5
     c6c:	400117b7          	lui	a5,0x40011
     c70:	c0078793          	addi	a5,a5,-1024 # 40010c00 <_eusrstack+0x20008c00>
     c74:	47d4                	lw	a3,12(a5)
     c76:	67a1                	lui	a5,0x8
     c78:	8ff5                	and	a5,a5,a3
     c7a:	00f037b3          	snez	a5,a5
     c7e:	0ff7f793          	zext.b	a5,a5
     c82:	078a                	slli	a5,a5,0x2
     c84:	8f5d                	or	a4,a4,a5
     c86:	400117b7          	lui	a5,0x40011
     c8a:	c0078793          	addi	a5,a5,-1024 # 40010c00 <_eusrstack+0x20008c00>
     c8e:	4794                	lw	a3,8(a5)
     c90:	6791                	lui	a5,0x4
     c92:	8ff5                	and	a5,a5,a3
     c94:	00f037b3          	snez	a5,a5
     c98:	0ff7f793          	zext.b	a5,a5
     c9c:	078e                	slli	a5,a5,0x3
     c9e:	8f5d                	or	a4,a4,a5
     ca0:	4781                	li	a5,0
     ca2:	0796                	slli	a5,a5,0x5
     ca4:	8f5d                	or	a4,a4,a5
     ca6:	400117b7          	lui	a5,0x40011
     caa:	47dc                	lw	a5,12(a5)
     cac:	1007f793          	andi	a5,a5,256
     cb0:	00f037b3          	snez	a5,a5
     cb4:	0ff7f793          	zext.b	a5,a5
     cb8:	079e                	slli	a5,a5,0x7
     cba:	8fd9                	or	a5,a5,a4
     cbc:	fef42623          	sw	a5,-20(s0)
     cc0:	fec42783          	lw	a5,-20(s0)
     cc4:	0ff7f713          	zext.b	a4,a5
     cc8:	fc842783          	lw	a5,-56(s0)
     ccc:	a398                	.2byte	0xa398
     cce:	000607b7          	lui	a5,0x60
     cd2:	0785                	addi	a5,a5,1 # 60001 <_data_lma+0x52231>
     cd4:	853e                	mv	a0,a5
     cd6:	50f2                	lw	ra,60(sp)
     cd8:	5462                	lw	s0,56(sp)
     cda:	6121                	addi	sp,sp,64
     cdc:	8082                	ret

00000cde <DAP_SWJ_Clock>:
     cde:	7179                	addi	sp,sp,-48
     ce0:	d606                	sw	ra,44(sp)
     ce2:	d422                	sw	s0,40(sp)
     ce4:	1800                	addi	s0,sp,48
     ce6:	fca42e23          	sw	a0,-36(s0)
     cea:	fcb42c23          	sw	a1,-40(s0)
     cee:	fdc42783          	lw	a5,-36(s0)
     cf2:	239c                	.2byte	0x239c
     cf4:	873e                	mv	a4,a5
     cf6:	fdc42783          	lw	a5,-36(s0)
     cfa:	0785                	addi	a5,a5,1
     cfc:	239c                	.2byte	0x239c
     cfe:	07a2                	slli	a5,a5,0x8
     d00:	8f5d                	or	a4,a4,a5
     d02:	fdc42783          	lw	a5,-36(s0)
     d06:	0789                	addi	a5,a5,2
     d08:	239c                	.2byte	0x239c
     d0a:	07c2                	slli	a5,a5,0x10
     d0c:	8f5d                	or	a4,a4,a5
     d0e:	fdc42783          	lw	a5,-36(s0)
     d12:	078d                	addi	a5,a5,3
     d14:	239c                	.2byte	0x239c
     d16:	07e2                	slli	a5,a5,0x18
     d18:	8fd9                	or	a5,a5,a4
     d1a:	fef42623          	sw	a5,-20(s0)
     d1e:	fec42783          	lw	a5,-20(s0)
     d22:	eb89                	bnez	a5,d34 <DAP_SWJ_Clock+0x56>
     d24:	fd842783          	lw	a5,-40(s0)
     d28:	577d                	li	a4,-1
     d2a:	a398                	.2byte	0xa398
     d2c:	000407b7          	lui	a5,0x40
     d30:	0785                	addi	a5,a5,1 # 40001 <_data_lma+0x32231>
     d32:	a819                	j	d48 <DAP_SWJ_Clock+0x6a>
     d34:	fec42503          	lw	a0,-20(s0)
     d38:	3a3d                	jal	676 <Set_Clock_Delay>
     d3a:	fd842783          	lw	a5,-40(s0)
     d3e:	00078023          	sb	zero,0(a5)
     d42:	000407b7          	lui	a5,0x40
     d46:	0785                	addi	a5,a5,1 # 40001 <_data_lma+0x32231>
     d48:	853e                	mv	a0,a5
     d4a:	50b2                	lw	ra,44(sp)
     d4c:	5422                	lw	s0,40(sp)
     d4e:	6145                	addi	sp,sp,48
     d50:	8082                	ret

00000d52 <DAP_SWJ_Sequence>:
     d52:	7179                	addi	sp,sp,-48
     d54:	d606                	sw	ra,44(sp)
     d56:	d422                	sw	s0,40(sp)
     d58:	1800                	addi	s0,sp,48
     d5a:	fca42e23          	sw	a0,-36(s0)
     d5e:	fcb42c23          	sw	a1,-40(s0)
     d62:	fdc42783          	lw	a5,-36(s0)
     d66:	00178713          	addi	a4,a5,1
     d6a:	fce42e23          	sw	a4,-36(s0)
     d6e:	239c                	.2byte	0x239c
     d70:	fef42623          	sw	a5,-20(s0)
     d74:	fec42783          	lw	a5,-20(s0)
     d78:	e789                	bnez	a5,d82 <DAP_SWJ_Sequence+0x30>
     d7a:	10000793          	li	a5,256
     d7e:	fef42623          	sw	a5,-20(s0)
     d82:	fdc42583          	lw	a1,-36(s0)
     d86:	fec42503          	lw	a0,-20(s0)
     d8a:	6e1040ef          	jal	ra,5c6a <SWJ_Sequence>
     d8e:	fd842783          	lw	a5,-40(s0)
     d92:	00078023          	sb	zero,0(a5)
     d96:	fec42783          	lw	a5,-20(s0)
     d9a:	079d                	addi	a5,a5,7
     d9c:	838d                	srli	a5,a5,0x3
     d9e:	fef42623          	sw	a5,-20(s0)
     da2:	fec42783          	lw	a5,-20(s0)
     da6:	0785                	addi	a5,a5,1
     da8:	07c2                	slli	a5,a5,0x10
     daa:	0017e793          	ori	a5,a5,1
     dae:	853e                	mv	a0,a5
     db0:	50b2                	lw	ra,44(sp)
     db2:	5422                	lw	s0,40(sp)
     db4:	6145                	addi	sp,sp,48
     db6:	8082                	ret

00000db8 <DAP_SWD_Configure>:
     db8:	7179                	addi	sp,sp,-48
     dba:	d622                	sw	s0,44(sp)
     dbc:	1800                	addi	s0,sp,48
     dbe:	fca42e23          	sw	a0,-36(s0)
     dc2:	fcb42c23          	sw	a1,-40(s0)
     dc6:	fdc42783          	lw	a5,-36(s0)
     dca:	239c                	.2byte	0x239c
     dcc:	fef407a3          	sb	a5,-17(s0)
     dd0:	fef44783          	lbu	a5,-17(s0)
     dd4:	8b8d                	andi	a5,a5,3
     dd6:	0ff7f793          	zext.b	a5,a5
     dda:	0785                	addi	a5,a5,1
     ddc:	0ff7f713          	zext.b	a4,a5
     de0:	200067b7          	lui	a5,0x20006
     de4:	5f878793          	addi	a5,a5,1528 # 200065f8 <DAP_Data>
     de8:	af98                	.2byte	0xaf98
     dea:	fef44783          	lbu	a5,-17(s0)
     dee:	8389                	srli	a5,a5,0x2
     df0:	0ff7f793          	zext.b	a5,a5
     df4:	8b85                	andi	a5,a5,1
     df6:	0ff7f713          	zext.b	a4,a5
     dfa:	200067b7          	lui	a5,0x20006
     dfe:	5f878793          	addi	a5,a5,1528 # 200065f8 <DAP_Data>
     e02:	bf98                	.2byte	0xbf98
     e04:	fd842783          	lw	a5,-40(s0)
     e08:	00078023          	sb	zero,0(a5)
     e0c:	67c1                	lui	a5,0x10
     e0e:	0785                	addi	a5,a5,1 # 10001 <_data_lma+0x2231>
     e10:	853e                	mv	a0,a5
     e12:	5432                	lw	s0,44(sp)
     e14:	6145                	addi	sp,sp,48
     e16:	8082                	ret

00000e18 <DAP_SWD_Sequence>:
     e18:	7139                	addi	sp,sp,-64
     e1a:	de06                	sw	ra,60(sp)
     e1c:	dc22                	sw	s0,56(sp)
     e1e:	0080                	addi	s0,sp,64
     e20:	fca42623          	sw	a0,-52(s0)
     e24:	fcb42423          	sw	a1,-56(s0)
     e28:	fc842783          	lw	a5,-56(s0)
     e2c:	00178713          	addi	a4,a5,1
     e30:	fce42423          	sw	a4,-56(s0)
     e34:	00078023          	sb	zero,0(a5)
     e38:	4785                	li	a5,1
     e3a:	fef42423          	sw	a5,-24(s0)
     e3e:	4785                	li	a5,1
     e40:	fef42223          	sw	a5,-28(s0)
     e44:	fcc42783          	lw	a5,-52(s0)
     e48:	00178713          	addi	a4,a5,1
     e4c:	fce42623          	sw	a4,-52(s0)
     e50:	239c                	.2byte	0x239c
     e52:	fef42623          	sw	a5,-20(s0)
     e56:	a2b1                	j	fa2 <DAP_SWD_Sequence+0x18a>
     e58:	fcc42783          	lw	a5,-52(s0)
     e5c:	00178713          	addi	a4,a5,1
     e60:	fce42623          	sw	a4,-52(s0)
     e64:	239c                	.2byte	0x239c
     e66:	fcf42e23          	sw	a5,-36(s0)
     e6a:	fdc42783          	lw	a5,-36(s0)
     e6e:	03f7f793          	andi	a5,a5,63
     e72:	fef42023          	sw	a5,-32(s0)
     e76:	fe042783          	lw	a5,-32(s0)
     e7a:	e789                	bnez	a5,e84 <DAP_SWD_Sequence+0x6c>
     e7c:	04000793          	li	a5,64
     e80:	fef42023          	sw	a5,-32(s0)
     e84:	fe042783          	lw	a5,-32(s0)
     e88:	079d                	addi	a5,a5,7
     e8a:	838d                	srli	a5,a5,0x3
     e8c:	fef42023          	sw	a5,-32(s0)
     e90:	fdc42783          	lw	a5,-36(s0)
     e94:	0807f793          	andi	a5,a5,128
     e98:	cf85                	beqz	a5,ed0 <DAP_SWD_Sequence+0xb8>
     e9a:	400117b7          	lui	a5,0x40011
     e9e:	80078793          	addi	a5,a5,-2048 # 40010800 <_eusrstack+0x20008800>
     ea2:	43d4                	lw	a3,4(a5)
     ea4:	400117b7          	lui	a5,0x40011
     ea8:	80078793          	addi	a5,a5,-2048 # 40010800 <_eusrstack+0x20008800>
     eac:	ff000737          	lui	a4,0xff000
     eb0:	8f75                	and	a4,a4,a3
     eb2:	c3d8                	sw	a4,4(a5)
     eb4:	400117b7          	lui	a5,0x40011
     eb8:	80078793          	addi	a5,a5,-2048 # 40010800 <_eusrstack+0x20008800>
     ebc:	43d4                	lw	a3,4(a5)
     ebe:	400117b7          	lui	a5,0x40011
     ec2:	80078793          	addi	a5,a5,-2048 # 40010800 <_eusrstack+0x20008800>
     ec6:	00400737          	lui	a4,0x400
     eca:	8f55                	or	a4,a4,a3
     ecc:	c3d8                	sw	a4,4(a5)
     ece:	a825                	j	f06 <DAP_SWD_Sequence+0xee>
     ed0:	400117b7          	lui	a5,0x40011
     ed4:	80078793          	addi	a5,a5,-2048 # 40010800 <_eusrstack+0x20008800>
     ed8:	43d4                	lw	a3,4(a5)
     eda:	400117b7          	lui	a5,0x40011
     ede:	80078793          	addi	a5,a5,-2048 # 40010800 <_eusrstack+0x20008800>
     ee2:	ff000737          	lui	a4,0xff000
     ee6:	8f75                	and	a4,a4,a3
     ee8:	c3d8                	sw	a4,4(a5)
     eea:	400117b7          	lui	a5,0x40011
     eee:	80078793          	addi	a5,a5,-2048 # 40010800 <_eusrstack+0x20008800>
     ef2:	43d4                	lw	a3,4(a5)
     ef4:	400117b7          	lui	a5,0x40011
     ef8:	80078793          	addi	a5,a5,-2048 # 40010800 <_eusrstack+0x20008800>
     efc:	01300737          	lui	a4,0x1300
     f00:	8f55                	or	a4,a4,a3
     f02:	c3d8                	sw	a4,4(a5)
     f04:	0001                	nop
     f06:	fc842603          	lw	a2,-56(s0)
     f0a:	fcc42583          	lw	a1,-52(s0)
     f0e:	fdc42503          	lw	a0,-36(s0)
     f12:	64f040ef          	jal	ra,5d60 <SWD_Sequence>
     f16:	fec42783          	lw	a5,-20(s0)
     f1a:	ef85                	bnez	a5,f52 <DAP_SWD_Sequence+0x13a>
     f1c:	400117b7          	lui	a5,0x40011
     f20:	80078793          	addi	a5,a5,-2048 # 40010800 <_eusrstack+0x20008800>
     f24:	43d4                	lw	a3,4(a5)
     f26:	400117b7          	lui	a5,0x40011
     f2a:	80078793          	addi	a5,a5,-2048 # 40010800 <_eusrstack+0x20008800>
     f2e:	ff000737          	lui	a4,0xff000
     f32:	8f75                	and	a4,a4,a3
     f34:	c3d8                	sw	a4,4(a5)
     f36:	400117b7          	lui	a5,0x40011
     f3a:	80078793          	addi	a5,a5,-2048 # 40010800 <_eusrstack+0x20008800>
     f3e:	43d4                	lw	a3,4(a5)
     f40:	400117b7          	lui	a5,0x40011
     f44:	80078793          	addi	a5,a5,-2048 # 40010800 <_eusrstack+0x20008800>
     f48:	01300737          	lui	a4,0x1300
     f4c:	8f55                	or	a4,a4,a3
     f4e:	c3d8                	sw	a4,4(a5)
     f50:	0001                	nop
     f52:	fdc42783          	lw	a5,-36(s0)
     f56:	0807f793          	andi	a5,a5,128
     f5a:	c78d                	beqz	a5,f84 <DAP_SWD_Sequence+0x16c>
     f5c:	fe842783          	lw	a5,-24(s0)
     f60:	0785                	addi	a5,a5,1
     f62:	fef42423          	sw	a5,-24(s0)
     f66:	fc842703          	lw	a4,-56(s0)
     f6a:	fe042783          	lw	a5,-32(s0)
     f6e:	97ba                	add	a5,a5,a4
     f70:	fcf42423          	sw	a5,-56(s0)
     f74:	fe442703          	lw	a4,-28(s0)
     f78:	fe042783          	lw	a5,-32(s0)
     f7c:	97ba                	add	a5,a5,a4
     f7e:	fef42223          	sw	a5,-28(s0)
     f82:	a005                	j	fa2 <DAP_SWD_Sequence+0x18a>
     f84:	fcc42703          	lw	a4,-52(s0)
     f88:	fe042783          	lw	a5,-32(s0)
     f8c:	97ba                	add	a5,a5,a4
     f8e:	fcf42623          	sw	a5,-52(s0)
     f92:	fe042703          	lw	a4,-32(s0)
     f96:	fe842783          	lw	a5,-24(s0)
     f9a:	97ba                	add	a5,a5,a4
     f9c:	0785                	addi	a5,a5,1
     f9e:	fef42423          	sw	a5,-24(s0)
     fa2:	fec42783          	lw	a5,-20(s0)
     fa6:	fff78713          	addi	a4,a5,-1
     faa:	fee42623          	sw	a4,-20(s0)
     fae:	ea0795e3          	bnez	a5,e58 <DAP_SWD_Sequence+0x40>
     fb2:	fe842783          	lw	a5,-24(s0)
     fb6:	01079713          	slli	a4,a5,0x10
     fba:	fe442783          	lw	a5,-28(s0)
     fbe:	8fd9                	or	a5,a5,a4
     fc0:	853e                	mv	a0,a5
     fc2:	50f2                	lw	ra,60(sp)
     fc4:	5462                	lw	s0,56(sp)
     fc6:	6121                	addi	sp,sp,64
     fc8:	8082                	ret

00000fca <DAP_JTAG_Sequence>:
     fca:	7139                	addi	sp,sp,-64
     fcc:	de06                	sw	ra,60(sp)
     fce:	dc22                	sw	s0,56(sp)
     fd0:	0080                	addi	s0,sp,64
     fd2:	fca42623          	sw	a0,-52(s0)
     fd6:	fcb42423          	sw	a1,-56(s0)
     fda:	fc842783          	lw	a5,-56(s0)
     fde:	00178713          	addi	a4,a5,1
     fe2:	fce42423          	sw	a4,-56(s0)
     fe6:	00078023          	sb	zero,0(a5)
     fea:	4785                	li	a5,1
     fec:	fef42423          	sw	a5,-24(s0)
     ff0:	4785                	li	a5,1
     ff2:	fef42223          	sw	a5,-28(s0)
     ff6:	fcc42783          	lw	a5,-52(s0)
     ffa:	00178713          	addi	a4,a5,1
     ffe:	fce42623          	sw	a4,-52(s0)
    1002:	239c                	.2byte	0x239c
    1004:	fef42623          	sw	a5,-20(s0)
    1008:	a079                	j	1096 <DAP_JTAG_Sequence+0xcc>
    100a:	fcc42783          	lw	a5,-52(s0)
    100e:	00178713          	addi	a4,a5,1
    1012:	fce42623          	sw	a4,-52(s0)
    1016:	239c                	.2byte	0x239c
    1018:	fcf42e23          	sw	a5,-36(s0)
    101c:	fdc42783          	lw	a5,-36(s0)
    1020:	03f7f793          	andi	a5,a5,63
    1024:	fef42023          	sw	a5,-32(s0)
    1028:	fe042783          	lw	a5,-32(s0)
    102c:	e789                	bnez	a5,1036 <DAP_JTAG_Sequence+0x6c>
    102e:	04000793          	li	a5,64
    1032:	fef42023          	sw	a5,-32(s0)
    1036:	fe042783          	lw	a5,-32(s0)
    103a:	079d                	addi	a5,a5,7
    103c:	838d                	srli	a5,a5,0x3
    103e:	fef42023          	sw	a5,-32(s0)
    1042:	fc842603          	lw	a2,-56(s0)
    1046:	fcc42583          	lw	a1,-52(s0)
    104a:	fdc42503          	lw	a0,-36(s0)
    104e:	6e9010ef          	jal	ra,2f36 <JTAG_Sequence>
    1052:	fcc42703          	lw	a4,-52(s0)
    1056:	fe042783          	lw	a5,-32(s0)
    105a:	97ba                	add	a5,a5,a4
    105c:	fcf42623          	sw	a5,-52(s0)
    1060:	fe042703          	lw	a4,-32(s0)
    1064:	fe842783          	lw	a5,-24(s0)
    1068:	97ba                	add	a5,a5,a4
    106a:	0785                	addi	a5,a5,1
    106c:	fef42423          	sw	a5,-24(s0)
    1070:	fdc42783          	lw	a5,-36(s0)
    1074:	0807f793          	andi	a5,a5,128
    1078:	cf99                	beqz	a5,1096 <DAP_JTAG_Sequence+0xcc>
    107a:	fc842703          	lw	a4,-56(s0)
    107e:	fe042783          	lw	a5,-32(s0)
    1082:	97ba                	add	a5,a5,a4
    1084:	fcf42423          	sw	a5,-56(s0)
    1088:	fe442703          	lw	a4,-28(s0)
    108c:	fe042783          	lw	a5,-32(s0)
    1090:	97ba                	add	a5,a5,a4
    1092:	fef42223          	sw	a5,-28(s0)
    1096:	fec42783          	lw	a5,-20(s0)
    109a:	fff78713          	addi	a4,a5,-1
    109e:	fee42623          	sw	a4,-20(s0)
    10a2:	f7a5                	bnez	a5,100a <DAP_JTAG_Sequence+0x40>
    10a4:	fe842783          	lw	a5,-24(s0)
    10a8:	01079713          	slli	a4,a5,0x10
    10ac:	fe442783          	lw	a5,-28(s0)
    10b0:	8fd9                	or	a5,a5,a4
    10b2:	853e                	mv	a0,a5
    10b4:	50f2                	lw	ra,60(sp)
    10b6:	5462                	lw	s0,56(sp)
    10b8:	6121                	addi	sp,sp,64
    10ba:	8082                	ret

000010bc <DAP_JTAG_Configure>:
    10bc:	7179                	addi	sp,sp,-48
    10be:	d622                	sw	s0,44(sp)
    10c0:	1800                	addi	s0,sp,48
    10c2:	fca42e23          	sw	a0,-36(s0)
    10c6:	fcb42c23          	sw	a1,-40(s0)
    10ca:	fdc42783          	lw	a5,-36(s0)
    10ce:	00178713          	addi	a4,a5,1
    10d2:	fce42e23          	sw	a4,-36(s0)
    10d6:	239c                	.2byte	0x239c
    10d8:	fef42223          	sw	a5,-28(s0)
    10dc:	fe442783          	lw	a5,-28(s0)
    10e0:	0ff7f713          	zext.b	a4,a5
    10e4:	200067b7          	lui	a5,0x20006
    10e8:	5f878793          	addi	a5,a5,1528 # 200065f8 <DAP_Data>
    10ec:	afb8                	.2byte	0xafb8
    10ee:	fe042623          	sw	zero,-20(s0)
    10f2:	fe042423          	sw	zero,-24(s0)
    10f6:	a08d                	j	1158 <DAP_JTAG_Configure+0x9c>
    10f8:	fdc42783          	lw	a5,-36(s0)
    10fc:	00178713          	addi	a4,a5,1
    1100:	fce42e23          	sw	a4,-36(s0)
    1104:	239c                	.2byte	0x239c
    1106:	fef42023          	sw	a5,-32(s0)
    110a:	fe042783          	lw	a5,-32(s0)
    110e:	0ff7f713          	zext.b	a4,a5
    1112:	200067b7          	lui	a5,0x20006
    1116:	5f878693          	addi	a3,a5,1528 # 200065f8 <DAP_Data>
    111a:	fe842783          	lw	a5,-24(s0)
    111e:	97b6                	add	a5,a5,a3
    1120:	afd8                	.2byte	0xafd8
    1122:	fec42783          	lw	a5,-20(s0)
    1126:	01079713          	slli	a4,a5,0x10
    112a:	8341                	srli	a4,a4,0x10
    112c:	200067b7          	lui	a5,0x20006
    1130:	5f878693          	addi	a3,a5,1528 # 200065f8 <DAP_Data>
    1134:	fe842783          	lw	a5,-24(s0)
    1138:	07a1                	addi	a5,a5,8
    113a:	0786                	slli	a5,a5,0x1
    113c:	97b6                	add	a5,a5,a3
    113e:	abda                	.2byte	0xabda
    1140:	fec42703          	lw	a4,-20(s0)
    1144:	fe042783          	lw	a5,-32(s0)
    1148:	97ba                	add	a5,a5,a4
    114a:	fef42623          	sw	a5,-20(s0)
    114e:	fe842783          	lw	a5,-24(s0)
    1152:	0785                	addi	a5,a5,1
    1154:	fef42423          	sw	a5,-24(s0)
    1158:	fe842703          	lw	a4,-24(s0)
    115c:	fe442783          	lw	a5,-28(s0)
    1160:	f8f76ce3          	bltu	a4,a5,10f8 <DAP_JTAG_Configure+0x3c>
    1164:	fe042423          	sw	zero,-24(s0)
    1168:	a099                	j	11ae <DAP_JTAG_Configure+0xf2>
    116a:	200067b7          	lui	a5,0x20006
    116e:	5f878713          	addi	a4,a5,1528 # 200065f8 <DAP_Data>
    1172:	fe842783          	lw	a5,-24(s0)
    1176:	97ba                	add	a5,a5,a4
    1178:	2fdc                	.2byte	0x2fdc
    117a:	873e                	mv	a4,a5
    117c:	fec42783          	lw	a5,-20(s0)
    1180:	8f99                	sub	a5,a5,a4
    1182:	fef42623          	sw	a5,-20(s0)
    1186:	fec42783          	lw	a5,-20(s0)
    118a:	01079713          	slli	a4,a5,0x10
    118e:	8341                	srli	a4,a4,0x10
    1190:	200067b7          	lui	a5,0x20006
    1194:	5f878693          	addi	a3,a5,1528 # 200065f8 <DAP_Data>
    1198:	fe842783          	lw	a5,-24(s0)
    119c:	07c1                	addi	a5,a5,16
    119e:	0786                	slli	a5,a5,0x1
    11a0:	97b6                	add	a5,a5,a3
    11a2:	abda                	.2byte	0xabda
    11a4:	fe842783          	lw	a5,-24(s0)
    11a8:	0785                	addi	a5,a5,1
    11aa:	fef42423          	sw	a5,-24(s0)
    11ae:	fe842703          	lw	a4,-24(s0)
    11b2:	fe442783          	lw	a5,-28(s0)
    11b6:	faf76ae3          	bltu	a4,a5,116a <DAP_JTAG_Configure+0xae>
    11ba:	fd842783          	lw	a5,-40(s0)
    11be:	00078023          	sb	zero,0(a5)
    11c2:	fe442783          	lw	a5,-28(s0)
    11c6:	0785                	addi	a5,a5,1
    11c8:	07c2                	slli	a5,a5,0x10
    11ca:	0017e793          	ori	a5,a5,1
    11ce:	853e                	mv	a0,a5
    11d0:	5432                	lw	s0,44(sp)
    11d2:	6145                	addi	sp,sp,48
    11d4:	8082                	ret

000011d6 <DAP_JTAG_IDCode>:
    11d6:	7179                	addi	sp,sp,-48
    11d8:	d606                	sw	ra,44(sp)
    11da:	d422                	sw	s0,40(sp)
    11dc:	1800                	addi	s0,sp,48
    11de:	fca42e23          	sw	a0,-36(s0)
    11e2:	fcb42c23          	sw	a1,-40(s0)
    11e6:	200067b7          	lui	a5,0x20006
    11ea:	5f878793          	addi	a5,a5,1528 # 200065f8 <DAP_Data>
    11ee:	2398                	.2byte	0x2398
    11f0:	4789                	li	a5,2
    11f2:	08f71a63          	bne	a4,a5,1286 <DAP_JTAG_IDCode+0xb0>
    11f6:	fdc42783          	lw	a5,-36(s0)
    11fa:	2398                	.2byte	0x2398
    11fc:	200067b7          	lui	a5,0x20006
    1200:	5f878793          	addi	a5,a5,1528 # 200065f8 <DAP_Data>
    1204:	bfb8                	.2byte	0xbfb8
    1206:	200067b7          	lui	a5,0x20006
    120a:	5f878793          	addi	a5,a5,1528 # 200065f8 <DAP_Data>
    120e:	3fb8                	.2byte	0x3fb8
    1210:	200067b7          	lui	a5,0x20006
    1214:	5f878793          	addi	a5,a5,1528 # 200065f8 <DAP_Data>
    1218:	2fbc                	.2byte	0x2fbc
    121a:	06f77863          	bgeu	a4,a5,128a <DAP_JTAG_IDCode+0xb4>
    121e:	4539                	li	a0,14
    1220:	1c3040ef          	jal	ra,5be2 <JTAG_IR>
    1224:	583030ef          	jal	ra,4fa6 <JTAG_ReadIDCode>
    1228:	fea42623          	sw	a0,-20(s0)
    122c:	fd842783          	lw	a5,-40(s0)
    1230:	00078023          	sb	zero,0(a5)
    1234:	fd842783          	lw	a5,-40(s0)
    1238:	0785                	addi	a5,a5,1
    123a:	fec42703          	lw	a4,-20(s0)
    123e:	0ff77713          	zext.b	a4,a4
    1242:	a398                	.2byte	0xa398
    1244:	fec42783          	lw	a5,-20(s0)
    1248:	0087d713          	srli	a4,a5,0x8
    124c:	fd842783          	lw	a5,-40(s0)
    1250:	0789                	addi	a5,a5,2
    1252:	0ff77713          	zext.b	a4,a4
    1256:	a398                	.2byte	0xa398
    1258:	fec42783          	lw	a5,-20(s0)
    125c:	0107d713          	srli	a4,a5,0x10
    1260:	fd842783          	lw	a5,-40(s0)
    1264:	078d                	addi	a5,a5,3
    1266:	0ff77713          	zext.b	a4,a4
    126a:	a398                	.2byte	0xa398
    126c:	fec42783          	lw	a5,-20(s0)
    1270:	0187d713          	srli	a4,a5,0x18
    1274:	fd842783          	lw	a5,-40(s0)
    1278:	0791                	addi	a5,a5,4
    127a:	0ff77713          	zext.b	a4,a4
    127e:	a398                	.2byte	0xa398
    1280:	67c1                	lui	a5,0x10
    1282:	0795                	addi	a5,a5,5 # 10005 <_data_lma+0x2235>
    1284:	a811                	j	1298 <DAP_JTAG_IDCode+0xc2>
    1286:	0001                	nop
    1288:	a011                	j	128c <DAP_JTAG_IDCode+0xb6>
    128a:	0001                	nop
    128c:	fd842783          	lw	a5,-40(s0)
    1290:	577d                	li	a4,-1
    1292:	a398                	.2byte	0xa398
    1294:	67c1                	lui	a5,0x10
    1296:	0785                	addi	a5,a5,1 # 10001 <_data_lma+0x2231>
    1298:	853e                	mv	a0,a5
    129a:	50b2                	lw	ra,44(sp)
    129c:	5422                	lw	s0,40(sp)
    129e:	6145                	addi	sp,sp,48
    12a0:	8082                	ret

000012a2 <DAP_TransferConfigure>:
    12a2:	1101                	addi	sp,sp,-32
    12a4:	ce22                	sw	s0,28(sp)
    12a6:	1000                	addi	s0,sp,32
    12a8:	fea42623          	sw	a0,-20(s0)
    12ac:	feb42423          	sw	a1,-24(s0)
    12b0:	fec42783          	lw	a5,-20(s0)
    12b4:	2398                	.2byte	0x2398
    12b6:	200067b7          	lui	a5,0x20006
    12ba:	5f878793          	addi	a5,a5,1528 # 200065f8 <DAP_Data>
    12be:	a7d8                	.2byte	0xa7d8
    12c0:	fec42783          	lw	a5,-20(s0)
    12c4:	0785                	addi	a5,a5,1
    12c6:	239c                	.2byte	0x239c
    12c8:	873e                	mv	a4,a5
    12ca:	fec42783          	lw	a5,-20(s0)
    12ce:	0789                	addi	a5,a5,2
    12d0:	239c                	.2byte	0x239c
    12d2:	07a2                	slli	a5,a5,0x8
    12d4:	07c2                	slli	a5,a5,0x10
    12d6:	83c1                	srli	a5,a5,0x10
    12d8:	8fd9                	or	a5,a5,a4
    12da:	01079713          	slli	a4,a5,0x10
    12de:	8341                	srli	a4,a4,0x10
    12e0:	200067b7          	lui	a5,0x20006
    12e4:	5f878793          	addi	a5,a5,1528 # 200065f8 <DAP_Data>
    12e8:	ab9a                	.2byte	0xab9a
    12ea:	fec42783          	lw	a5,-20(s0)
    12ee:	078d                	addi	a5,a5,3
    12f0:	239c                	.2byte	0x239c
    12f2:	873e                	mv	a4,a5
    12f4:	fec42783          	lw	a5,-20(s0)
    12f8:	0791                	addi	a5,a5,4
    12fa:	239c                	.2byte	0x239c
    12fc:	07a2                	slli	a5,a5,0x8
    12fe:	07c2                	slli	a5,a5,0x10
    1300:	83c1                	srli	a5,a5,0x10
    1302:	8fd9                	or	a5,a5,a4
    1304:	01079713          	slli	a4,a5,0x10
    1308:	8341                	srli	a4,a4,0x10
    130a:	200067b7          	lui	a5,0x20006
    130e:	5f878793          	addi	a5,a5,1528 # 200065f8 <DAP_Data>
    1312:	abba                	.2byte	0xabba
    1314:	fe842783          	lw	a5,-24(s0)
    1318:	00078023          	sb	zero,0(a5)
    131c:	000507b7          	lui	a5,0x50
    1320:	0785                	addi	a5,a5,1 # 50001 <_data_lma+0x42231>
    1322:	853e                	mv	a0,a5
    1324:	4472                	lw	s0,28(sp)
    1326:	6105                	addi	sp,sp,32
    1328:	8082                	ret

0000132a <DAP_SWD_Transfer>:
    132a:	715d                	addi	sp,sp,-80
    132c:	c686                	sw	ra,76(sp)
    132e:	c4a2                	sw	s0,72(sp)
    1330:	0880                	addi	s0,sp,80
    1332:	faa42e23          	sw	a0,-68(s0)
    1336:	fab42c23          	sw	a1,-72(s0)
    133a:	fbc42783          	lw	a5,-68(s0)
    133e:	fcf42823          	sw	a5,-48(s0)
    1342:	fe042423          	sw	zero,-24(s0)
    1346:	fe042223          	sw	zero,-28(s0)
    134a:	fb842783          	lw	a5,-72(s0)
    134e:	fcf42623          	sw	a5,-52(s0)
    1352:	fb842783          	lw	a5,-72(s0)
    1356:	0789                	addi	a5,a5,2
    1358:	faf42c23          	sw	a5,-72(s0)
    135c:	200067b7          	lui	a5,0x20006
    1360:	5a078823          	sb	zero,1456(a5) # 200065b0 <DAP_TransferAbort>
    1364:	fe042023          	sw	zero,-32(s0)
    1368:	fc042e23          	sw	zero,-36(s0)
    136c:	fbc42783          	lw	a5,-68(s0)
    1370:	0785                	addi	a5,a5,1
    1372:	faf42e23          	sw	a5,-68(s0)
    1376:	fbc42783          	lw	a5,-68(s0)
    137a:	00178713          	addi	a4,a5,1
    137e:	fae42e23          	sw	a4,-68(s0)
    1382:	239c                	.2byte	0x239c
    1384:	fef42623          	sw	a5,-20(s0)
    1388:	a33d                	j	18b6 <DAP_SWD_Transfer+0x58c>
    138a:	fbc42783          	lw	a5,-68(s0)
    138e:	00178713          	addi	a4,a5,1
    1392:	fae42e23          	sw	a4,-68(s0)
    1396:	239c                	.2byte	0x239c
    1398:	fcf42423          	sw	a5,-56(s0)
    139c:	fc842783          	lw	a5,-56(s0)
    13a0:	8b89                	andi	a5,a5,2
    13a2:	38078163          	beqz	a5,1724 <DAP_SWD_Transfer+0x3fa>
    13a6:	fe042783          	lw	a5,-32(s0)
    13aa:	10078363          	beqz	a5,14b0 <DAP_SWD_Transfer+0x186>
    13ae:	200067b7          	lui	a5,0x20006
    13b2:	5f878793          	addi	a5,a5,1528 # 200065f8 <DAP_Data>
    13b6:	2b9e                	.2byte	0x2b9e
    13b8:	fcf42a23          	sw	a5,-44(s0)
    13bc:	fc842783          	lw	a5,-56(s0)
    13c0:	0117f713          	andi	a4,a5,17
    13c4:	4785                	li	a5,1
    13c6:	04f71063          	bne	a4,a5,1406 <DAP_SWD_Transfer+0xdc>
    13ca:	fc040793          	addi	a5,s0,-64
    13ce:	85be                	mv	a1,a5
    13d0:	fc842503          	lw	a0,-56(s0)
    13d4:	672060ef          	jal	ra,7a46 <SWD_Transfer>
    13d8:	87aa                	mv	a5,a0
    13da:	fef42223          	sw	a5,-28(s0)
    13de:	fe442703          	lw	a4,-28(s0)
    13e2:	4789                	li	a5,2
    13e4:	04f71f63          	bne	a4,a5,1442 <DAP_SWD_Transfer+0x118>
    13e8:	fd442783          	lw	a5,-44(s0)
    13ec:	fff78713          	addi	a4,a5,-1
    13f0:	fce42a23          	sw	a4,-44(s0)
    13f4:	c7b9                	beqz	a5,1442 <DAP_SWD_Transfer+0x118>
    13f6:	200067b7          	lui	a5,0x20006
    13fa:	5b07c783          	lbu	a5,1456(a5) # 200065b0 <DAP_TransferAbort>
    13fe:	0ff7f793          	zext.b	a5,a5
    1402:	d7e1                	beqz	a5,13ca <DAP_SWD_Transfer+0xa0>
    1404:	a83d                	j	1442 <DAP_SWD_Transfer+0x118>
    1406:	fc040793          	addi	a5,s0,-64
    140a:	85be                	mv	a1,a5
    140c:	4539                	li	a0,14
    140e:	638060ef          	jal	ra,7a46 <SWD_Transfer>
    1412:	87aa                	mv	a5,a0
    1414:	fef42223          	sw	a5,-28(s0)
    1418:	fe442703          	lw	a4,-28(s0)
    141c:	4789                	li	a5,2
    141e:	02f71063          	bne	a4,a5,143e <DAP_SWD_Transfer+0x114>
    1422:	fd442783          	lw	a5,-44(s0)
    1426:	fff78713          	addi	a4,a5,-1
    142a:	fce42a23          	sw	a4,-44(s0)
    142e:	cb81                	beqz	a5,143e <DAP_SWD_Transfer+0x114>
    1430:	200067b7          	lui	a5,0x20006
    1434:	5b07c783          	lbu	a5,1456(a5) # 200065b0 <DAP_TransferAbort>
    1438:	0ff7f793          	zext.b	a5,a5
    143c:	d7e9                	beqz	a5,1406 <DAP_SWD_Transfer+0xdc>
    143e:	fe042023          	sw	zero,-32(s0)
    1442:	fe442703          	lw	a4,-28(s0)
    1446:	4785                	li	a5,1
    1448:	46f71c63          	bne	a4,a5,18c0 <DAP_SWD_Transfer+0x596>
    144c:	fc042683          	lw	a3,-64(s0)
    1450:	fb842783          	lw	a5,-72(s0)
    1454:	00178713          	addi	a4,a5,1
    1458:	fae42c23          	sw	a4,-72(s0)
    145c:	0ff6f713          	zext.b	a4,a3
    1460:	a398                	.2byte	0xa398
    1462:	fc042783          	lw	a5,-64(s0)
    1466:	0087d693          	srli	a3,a5,0x8
    146a:	fb842783          	lw	a5,-72(s0)
    146e:	00178713          	addi	a4,a5,1
    1472:	fae42c23          	sw	a4,-72(s0)
    1476:	0ff6f713          	zext.b	a4,a3
    147a:	a398                	.2byte	0xa398
    147c:	fc042783          	lw	a5,-64(s0)
    1480:	0107d693          	srli	a3,a5,0x10
    1484:	fb842783          	lw	a5,-72(s0)
    1488:	00178713          	addi	a4,a5,1
    148c:	fae42c23          	sw	a4,-72(s0)
    1490:	0ff6f713          	zext.b	a4,a3
    1494:	a398                	.2byte	0xa398
    1496:	fc042783          	lw	a5,-64(s0)
    149a:	0187d693          	srli	a3,a5,0x18
    149e:	fb842783          	lw	a5,-72(s0)
    14a2:	00178713          	addi	a4,a5,1
    14a6:	fae42c23          	sw	a4,-72(s0)
    14aa:	0ff6f713          	zext.b	a4,a3
    14ae:	a398                	.2byte	0xa398
    14b0:	fc842783          	lw	a5,-56(s0)
    14b4:	8bc1                	andi	a5,a5,16
    14b6:	14078e63          	beqz	a5,1612 <DAP_SWD_Transfer+0x2e8>
    14ba:	fbc42783          	lw	a5,-68(s0)
    14be:	239c                	.2byte	0x239c
    14c0:	873e                	mv	a4,a5
    14c2:	fbc42783          	lw	a5,-68(s0)
    14c6:	0785                	addi	a5,a5,1
    14c8:	239c                	.2byte	0x239c
    14ca:	07a2                	slli	a5,a5,0x8
    14cc:	8f5d                	or	a4,a4,a5
    14ce:	fbc42783          	lw	a5,-68(s0)
    14d2:	0789                	addi	a5,a5,2
    14d4:	239c                	.2byte	0x239c
    14d6:	07c2                	slli	a5,a5,0x10
    14d8:	8f5d                	or	a4,a4,a5
    14da:	fbc42783          	lw	a5,-68(s0)
    14de:	078d                	addi	a5,a5,3
    14e0:	239c                	.2byte	0x239c
    14e2:	07e2                	slli	a5,a5,0x18
    14e4:	8fd9                	or	a5,a5,a4
    14e6:	fcf42223          	sw	a5,-60(s0)
    14ea:	fbc42783          	lw	a5,-68(s0)
    14ee:	0791                	addi	a5,a5,4
    14f0:	faf42e23          	sw	a5,-68(s0)
    14f4:	200067b7          	lui	a5,0x20006
    14f8:	5f878793          	addi	a5,a5,1528 # 200065f8 <DAP_Data>
    14fc:	2bbe                	.2byte	0x2bbe
    14fe:	fcf42c23          	sw	a5,-40(s0)
    1502:	fc842783          	lw	a5,-56(s0)
    1506:	8b85                	andi	a5,a5,1
    1508:	cba1                	beqz	a5,1558 <DAP_SWD_Transfer+0x22e>
    150a:	200067b7          	lui	a5,0x20006
    150e:	5f878793          	addi	a5,a5,1528 # 200065f8 <DAP_Data>
    1512:	2b9e                	.2byte	0x2b9e
    1514:	fcf42a23          	sw	a5,-44(s0)
    1518:	4581                	li	a1,0
    151a:	fc842503          	lw	a0,-56(s0)
    151e:	528060ef          	jal	ra,7a46 <SWD_Transfer>
    1522:	87aa                	mv	a5,a0
    1524:	fef42223          	sw	a5,-28(s0)
    1528:	fe442703          	lw	a4,-28(s0)
    152c:	4789                	li	a5,2
    152e:	02f71063          	bne	a4,a5,154e <DAP_SWD_Transfer+0x224>
    1532:	fd442783          	lw	a5,-44(s0)
    1536:	fff78713          	addi	a4,a5,-1
    153a:	fce42a23          	sw	a4,-44(s0)
    153e:	cb81                	beqz	a5,154e <DAP_SWD_Transfer+0x224>
    1540:	200067b7          	lui	a5,0x20006
    1544:	5b07c783          	lbu	a5,1456(a5) # 200065b0 <DAP_TransferAbort>
    1548:	0ff7f793          	zext.b	a5,a5
    154c:	d7f1                	beqz	a5,1518 <DAP_SWD_Transfer+0x1ee>
    154e:	fe442703          	lw	a4,-28(s0)
    1552:	4785                	li	a5,1
    1554:	36f71863          	bne	a4,a5,18c4 <DAP_SWD_Transfer+0x59a>
    1558:	200067b7          	lui	a5,0x20006
    155c:	5f878793          	addi	a5,a5,1528 # 200065f8 <DAP_Data>
    1560:	2b9e                	.2byte	0x2b9e
    1562:	fcf42a23          	sw	a5,-44(s0)
    1566:	fc040793          	addi	a5,s0,-64
    156a:	85be                	mv	a1,a5
    156c:	fc842503          	lw	a0,-56(s0)
    1570:	4d6060ef          	jal	ra,7a46 <SWD_Transfer>
    1574:	87aa                	mv	a5,a0
    1576:	fef42223          	sw	a5,-28(s0)
    157a:	fe442703          	lw	a4,-28(s0)
    157e:	4789                	li	a5,2
    1580:	02f71063          	bne	a4,a5,15a0 <DAP_SWD_Transfer+0x276>
    1584:	fd442783          	lw	a5,-44(s0)
    1588:	fff78713          	addi	a4,a5,-1
    158c:	fce42a23          	sw	a4,-44(s0)
    1590:	cb81                	beqz	a5,15a0 <DAP_SWD_Transfer+0x276>
    1592:	200067b7          	lui	a5,0x20006
    1596:	5b07c783          	lbu	a5,1456(a5) # 200065b0 <DAP_TransferAbort>
    159a:	0ff7f793          	zext.b	a5,a5
    159e:	d7e1                	beqz	a5,1566 <DAP_SWD_Transfer+0x23c>
    15a0:	fe442703          	lw	a4,-28(s0)
    15a4:	4785                	li	a5,1
    15a6:	02f71d63          	bne	a4,a5,15e0 <DAP_SWD_Transfer+0x2b6>
    15aa:	200067b7          	lui	a5,0x20006
    15ae:	5f878793          	addi	a5,a5,1528 # 200065f8 <DAP_Data>
    15b2:	4bd8                	lw	a4,20(a5)
    15b4:	fc042783          	lw	a5,-64(s0)
    15b8:	8ff9                	and	a5,a5,a4
    15ba:	fc442703          	lw	a4,-60(s0)
    15be:	02f70263          	beq	a4,a5,15e2 <DAP_SWD_Transfer+0x2b8>
    15c2:	fd842783          	lw	a5,-40(s0)
    15c6:	fff78713          	addi	a4,a5,-1
    15ca:	fce42c23          	sw	a4,-40(s0)
    15ce:	cb91                	beqz	a5,15e2 <DAP_SWD_Transfer+0x2b8>
    15d0:	200067b7          	lui	a5,0x20006
    15d4:	5b07c783          	lbu	a5,1456(a5) # 200065b0 <DAP_TransferAbort>
    15d8:	0ff7f793          	zext.b	a5,a5
    15dc:	dfb5                	beqz	a5,1558 <DAP_SWD_Transfer+0x22e>
    15de:	a011                	j	15e2 <DAP_SWD_Transfer+0x2b8>
    15e0:	0001                	nop
    15e2:	200067b7          	lui	a5,0x20006
    15e6:	5f878793          	addi	a5,a5,1528 # 200065f8 <DAP_Data>
    15ea:	4bd8                	lw	a4,20(a5)
    15ec:	fc042783          	lw	a5,-64(s0)
    15f0:	8ff9                	and	a5,a5,a4
    15f2:	fc442703          	lw	a4,-60(s0)
    15f6:	00f70863          	beq	a4,a5,1606 <DAP_SWD_Transfer+0x2dc>
    15fa:	fe442783          	lw	a5,-28(s0)
    15fe:	0107e793          	ori	a5,a5,16
    1602:	fef42223          	sw	a5,-28(s0)
    1606:	fe442703          	lw	a4,-28(s0)
    160a:	4785                	li	a5,1
    160c:	10f70963          	beq	a4,a5,171e <DAP_SWD_Transfer+0x3f4>
    1610:	a4e9                	j	18da <DAP_SWD_Transfer+0x5b0>
    1612:	200067b7          	lui	a5,0x20006
    1616:	5f878793          	addi	a5,a5,1528 # 200065f8 <DAP_Data>
    161a:	2b9e                	.2byte	0x2b9e
    161c:	fcf42a23          	sw	a5,-44(s0)
    1620:	fc842783          	lw	a5,-56(s0)
    1624:	8b85                	andi	a5,a5,1
    1626:	cba1                	beqz	a5,1676 <DAP_SWD_Transfer+0x34c>
    1628:	fe042783          	lw	a5,-32(s0)
    162c:	ebed                	bnez	a5,171e <DAP_SWD_Transfer+0x3f4>
    162e:	4581                	li	a1,0
    1630:	fc842503          	lw	a0,-56(s0)
    1634:	412060ef          	jal	ra,7a46 <SWD_Transfer>
    1638:	87aa                	mv	a5,a0
    163a:	fef42223          	sw	a5,-28(s0)
    163e:	fe442703          	lw	a4,-28(s0)
    1642:	4789                	li	a5,2
    1644:	02f71063          	bne	a4,a5,1664 <DAP_SWD_Transfer+0x33a>
    1648:	fd442783          	lw	a5,-44(s0)
    164c:	fff78713          	addi	a4,a5,-1
    1650:	fce42a23          	sw	a4,-44(s0)
    1654:	cb81                	beqz	a5,1664 <DAP_SWD_Transfer+0x33a>
    1656:	200067b7          	lui	a5,0x20006
    165a:	5b07c783          	lbu	a5,1456(a5) # 200065b0 <DAP_TransferAbort>
    165e:	0ff7f793          	zext.b	a5,a5
    1662:	d7f1                	beqz	a5,162e <DAP_SWD_Transfer+0x304>
    1664:	fe442703          	lw	a4,-28(s0)
    1668:	4785                	li	a5,1
    166a:	24f71f63          	bne	a4,a5,18c8 <DAP_SWD_Transfer+0x59e>
    166e:	4785                	li	a5,1
    1670:	fef42023          	sw	a5,-32(s0)
    1674:	a06d                	j	171e <DAP_SWD_Transfer+0x3f4>
    1676:	fc040793          	addi	a5,s0,-64
    167a:	85be                	mv	a1,a5
    167c:	fc842503          	lw	a0,-56(s0)
    1680:	3c6060ef          	jal	ra,7a46 <SWD_Transfer>
    1684:	87aa                	mv	a5,a0
    1686:	fef42223          	sw	a5,-28(s0)
    168a:	fe442703          	lw	a4,-28(s0)
    168e:	4789                	li	a5,2
    1690:	02f71063          	bne	a4,a5,16b0 <DAP_SWD_Transfer+0x386>
    1694:	fd442783          	lw	a5,-44(s0)
    1698:	fff78713          	addi	a4,a5,-1
    169c:	fce42a23          	sw	a4,-44(s0)
    16a0:	cb81                	beqz	a5,16b0 <DAP_SWD_Transfer+0x386>
    16a2:	200067b7          	lui	a5,0x20006
    16a6:	5b07c783          	lbu	a5,1456(a5) # 200065b0 <DAP_TransferAbort>
    16aa:	0ff7f793          	zext.b	a5,a5
    16ae:	d7e1                	beqz	a5,1676 <DAP_SWD_Transfer+0x34c>
    16b0:	fe442703          	lw	a4,-28(s0)
    16b4:	4785                	li	a5,1
    16b6:	20f71b63          	bne	a4,a5,18cc <DAP_SWD_Transfer+0x5a2>
    16ba:	fc042683          	lw	a3,-64(s0)
    16be:	fb842783          	lw	a5,-72(s0)
    16c2:	00178713          	addi	a4,a5,1
    16c6:	fae42c23          	sw	a4,-72(s0)
    16ca:	0ff6f713          	zext.b	a4,a3
    16ce:	a398                	.2byte	0xa398
    16d0:	fc042783          	lw	a5,-64(s0)
    16d4:	0087d693          	srli	a3,a5,0x8
    16d8:	fb842783          	lw	a5,-72(s0)
    16dc:	00178713          	addi	a4,a5,1
    16e0:	fae42c23          	sw	a4,-72(s0)
    16e4:	0ff6f713          	zext.b	a4,a3
    16e8:	a398                	.2byte	0xa398
    16ea:	fc042783          	lw	a5,-64(s0)
    16ee:	0107d693          	srli	a3,a5,0x10
    16f2:	fb842783          	lw	a5,-72(s0)
    16f6:	00178713          	addi	a4,a5,1
    16fa:	fae42c23          	sw	a4,-72(s0)
    16fe:	0ff6f713          	zext.b	a4,a3
    1702:	a398                	.2byte	0xa398
    1704:	fc042783          	lw	a5,-64(s0)
    1708:	0187d693          	srli	a3,a5,0x18
    170c:	fb842783          	lw	a5,-72(s0)
    1710:	00178713          	addi	a4,a5,1
    1714:	fae42c23          	sw	a4,-72(s0)
    1718:	0ff6f713          	zext.b	a4,a3
    171c:	a398                	.2byte	0xa398
    171e:	fc042e23          	sw	zero,-36(s0)
    1722:	aa8d                	j	1894 <DAP_SWD_Transfer+0x56a>
    1724:	fe042783          	lw	a5,-32(s0)
    1728:	cfcd                	beqz	a5,17e2 <DAP_SWD_Transfer+0x4b8>
    172a:	200067b7          	lui	a5,0x20006
    172e:	5f878793          	addi	a5,a5,1528 # 200065f8 <DAP_Data>
    1732:	2b9e                	.2byte	0x2b9e
    1734:	fcf42a23          	sw	a5,-44(s0)
    1738:	fc040793          	addi	a5,s0,-64
    173c:	85be                	mv	a1,a5
    173e:	4539                	li	a0,14
    1740:	306060ef          	jal	ra,7a46 <SWD_Transfer>
    1744:	87aa                	mv	a5,a0
    1746:	fef42223          	sw	a5,-28(s0)
    174a:	fe442703          	lw	a4,-28(s0)
    174e:	4789                	li	a5,2
    1750:	02f71063          	bne	a4,a5,1770 <DAP_SWD_Transfer+0x446>
    1754:	fd442783          	lw	a5,-44(s0)
    1758:	fff78713          	addi	a4,a5,-1
    175c:	fce42a23          	sw	a4,-44(s0)
    1760:	cb81                	beqz	a5,1770 <DAP_SWD_Transfer+0x446>
    1762:	200067b7          	lui	a5,0x20006
    1766:	5b07c783          	lbu	a5,1456(a5) # 200065b0 <DAP_TransferAbort>
    176a:	0ff7f793          	zext.b	a5,a5
    176e:	d7e9                	beqz	a5,1738 <DAP_SWD_Transfer+0x40e>
    1770:	fe442703          	lw	a4,-28(s0)
    1774:	4785                	li	a5,1
    1776:	14f71d63          	bne	a4,a5,18d0 <DAP_SWD_Transfer+0x5a6>
    177a:	fc042683          	lw	a3,-64(s0)
    177e:	fb842783          	lw	a5,-72(s0)
    1782:	00178713          	addi	a4,a5,1
    1786:	fae42c23          	sw	a4,-72(s0)
    178a:	0ff6f713          	zext.b	a4,a3
    178e:	a398                	.2byte	0xa398
    1790:	fc042783          	lw	a5,-64(s0)
    1794:	0087d693          	srli	a3,a5,0x8
    1798:	fb842783          	lw	a5,-72(s0)
    179c:	00178713          	addi	a4,a5,1
    17a0:	fae42c23          	sw	a4,-72(s0)
    17a4:	0ff6f713          	zext.b	a4,a3
    17a8:	a398                	.2byte	0xa398
    17aa:	fc042783          	lw	a5,-64(s0)
    17ae:	0107d693          	srli	a3,a5,0x10
    17b2:	fb842783          	lw	a5,-72(s0)
    17b6:	00178713          	addi	a4,a5,1
    17ba:	fae42c23          	sw	a4,-72(s0)
    17be:	0ff6f713          	zext.b	a4,a3
    17c2:	a398                	.2byte	0xa398
    17c4:	fc042783          	lw	a5,-64(s0)
    17c8:	0187d693          	srli	a3,a5,0x18
    17cc:	fb842783          	lw	a5,-72(s0)
    17d0:	00178713          	addi	a4,a5,1
    17d4:	fae42c23          	sw	a4,-72(s0)
    17d8:	0ff6f713          	zext.b	a4,a3
    17dc:	a398                	.2byte	0xa398
    17de:	fe042023          	sw	zero,-32(s0)
    17e2:	fbc42783          	lw	a5,-68(s0)
    17e6:	239c                	.2byte	0x239c
    17e8:	873e                	mv	a4,a5
    17ea:	fbc42783          	lw	a5,-68(s0)
    17ee:	0785                	addi	a5,a5,1
    17f0:	239c                	.2byte	0x239c
    17f2:	07a2                	slli	a5,a5,0x8
    17f4:	8f5d                	or	a4,a4,a5
    17f6:	fbc42783          	lw	a5,-68(s0)
    17fa:	0789                	addi	a5,a5,2
    17fc:	239c                	.2byte	0x239c
    17fe:	07c2                	slli	a5,a5,0x10
    1800:	8f5d                	or	a4,a4,a5
    1802:	fbc42783          	lw	a5,-68(s0)
    1806:	078d                	addi	a5,a5,3
    1808:	239c                	.2byte	0x239c
    180a:	07e2                	slli	a5,a5,0x18
    180c:	8fd9                	or	a5,a5,a4
    180e:	fcf42023          	sw	a5,-64(s0)
    1812:	fbc42783          	lw	a5,-68(s0)
    1816:	0791                	addi	a5,a5,4
    1818:	faf42e23          	sw	a5,-68(s0)
    181c:	fc842783          	lw	a5,-56(s0)
    1820:	0207f793          	andi	a5,a5,32
    1824:	cf81                	beqz	a5,183c <DAP_SWD_Transfer+0x512>
    1826:	fc042703          	lw	a4,-64(s0)
    182a:	200067b7          	lui	a5,0x20006
    182e:	5f878793          	addi	a5,a5,1528 # 200065f8 <DAP_Data>
    1832:	cbd8                	sw	a4,20(a5)
    1834:	4785                	li	a5,1
    1836:	fef42223          	sw	a5,-28(s0)
    183a:	a8a9                	j	1894 <DAP_SWD_Transfer+0x56a>
    183c:	200067b7          	lui	a5,0x20006
    1840:	5f878793          	addi	a5,a5,1528 # 200065f8 <DAP_Data>
    1844:	2b9e                	.2byte	0x2b9e
    1846:	fcf42a23          	sw	a5,-44(s0)
    184a:	fc040793          	addi	a5,s0,-64
    184e:	85be                	mv	a1,a5
    1850:	fc842503          	lw	a0,-56(s0)
    1854:	1f2060ef          	jal	ra,7a46 <SWD_Transfer>
    1858:	87aa                	mv	a5,a0
    185a:	fef42223          	sw	a5,-28(s0)
    185e:	fe442703          	lw	a4,-28(s0)
    1862:	4789                	li	a5,2
    1864:	02f71063          	bne	a4,a5,1884 <DAP_SWD_Transfer+0x55a>
    1868:	fd442783          	lw	a5,-44(s0)
    186c:	fff78713          	addi	a4,a5,-1
    1870:	fce42a23          	sw	a4,-44(s0)
    1874:	cb81                	beqz	a5,1884 <DAP_SWD_Transfer+0x55a>
    1876:	200067b7          	lui	a5,0x20006
    187a:	5b07c783          	lbu	a5,1456(a5) # 200065b0 <DAP_TransferAbort>
    187e:	0ff7f793          	zext.b	a5,a5
    1882:	d7e1                	beqz	a5,184a <DAP_SWD_Transfer+0x520>
    1884:	fe442703          	lw	a4,-28(s0)
    1888:	4785                	li	a5,1
    188a:	04f71563          	bne	a4,a5,18d4 <DAP_SWD_Transfer+0x5aa>
    188e:	4785                	li	a5,1
    1890:	fcf42e23          	sw	a5,-36(s0)
    1894:	fe842783          	lw	a5,-24(s0)
    1898:	0785                	addi	a5,a5,1
    189a:	fef42423          	sw	a5,-24(s0)
    189e:	200067b7          	lui	a5,0x20006
    18a2:	5b07c783          	lbu	a5,1456(a5) # 200065b0 <DAP_TransferAbort>
    18a6:	0ff7f793          	zext.b	a5,a5
    18aa:	e79d                	bnez	a5,18d8 <DAP_SWD_Transfer+0x5ae>
    18ac:	fec42783          	lw	a5,-20(s0)
    18b0:	17fd                	addi	a5,a5,-1
    18b2:	fef42623          	sw	a5,-20(s0)
    18b6:	fec42783          	lw	a5,-20(s0)
    18ba:	ac0798e3          	bnez	a5,138a <DAP_SWD_Transfer+0x60>
    18be:	a085                	j	191e <DAP_SWD_Transfer+0x5f4>
    18c0:	0001                	nop
    18c2:	a8b1                	j	191e <DAP_SWD_Transfer+0x5f4>
    18c4:	0001                	nop
    18c6:	a8a1                	j	191e <DAP_SWD_Transfer+0x5f4>
    18c8:	0001                	nop
    18ca:	a891                	j	191e <DAP_SWD_Transfer+0x5f4>
    18cc:	0001                	nop
    18ce:	a881                	j	191e <DAP_SWD_Transfer+0x5f4>
    18d0:	0001                	nop
    18d2:	a0b1                	j	191e <DAP_SWD_Transfer+0x5f4>
    18d4:	0001                	nop
    18d6:	a0a1                	j	191e <DAP_SWD_Transfer+0x5f4>
    18d8:	0001                	nop
    18da:	a091                	j	191e <DAP_SWD_Transfer+0x5f4>
    18dc:	fbc42783          	lw	a5,-68(s0)
    18e0:	00178713          	addi	a4,a5,1
    18e4:	fae42e23          	sw	a4,-68(s0)
    18e8:	239c                	.2byte	0x239c
    18ea:	fcf42423          	sw	a5,-56(s0)
    18ee:	fc842783          	lw	a5,-56(s0)
    18f2:	8b89                	andi	a5,a5,2
    18f4:	cb99                	beqz	a5,190a <DAP_SWD_Transfer+0x5e0>
    18f6:	fc842783          	lw	a5,-56(s0)
    18fa:	8bc1                	andi	a5,a5,16
    18fc:	cf81                	beqz	a5,1914 <DAP_SWD_Transfer+0x5ea>
    18fe:	fbc42783          	lw	a5,-68(s0)
    1902:	0791                	addi	a5,a5,4
    1904:	faf42e23          	sw	a5,-68(s0)
    1908:	a031                	j	1914 <DAP_SWD_Transfer+0x5ea>
    190a:	fbc42783          	lw	a5,-68(s0)
    190e:	0791                	addi	a5,a5,4
    1910:	faf42e23          	sw	a5,-68(s0)
    1914:	fec42783          	lw	a5,-20(s0)
    1918:	17fd                	addi	a5,a5,-1
    191a:	fef42623          	sw	a5,-20(s0)
    191e:	fec42783          	lw	a5,-20(s0)
    1922:	ffcd                	bnez	a5,18dc <DAP_SWD_Transfer+0x5b2>
    1924:	fe442703          	lw	a4,-28(s0)
    1928:	4785                	li	a5,1
    192a:	10f71463          	bne	a4,a5,1a32 <DAP_SWD_Transfer+0x708>
    192e:	fe042783          	lw	a5,-32(s0)
    1932:	cfc5                	beqz	a5,19ea <DAP_SWD_Transfer+0x6c0>
    1934:	200067b7          	lui	a5,0x20006
    1938:	5f878793          	addi	a5,a5,1528 # 200065f8 <DAP_Data>
    193c:	2b9e                	.2byte	0x2b9e
    193e:	fcf42a23          	sw	a5,-44(s0)
    1942:	fc040793          	addi	a5,s0,-64
    1946:	85be                	mv	a1,a5
    1948:	4539                	li	a0,14
    194a:	0fc060ef          	jal	ra,7a46 <SWD_Transfer>
    194e:	87aa                	mv	a5,a0
    1950:	fef42223          	sw	a5,-28(s0)
    1954:	fe442703          	lw	a4,-28(s0)
    1958:	4789                	li	a5,2
    195a:	02f71063          	bne	a4,a5,197a <DAP_SWD_Transfer+0x650>
    195e:	fd442783          	lw	a5,-44(s0)
    1962:	fff78713          	addi	a4,a5,-1
    1966:	fce42a23          	sw	a4,-44(s0)
    196a:	cb81                	beqz	a5,197a <DAP_SWD_Transfer+0x650>
    196c:	200067b7          	lui	a5,0x20006
    1970:	5b07c783          	lbu	a5,1456(a5) # 200065b0 <DAP_TransferAbort>
    1974:	0ff7f793          	zext.b	a5,a5
    1978:	d7e9                	beqz	a5,1942 <DAP_SWD_Transfer+0x618>
    197a:	fe442703          	lw	a4,-28(s0)
    197e:	4785                	li	a5,1
    1980:	0af71b63          	bne	a4,a5,1a36 <DAP_SWD_Transfer+0x70c>
    1984:	fc042683          	lw	a3,-64(s0)
    1988:	fb842783          	lw	a5,-72(s0)
    198c:	00178713          	addi	a4,a5,1
    1990:	fae42c23          	sw	a4,-72(s0)
    1994:	0ff6f713          	zext.b	a4,a3
    1998:	a398                	.2byte	0xa398
    199a:	fc042783          	lw	a5,-64(s0)
    199e:	0087d693          	srli	a3,a5,0x8
    19a2:	fb842783          	lw	a5,-72(s0)
    19a6:	00178713          	addi	a4,a5,1
    19aa:	fae42c23          	sw	a4,-72(s0)
    19ae:	0ff6f713          	zext.b	a4,a3
    19b2:	a398                	.2byte	0xa398
    19b4:	fc042783          	lw	a5,-64(s0)
    19b8:	0107d693          	srli	a3,a5,0x10
    19bc:	fb842783          	lw	a5,-72(s0)
    19c0:	00178713          	addi	a4,a5,1
    19c4:	fae42c23          	sw	a4,-72(s0)
    19c8:	0ff6f713          	zext.b	a4,a3
    19cc:	a398                	.2byte	0xa398
    19ce:	fc042783          	lw	a5,-64(s0)
    19d2:	0187d693          	srli	a3,a5,0x18
    19d6:	fb842783          	lw	a5,-72(s0)
    19da:	00178713          	addi	a4,a5,1
    19de:	fae42c23          	sw	a4,-72(s0)
    19e2:	0ff6f713          	zext.b	a4,a3
    19e6:	a398                	.2byte	0xa398
    19e8:	a881                	j	1a38 <DAP_SWD_Transfer+0x70e>
    19ea:	fdc42783          	lw	a5,-36(s0)
    19ee:	c3b1                	beqz	a5,1a32 <DAP_SWD_Transfer+0x708>
    19f0:	200067b7          	lui	a5,0x20006
    19f4:	5f878793          	addi	a5,a5,1528 # 200065f8 <DAP_Data>
    19f8:	2b9e                	.2byte	0x2b9e
    19fa:	fcf42a23          	sw	a5,-44(s0)
    19fe:	4581                	li	a1,0
    1a00:	4539                	li	a0,14
    1a02:	044060ef          	jal	ra,7a46 <SWD_Transfer>
    1a06:	87aa                	mv	a5,a0
    1a08:	fef42223          	sw	a5,-28(s0)
    1a0c:	fe442703          	lw	a4,-28(s0)
    1a10:	4789                	li	a5,2
    1a12:	02f71063          	bne	a4,a5,1a32 <DAP_SWD_Transfer+0x708>
    1a16:	fd442783          	lw	a5,-44(s0)
    1a1a:	fff78713          	addi	a4,a5,-1
    1a1e:	fce42a23          	sw	a4,-44(s0)
    1a22:	cb81                	beqz	a5,1a32 <DAP_SWD_Transfer+0x708>
    1a24:	200067b7          	lui	a5,0x20006
    1a28:	5b07c783          	lbu	a5,1456(a5) # 200065b0 <DAP_TransferAbort>
    1a2c:	0ff7f793          	zext.b	a5,a5
    1a30:	d7f9                	beqz	a5,19fe <DAP_SWD_Transfer+0x6d4>
    1a32:	0001                	nop
    1a34:	a011                	j	1a38 <DAP_SWD_Transfer+0x70e>
    1a36:	0001                	nop
    1a38:	fe842783          	lw	a5,-24(s0)
    1a3c:	0ff7f713          	zext.b	a4,a5
    1a40:	fcc42783          	lw	a5,-52(s0)
    1a44:	a398                	.2byte	0xa398
    1a46:	fcc42783          	lw	a5,-52(s0)
    1a4a:	0785                	addi	a5,a5,1
    1a4c:	fe442703          	lw	a4,-28(s0)
    1a50:	0ff77713          	zext.b	a4,a4
    1a54:	a398                	.2byte	0xa398
    1a56:	fbc42703          	lw	a4,-68(s0)
    1a5a:	fd042783          	lw	a5,-48(s0)
    1a5e:	40f707b3          	sub	a5,a4,a5
    1a62:	07c2                	slli	a5,a5,0x10
    1a64:	fb842683          	lw	a3,-72(s0)
    1a68:	fcc42703          	lw	a4,-52(s0)
    1a6c:	40e68733          	sub	a4,a3,a4
    1a70:	8fd9                	or	a5,a5,a4
    1a72:	853e                	mv	a0,a5
    1a74:	40b6                	lw	ra,76(sp)
    1a76:	4426                	lw	s0,72(sp)
    1a78:	6161                	addi	sp,sp,80
    1a7a:	8082                	ret

00001a7c <DAP_JTAG_Transfer>:
    1a7c:	711d                	addi	sp,sp,-96
    1a7e:	ce86                	sw	ra,92(sp)
    1a80:	cca2                	sw	s0,88(sp)
    1a82:	1080                	addi	s0,sp,96
    1a84:	faa42623          	sw	a0,-84(s0)
    1a88:	fab42423          	sw	a1,-88(s0)
    1a8c:	fac42783          	lw	a5,-84(s0)
    1a90:	fcf42823          	sw	a5,-48(s0)
    1a94:	fe042423          	sw	zero,-24(s0)
    1a98:	fe042223          	sw	zero,-28(s0)
    1a9c:	fa842783          	lw	a5,-88(s0)
    1aa0:	fcf42623          	sw	a5,-52(s0)
    1aa4:	fa842783          	lw	a5,-88(s0)
    1aa8:	0789                	addi	a5,a5,2
    1aaa:	faf42423          	sw	a5,-88(s0)
    1aae:	200067b7          	lui	a5,0x20006
    1ab2:	5a078823          	sb	zero,1456(a5) # 200065b0 <DAP_TransferAbort>
    1ab6:	fc042a23          	sw	zero,-44(s0)
    1aba:	fe042023          	sw	zero,-32(s0)
    1abe:	fac42783          	lw	a5,-84(s0)
    1ac2:	00178713          	addi	a4,a5,1
    1ac6:	fae42623          	sw	a4,-84(s0)
    1aca:	2398                	.2byte	0x2398
    1acc:	200067b7          	lui	a5,0x20006
    1ad0:	5f878793          	addi	a5,a5,1528 # 200065f8 <DAP_Data>
    1ad4:	bfb8                	.2byte	0xbfb8
    1ad6:	200067b7          	lui	a5,0x20006
    1ada:	5f878793          	addi	a5,a5,1528 # 200065f8 <DAP_Data>
    1ade:	3fb8                	.2byte	0x3fb8
    1ae0:	200067b7          	lui	a5,0x20006
    1ae4:	5f878793          	addi	a5,a5,1528 # 200065f8 <DAP_Data>
    1ae8:	2fbc                	.2byte	0x2fbc
    1aea:	6af77763          	bgeu	a4,a5,2198 <DAP_JTAG_Transfer+0x71c>
    1aee:	fac42783          	lw	a5,-84(s0)
    1af2:	00178713          	addi	a4,a5,1
    1af6:	fae42623          	sw	a4,-84(s0)
    1afa:	239c                	.2byte	0x239c
    1afc:	fef42623          	sw	a5,-20(s0)
    1b00:	a331                	j	200c <DAP_JTAG_Transfer+0x590>
    1b02:	fac42783          	lw	a5,-84(s0)
    1b06:	00178713          	addi	a4,a5,1
    1b0a:	fae42623          	sw	a4,-84(s0)
    1b0e:	239c                	.2byte	0x239c
    1b10:	fcf42423          	sw	a5,-56(s0)
    1b14:	fc842783          	lw	a5,-56(s0)
    1b18:	8b85                	andi	a5,a5,1
    1b1a:	c399                	beqz	a5,1b20 <DAP_JTAG_Transfer+0xa4>
    1b1c:	47ad                	li	a5,11
    1b1e:	a011                	j	1b22 <DAP_JTAG_Transfer+0xa6>
    1b20:	47a9                	li	a5,10
    1b22:	fcf42223          	sw	a5,-60(s0)
    1b26:	fc842783          	lw	a5,-56(s0)
    1b2a:	8b89                	andi	a5,a5,2
    1b2c:	32078063          	beqz	a5,1e4c <DAP_JTAG_Transfer+0x3d0>
    1b30:	fe042783          	lw	a5,-32(s0)
    1b34:	12078463          	beqz	a5,1c5c <DAP_JTAG_Transfer+0x1e0>
    1b38:	200067b7          	lui	a5,0x20006
    1b3c:	5f878793          	addi	a5,a5,1528 # 200065f8 <DAP_Data>
    1b40:	2b9e                	.2byte	0x2b9e
    1b42:	fcf42c23          	sw	a5,-40(s0)
    1b46:	fd442703          	lw	a4,-44(s0)
    1b4a:	fc442783          	lw	a5,-60(s0)
    1b4e:	04f71463          	bne	a4,a5,1b96 <DAP_JTAG_Transfer+0x11a>
    1b52:	fc842783          	lw	a5,-56(s0)
    1b56:	8bc1                	andi	a5,a5,16
    1b58:	ef9d                	bnez	a5,1b96 <DAP_JTAG_Transfer+0x11a>
    1b5a:	fbc40793          	addi	a5,s0,-68
    1b5e:	85be                	mv	a1,a5
    1b60:	fc842503          	lw	a0,-56(s0)
    1b64:	0b2040ef          	jal	ra,5c16 <JTAG_Transfer>
    1b68:	87aa                	mv	a5,a0
    1b6a:	fef42223          	sw	a5,-28(s0)
    1b6e:	fe442703          	lw	a4,-28(s0)
    1b72:	4789                	li	a5,2
    1b74:	06f71c63          	bne	a4,a5,1bec <DAP_JTAG_Transfer+0x170>
    1b78:	fd842783          	lw	a5,-40(s0)
    1b7c:	fff78713          	addi	a4,a5,-1
    1b80:	fce42c23          	sw	a4,-40(s0)
    1b84:	c7a5                	beqz	a5,1bec <DAP_JTAG_Transfer+0x170>
    1b86:	200067b7          	lui	a5,0x20006
    1b8a:	5b07c783          	lbu	a5,1456(a5) # 200065b0 <DAP_TransferAbort>
    1b8e:	0ff7f793          	zext.b	a5,a5
    1b92:	d7e1                	beqz	a5,1b5a <DAP_JTAG_Transfer+0xde>
    1b94:	a8a1                	j	1bec <DAP_JTAG_Transfer+0x170>
    1b96:	fd442703          	lw	a4,-44(s0)
    1b9a:	47a9                	li	a5,10
    1b9c:	00f70963          	beq	a4,a5,1bae <DAP_JTAG_Transfer+0x132>
    1ba0:	47a9                	li	a5,10
    1ba2:	fcf42a23          	sw	a5,-44(s0)
    1ba6:	fd442503          	lw	a0,-44(s0)
    1baa:	038040ef          	jal	ra,5be2 <JTAG_IR>
    1bae:	fbc40793          	addi	a5,s0,-68
    1bb2:	85be                	mv	a1,a5
    1bb4:	4539                	li	a0,14
    1bb6:	060040ef          	jal	ra,5c16 <JTAG_Transfer>
    1bba:	87aa                	mv	a5,a0
    1bbc:	fef42223          	sw	a5,-28(s0)
    1bc0:	fe442703          	lw	a4,-28(s0)
    1bc4:	4789                	li	a5,2
    1bc6:	02f71063          	bne	a4,a5,1be6 <DAP_JTAG_Transfer+0x16a>
    1bca:	fd842783          	lw	a5,-40(s0)
    1bce:	fff78713          	addi	a4,a5,-1
    1bd2:	fce42c23          	sw	a4,-40(s0)
    1bd6:	cb81                	beqz	a5,1be6 <DAP_JTAG_Transfer+0x16a>
    1bd8:	200067b7          	lui	a5,0x20006
    1bdc:	5b07c783          	lbu	a5,1456(a5) # 200065b0 <DAP_TransferAbort>
    1be0:	0ff7f793          	zext.b	a5,a5
    1be4:	d7e9                	beqz	a5,1bae <DAP_JTAG_Transfer+0x132>
    1be6:	fe042023          	sw	zero,-32(s0)
    1bea:	a011                	j	1bee <DAP_JTAG_Transfer+0x172>
    1bec:	0001                	nop
    1bee:	fe442703          	lw	a4,-28(s0)
    1bf2:	4785                	li	a5,1
    1bf4:	42f71163          	bne	a4,a5,2016 <DAP_JTAG_Transfer+0x59a>
    1bf8:	fbc42683          	lw	a3,-68(s0)
    1bfc:	fa842783          	lw	a5,-88(s0)
    1c00:	00178713          	addi	a4,a5,1
    1c04:	fae42423          	sw	a4,-88(s0)
    1c08:	0ff6f713          	zext.b	a4,a3
    1c0c:	a398                	.2byte	0xa398
    1c0e:	fbc42783          	lw	a5,-68(s0)
    1c12:	0087d693          	srli	a3,a5,0x8
    1c16:	fa842783          	lw	a5,-88(s0)
    1c1a:	00178713          	addi	a4,a5,1
    1c1e:	fae42423          	sw	a4,-88(s0)
    1c22:	0ff6f713          	zext.b	a4,a3
    1c26:	a398                	.2byte	0xa398
    1c28:	fbc42783          	lw	a5,-68(s0)
    1c2c:	0107d693          	srli	a3,a5,0x10
    1c30:	fa842783          	lw	a5,-88(s0)
    1c34:	00178713          	addi	a4,a5,1
    1c38:	fae42423          	sw	a4,-88(s0)
    1c3c:	0ff6f713          	zext.b	a4,a3
    1c40:	a398                	.2byte	0xa398
    1c42:	fbc42783          	lw	a5,-68(s0)
    1c46:	0187d693          	srli	a3,a5,0x18
    1c4a:	fa842783          	lw	a5,-88(s0)
    1c4e:	00178713          	addi	a4,a5,1
    1c52:	fae42423          	sw	a4,-88(s0)
    1c56:	0ff6f713          	zext.b	a4,a3
    1c5a:	a398                	.2byte	0xa398
    1c5c:	fc842783          	lw	a5,-56(s0)
    1c60:	8bc1                	andi	a5,a5,16
    1c62:	16078863          	beqz	a5,1dd2 <DAP_JTAG_Transfer+0x356>
    1c66:	fac42783          	lw	a5,-84(s0)
    1c6a:	239c                	.2byte	0x239c
    1c6c:	873e                	mv	a4,a5
    1c6e:	fac42783          	lw	a5,-84(s0)
    1c72:	0785                	addi	a5,a5,1
    1c74:	239c                	.2byte	0x239c
    1c76:	07a2                	slli	a5,a5,0x8
    1c78:	8f5d                	or	a4,a4,a5
    1c7a:	fac42783          	lw	a5,-84(s0)
    1c7e:	0789                	addi	a5,a5,2
    1c80:	239c                	.2byte	0x239c
    1c82:	07c2                	slli	a5,a5,0x10
    1c84:	8f5d                	or	a4,a4,a5
    1c86:	fac42783          	lw	a5,-84(s0)
    1c8a:	078d                	addi	a5,a5,3
    1c8c:	239c                	.2byte	0x239c
    1c8e:	07e2                	slli	a5,a5,0x18
    1c90:	8fd9                	or	a5,a5,a4
    1c92:	fcf42023          	sw	a5,-64(s0)
    1c96:	fac42783          	lw	a5,-84(s0)
    1c9a:	0791                	addi	a5,a5,4
    1c9c:	faf42623          	sw	a5,-84(s0)
    1ca0:	200067b7          	lui	a5,0x20006
    1ca4:	5f878793          	addi	a5,a5,1528 # 200065f8 <DAP_Data>
    1ca8:	2bbe                	.2byte	0x2bbe
    1caa:	fcf42e23          	sw	a5,-36(s0)
    1cae:	fd442703          	lw	a4,-44(s0)
    1cb2:	fc442783          	lw	a5,-60(s0)
    1cb6:	00f70a63          	beq	a4,a5,1cca <DAP_JTAG_Transfer+0x24e>
    1cba:	fc442783          	lw	a5,-60(s0)
    1cbe:	fcf42a23          	sw	a5,-44(s0)
    1cc2:	fd442503          	lw	a0,-44(s0)
    1cc6:	71d030ef          	jal	ra,5be2 <JTAG_IR>
    1cca:	200067b7          	lui	a5,0x20006
    1cce:	5f878793          	addi	a5,a5,1528 # 200065f8 <DAP_Data>
    1cd2:	2b9e                	.2byte	0x2b9e
    1cd4:	fcf42c23          	sw	a5,-40(s0)
    1cd8:	4581                	li	a1,0
    1cda:	fc842503          	lw	a0,-56(s0)
    1cde:	739030ef          	jal	ra,5c16 <JTAG_Transfer>
    1ce2:	87aa                	mv	a5,a0
    1ce4:	fef42223          	sw	a5,-28(s0)
    1ce8:	fe442703          	lw	a4,-28(s0)
    1cec:	4789                	li	a5,2
    1cee:	02f71063          	bne	a4,a5,1d0e <DAP_JTAG_Transfer+0x292>
    1cf2:	fd842783          	lw	a5,-40(s0)
    1cf6:	fff78713          	addi	a4,a5,-1
    1cfa:	fce42c23          	sw	a4,-40(s0)
    1cfe:	cb81                	beqz	a5,1d0e <DAP_JTAG_Transfer+0x292>
    1d00:	200067b7          	lui	a5,0x20006
    1d04:	5b07c783          	lbu	a5,1456(a5) # 200065b0 <DAP_TransferAbort>
    1d08:	0ff7f793          	zext.b	a5,a5
    1d0c:	d7f1                	beqz	a5,1cd8 <DAP_JTAG_Transfer+0x25c>
    1d0e:	fe442703          	lw	a4,-28(s0)
    1d12:	4785                	li	a5,1
    1d14:	30f71363          	bne	a4,a5,201a <DAP_JTAG_Transfer+0x59e>
    1d18:	200067b7          	lui	a5,0x20006
    1d1c:	5f878793          	addi	a5,a5,1528 # 200065f8 <DAP_Data>
    1d20:	2b9e                	.2byte	0x2b9e
    1d22:	fcf42c23          	sw	a5,-40(s0)
    1d26:	fbc40793          	addi	a5,s0,-68
    1d2a:	85be                	mv	a1,a5
    1d2c:	fc842503          	lw	a0,-56(s0)
    1d30:	6e7030ef          	jal	ra,5c16 <JTAG_Transfer>
    1d34:	87aa                	mv	a5,a0
    1d36:	fef42223          	sw	a5,-28(s0)
    1d3a:	fe442703          	lw	a4,-28(s0)
    1d3e:	4789                	li	a5,2
    1d40:	02f71063          	bne	a4,a5,1d60 <DAP_JTAG_Transfer+0x2e4>
    1d44:	fd842783          	lw	a5,-40(s0)
    1d48:	fff78713          	addi	a4,a5,-1
    1d4c:	fce42c23          	sw	a4,-40(s0)
    1d50:	cb81                	beqz	a5,1d60 <DAP_JTAG_Transfer+0x2e4>
    1d52:	200067b7          	lui	a5,0x20006
    1d56:	5b07c783          	lbu	a5,1456(a5) # 200065b0 <DAP_TransferAbort>
    1d5a:	0ff7f793          	zext.b	a5,a5
    1d5e:	d7e1                	beqz	a5,1d26 <DAP_JTAG_Transfer+0x2aa>
    1d60:	fe442703          	lw	a4,-28(s0)
    1d64:	4785                	li	a5,1
    1d66:	02f71d63          	bne	a4,a5,1da0 <DAP_JTAG_Transfer+0x324>
    1d6a:	200067b7          	lui	a5,0x20006
    1d6e:	5f878793          	addi	a5,a5,1528 # 200065f8 <DAP_Data>
    1d72:	4bd8                	lw	a4,20(a5)
    1d74:	fbc42783          	lw	a5,-68(s0)
    1d78:	8ff9                	and	a5,a5,a4
    1d7a:	fc042703          	lw	a4,-64(s0)
    1d7e:	02f70263          	beq	a4,a5,1da2 <DAP_JTAG_Transfer+0x326>
    1d82:	fdc42783          	lw	a5,-36(s0)
    1d86:	fff78713          	addi	a4,a5,-1
    1d8a:	fce42e23          	sw	a4,-36(s0)
    1d8e:	cb91                	beqz	a5,1da2 <DAP_JTAG_Transfer+0x326>
    1d90:	200067b7          	lui	a5,0x20006
    1d94:	5b07c783          	lbu	a5,1456(a5) # 200065b0 <DAP_TransferAbort>
    1d98:	0ff7f793          	zext.b	a5,a5
    1d9c:	dfb5                	beqz	a5,1d18 <DAP_JTAG_Transfer+0x29c>
    1d9e:	a011                	j	1da2 <DAP_JTAG_Transfer+0x326>
    1da0:	0001                	nop
    1da2:	200067b7          	lui	a5,0x20006
    1da6:	5f878793          	addi	a5,a5,1528 # 200065f8 <DAP_Data>
    1daa:	4bd8                	lw	a4,20(a5)
    1dac:	fbc42783          	lw	a5,-68(s0)
    1db0:	8ff9                	and	a5,a5,a4
    1db2:	fc042703          	lw	a4,-64(s0)
    1db6:	00f70863          	beq	a4,a5,1dc6 <DAP_JTAG_Transfer+0x34a>
    1dba:	fe442783          	lw	a5,-28(s0)
    1dbe:	0107e793          	ori	a5,a5,16
    1dc2:	fef42223          	sw	a5,-28(s0)
    1dc6:	fe442703          	lw	a4,-28(s0)
    1dca:	4785                	li	a5,1
    1dcc:	20f70f63          	beq	a4,a5,1fea <DAP_JTAG_Transfer+0x56e>
    1dd0:	acb1                	j	202c <DAP_JTAG_Transfer+0x5b0>
    1dd2:	fe042783          	lw	a5,-32(s0)
    1dd6:	20079a63          	bnez	a5,1fea <DAP_JTAG_Transfer+0x56e>
    1dda:	fd442703          	lw	a4,-44(s0)
    1dde:	fc442783          	lw	a5,-60(s0)
    1de2:	00f70a63          	beq	a4,a5,1df6 <DAP_JTAG_Transfer+0x37a>
    1de6:	fc442783          	lw	a5,-60(s0)
    1dea:	fcf42a23          	sw	a5,-44(s0)
    1dee:	fd442503          	lw	a0,-44(s0)
    1df2:	5f1030ef          	jal	ra,5be2 <JTAG_IR>
    1df6:	200067b7          	lui	a5,0x20006
    1dfa:	5f878793          	addi	a5,a5,1528 # 200065f8 <DAP_Data>
    1dfe:	2b9e                	.2byte	0x2b9e
    1e00:	fcf42c23          	sw	a5,-40(s0)
    1e04:	4581                	li	a1,0
    1e06:	fc842503          	lw	a0,-56(s0)
    1e0a:	60d030ef          	jal	ra,5c16 <JTAG_Transfer>
    1e0e:	87aa                	mv	a5,a0
    1e10:	fef42223          	sw	a5,-28(s0)
    1e14:	fe442703          	lw	a4,-28(s0)
    1e18:	4789                	li	a5,2
    1e1a:	02f71063          	bne	a4,a5,1e3a <DAP_JTAG_Transfer+0x3be>
    1e1e:	fd842783          	lw	a5,-40(s0)
    1e22:	fff78713          	addi	a4,a5,-1
    1e26:	fce42c23          	sw	a4,-40(s0)
    1e2a:	cb81                	beqz	a5,1e3a <DAP_JTAG_Transfer+0x3be>
    1e2c:	200067b7          	lui	a5,0x20006
    1e30:	5b07c783          	lbu	a5,1456(a5) # 200065b0 <DAP_TransferAbort>
    1e34:	0ff7f793          	zext.b	a5,a5
    1e38:	d7f1                	beqz	a5,1e04 <DAP_JTAG_Transfer+0x388>
    1e3a:	fe442703          	lw	a4,-28(s0)
    1e3e:	4785                	li	a5,1
    1e40:	1cf71f63          	bne	a4,a5,201e <DAP_JTAG_Transfer+0x5a2>
    1e44:	4785                	li	a5,1
    1e46:	fef42023          	sw	a5,-32(s0)
    1e4a:	a245                	j	1fea <DAP_JTAG_Transfer+0x56e>
    1e4c:	fe042783          	lw	a5,-32(s0)
    1e50:	cbe9                	beqz	a5,1f22 <DAP_JTAG_Transfer+0x4a6>
    1e52:	fd442703          	lw	a4,-44(s0)
    1e56:	47a9                	li	a5,10
    1e58:	00f70963          	beq	a4,a5,1e6a <DAP_JTAG_Transfer+0x3ee>
    1e5c:	47a9                	li	a5,10
    1e5e:	fcf42a23          	sw	a5,-44(s0)
    1e62:	fd442503          	lw	a0,-44(s0)
    1e66:	57d030ef          	jal	ra,5be2 <JTAG_IR>
    1e6a:	200067b7          	lui	a5,0x20006
    1e6e:	5f878793          	addi	a5,a5,1528 # 200065f8 <DAP_Data>
    1e72:	2b9e                	.2byte	0x2b9e
    1e74:	fcf42c23          	sw	a5,-40(s0)
    1e78:	fbc40793          	addi	a5,s0,-68
    1e7c:	85be                	mv	a1,a5
    1e7e:	4539                	li	a0,14
    1e80:	597030ef          	jal	ra,5c16 <JTAG_Transfer>
    1e84:	87aa                	mv	a5,a0
    1e86:	fef42223          	sw	a5,-28(s0)
    1e8a:	fe442703          	lw	a4,-28(s0)
    1e8e:	4789                	li	a5,2
    1e90:	02f71063          	bne	a4,a5,1eb0 <DAP_JTAG_Transfer+0x434>
    1e94:	fd842783          	lw	a5,-40(s0)
    1e98:	fff78713          	addi	a4,a5,-1
    1e9c:	fce42c23          	sw	a4,-40(s0)
    1ea0:	cb81                	beqz	a5,1eb0 <DAP_JTAG_Transfer+0x434>
    1ea2:	200067b7          	lui	a5,0x20006
    1ea6:	5b07c783          	lbu	a5,1456(a5) # 200065b0 <DAP_TransferAbort>
    1eaa:	0ff7f793          	zext.b	a5,a5
    1eae:	d7e9                	beqz	a5,1e78 <DAP_JTAG_Transfer+0x3fc>
    1eb0:	fe442703          	lw	a4,-28(s0)
    1eb4:	4785                	li	a5,1
    1eb6:	16f71663          	bne	a4,a5,2022 <DAP_JTAG_Transfer+0x5a6>
    1eba:	fbc42683          	lw	a3,-68(s0)
    1ebe:	fa842783          	lw	a5,-88(s0)
    1ec2:	00178713          	addi	a4,a5,1
    1ec6:	fae42423          	sw	a4,-88(s0)
    1eca:	0ff6f713          	zext.b	a4,a3
    1ece:	a398                	.2byte	0xa398
    1ed0:	fbc42783          	lw	a5,-68(s0)
    1ed4:	0087d693          	srli	a3,a5,0x8
    1ed8:	fa842783          	lw	a5,-88(s0)
    1edc:	00178713          	addi	a4,a5,1
    1ee0:	fae42423          	sw	a4,-88(s0)
    1ee4:	0ff6f713          	zext.b	a4,a3
    1ee8:	a398                	.2byte	0xa398
    1eea:	fbc42783          	lw	a5,-68(s0)
    1eee:	0107d693          	srli	a3,a5,0x10
    1ef2:	fa842783          	lw	a5,-88(s0)
    1ef6:	00178713          	addi	a4,a5,1
    1efa:	fae42423          	sw	a4,-88(s0)
    1efe:	0ff6f713          	zext.b	a4,a3
    1f02:	a398                	.2byte	0xa398
    1f04:	fbc42783          	lw	a5,-68(s0)
    1f08:	0187d693          	srli	a3,a5,0x18
    1f0c:	fa842783          	lw	a5,-88(s0)
    1f10:	00178713          	addi	a4,a5,1
    1f14:	fae42423          	sw	a4,-88(s0)
    1f18:	0ff6f713          	zext.b	a4,a3
    1f1c:	a398                	.2byte	0xa398
    1f1e:	fe042023          	sw	zero,-32(s0)
    1f22:	fac42783          	lw	a5,-84(s0)
    1f26:	239c                	.2byte	0x239c
    1f28:	873e                	mv	a4,a5
    1f2a:	fac42783          	lw	a5,-84(s0)
    1f2e:	0785                	addi	a5,a5,1
    1f30:	239c                	.2byte	0x239c
    1f32:	07a2                	slli	a5,a5,0x8
    1f34:	8f5d                	or	a4,a4,a5
    1f36:	fac42783          	lw	a5,-84(s0)
    1f3a:	0789                	addi	a5,a5,2
    1f3c:	239c                	.2byte	0x239c
    1f3e:	07c2                	slli	a5,a5,0x10
    1f40:	8f5d                	or	a4,a4,a5
    1f42:	fac42783          	lw	a5,-84(s0)
    1f46:	078d                	addi	a5,a5,3
    1f48:	239c                	.2byte	0x239c
    1f4a:	07e2                	slli	a5,a5,0x18
    1f4c:	8fd9                	or	a5,a5,a4
    1f4e:	faf42e23          	sw	a5,-68(s0)
    1f52:	fac42783          	lw	a5,-84(s0)
    1f56:	0791                	addi	a5,a5,4
    1f58:	faf42623          	sw	a5,-84(s0)
    1f5c:	fc842783          	lw	a5,-56(s0)
    1f60:	0207f793          	andi	a5,a5,32
    1f64:	cf81                	beqz	a5,1f7c <DAP_JTAG_Transfer+0x500>
    1f66:	fbc42703          	lw	a4,-68(s0)
    1f6a:	200067b7          	lui	a5,0x20006
    1f6e:	5f878793          	addi	a5,a5,1528 # 200065f8 <DAP_Data>
    1f72:	cbd8                	sw	a4,20(a5)
    1f74:	4785                	li	a5,1
    1f76:	fef42223          	sw	a5,-28(s0)
    1f7a:	a885                	j	1fea <DAP_JTAG_Transfer+0x56e>
    1f7c:	fd442703          	lw	a4,-44(s0)
    1f80:	fc442783          	lw	a5,-60(s0)
    1f84:	00f70a63          	beq	a4,a5,1f98 <DAP_JTAG_Transfer+0x51c>
    1f88:	fc442783          	lw	a5,-60(s0)
    1f8c:	fcf42a23          	sw	a5,-44(s0)
    1f90:	fd442503          	lw	a0,-44(s0)
    1f94:	44f030ef          	jal	ra,5be2 <JTAG_IR>
    1f98:	200067b7          	lui	a5,0x20006
    1f9c:	5f878793          	addi	a5,a5,1528 # 200065f8 <DAP_Data>
    1fa0:	2b9e                	.2byte	0x2b9e
    1fa2:	fcf42c23          	sw	a5,-40(s0)
    1fa6:	fbc40793          	addi	a5,s0,-68
    1faa:	85be                	mv	a1,a5
    1fac:	fc842503          	lw	a0,-56(s0)
    1fb0:	467030ef          	jal	ra,5c16 <JTAG_Transfer>
    1fb4:	87aa                	mv	a5,a0
    1fb6:	fef42223          	sw	a5,-28(s0)
    1fba:	fe442703          	lw	a4,-28(s0)
    1fbe:	4789                	li	a5,2
    1fc0:	02f71063          	bne	a4,a5,1fe0 <DAP_JTAG_Transfer+0x564>
    1fc4:	fd842783          	lw	a5,-40(s0)
    1fc8:	fff78713          	addi	a4,a5,-1
    1fcc:	fce42c23          	sw	a4,-40(s0)
    1fd0:	cb81                	beqz	a5,1fe0 <DAP_JTAG_Transfer+0x564>
    1fd2:	200067b7          	lui	a5,0x20006
    1fd6:	5b07c783          	lbu	a5,1456(a5) # 200065b0 <DAP_TransferAbort>
    1fda:	0ff7f793          	zext.b	a5,a5
    1fde:	d7e1                	beqz	a5,1fa6 <DAP_JTAG_Transfer+0x52a>
    1fe0:	fe442703          	lw	a4,-28(s0)
    1fe4:	4785                	li	a5,1
    1fe6:	04f71063          	bne	a4,a5,2026 <DAP_JTAG_Transfer+0x5aa>
    1fea:	fe842783          	lw	a5,-24(s0)
    1fee:	0785                	addi	a5,a5,1
    1ff0:	fef42423          	sw	a5,-24(s0)
    1ff4:	200067b7          	lui	a5,0x20006
    1ff8:	5b07c783          	lbu	a5,1456(a5) # 200065b0 <DAP_TransferAbort>
    1ffc:	0ff7f793          	zext.b	a5,a5
    2000:	e78d                	bnez	a5,202a <DAP_JTAG_Transfer+0x5ae>
    2002:	fec42783          	lw	a5,-20(s0)
    2006:	17fd                	addi	a5,a5,-1
    2008:	fef42623          	sw	a5,-20(s0)
    200c:	fec42783          	lw	a5,-20(s0)
    2010:	ae0799e3          	bnez	a5,1b02 <DAP_JTAG_Transfer+0x86>
    2014:	a8b1                	j	2070 <DAP_JTAG_Transfer+0x5f4>
    2016:	0001                	nop
    2018:	a8a1                	j	2070 <DAP_JTAG_Transfer+0x5f4>
    201a:	0001                	nop
    201c:	a891                	j	2070 <DAP_JTAG_Transfer+0x5f4>
    201e:	0001                	nop
    2020:	a881                	j	2070 <DAP_JTAG_Transfer+0x5f4>
    2022:	0001                	nop
    2024:	a0b1                	j	2070 <DAP_JTAG_Transfer+0x5f4>
    2026:	0001                	nop
    2028:	a0a1                	j	2070 <DAP_JTAG_Transfer+0x5f4>
    202a:	0001                	nop
    202c:	a091                	j	2070 <DAP_JTAG_Transfer+0x5f4>
    202e:	fac42783          	lw	a5,-84(s0)
    2032:	00178713          	addi	a4,a5,1
    2036:	fae42623          	sw	a4,-84(s0)
    203a:	239c                	.2byte	0x239c
    203c:	fcf42423          	sw	a5,-56(s0)
    2040:	fc842783          	lw	a5,-56(s0)
    2044:	8b89                	andi	a5,a5,2
    2046:	cb99                	beqz	a5,205c <DAP_JTAG_Transfer+0x5e0>
    2048:	fc842783          	lw	a5,-56(s0)
    204c:	8bc1                	andi	a5,a5,16
    204e:	cf81                	beqz	a5,2066 <DAP_JTAG_Transfer+0x5ea>
    2050:	fac42783          	lw	a5,-84(s0)
    2054:	0791                	addi	a5,a5,4
    2056:	faf42623          	sw	a5,-84(s0)
    205a:	a031                	j	2066 <DAP_JTAG_Transfer+0x5ea>
    205c:	fac42783          	lw	a5,-84(s0)
    2060:	0791                	addi	a5,a5,4
    2062:	faf42623          	sw	a5,-84(s0)
    2066:	fec42783          	lw	a5,-20(s0)
    206a:	17fd                	addi	a5,a5,-1
    206c:	fef42623          	sw	a5,-20(s0)
    2070:	fec42783          	lw	a5,-20(s0)
    2074:	ffcd                	bnez	a5,202e <DAP_JTAG_Transfer+0x5b2>
    2076:	fe442703          	lw	a4,-28(s0)
    207a:	4785                	li	a5,1
    207c:	12f71063          	bne	a4,a5,219c <DAP_JTAG_Transfer+0x720>
    2080:	fd442703          	lw	a4,-44(s0)
    2084:	47a9                	li	a5,10
    2086:	00f70963          	beq	a4,a5,2098 <DAP_JTAG_Transfer+0x61c>
    208a:	47a9                	li	a5,10
    208c:	fcf42a23          	sw	a5,-44(s0)
    2090:	fd442503          	lw	a0,-44(s0)
    2094:	34f030ef          	jal	ra,5be2 <JTAG_IR>
    2098:	fe042783          	lw	a5,-32(s0)
    209c:	cfc5                	beqz	a5,2154 <DAP_JTAG_Transfer+0x6d8>
    209e:	200067b7          	lui	a5,0x20006
    20a2:	5f878793          	addi	a5,a5,1528 # 200065f8 <DAP_Data>
    20a6:	2b9e                	.2byte	0x2b9e
    20a8:	fcf42c23          	sw	a5,-40(s0)
    20ac:	fbc40793          	addi	a5,s0,-68
    20b0:	85be                	mv	a1,a5
    20b2:	4539                	li	a0,14
    20b4:	363030ef          	jal	ra,5c16 <JTAG_Transfer>
    20b8:	87aa                	mv	a5,a0
    20ba:	fef42223          	sw	a5,-28(s0)
    20be:	fe442703          	lw	a4,-28(s0)
    20c2:	4789                	li	a5,2
    20c4:	02f71063          	bne	a4,a5,20e4 <DAP_JTAG_Transfer+0x668>
    20c8:	fd842783          	lw	a5,-40(s0)
    20cc:	fff78713          	addi	a4,a5,-1
    20d0:	fce42c23          	sw	a4,-40(s0)
    20d4:	cb81                	beqz	a5,20e4 <DAP_JTAG_Transfer+0x668>
    20d6:	200067b7          	lui	a5,0x20006
    20da:	5b07c783          	lbu	a5,1456(a5) # 200065b0 <DAP_TransferAbort>
    20de:	0ff7f793          	zext.b	a5,a5
    20e2:	d7e9                	beqz	a5,20ac <DAP_JTAG_Transfer+0x630>
    20e4:	fe442703          	lw	a4,-28(s0)
    20e8:	4785                	li	a5,1
    20ea:	0af71b63          	bne	a4,a5,21a0 <DAP_JTAG_Transfer+0x724>
    20ee:	fbc42683          	lw	a3,-68(s0)
    20f2:	fa842783          	lw	a5,-88(s0)
    20f6:	00178713          	addi	a4,a5,1
    20fa:	fae42423          	sw	a4,-88(s0)
    20fe:	0ff6f713          	zext.b	a4,a3
    2102:	a398                	.2byte	0xa398
    2104:	fbc42783          	lw	a5,-68(s0)
    2108:	0087d693          	srli	a3,a5,0x8
    210c:	fa842783          	lw	a5,-88(s0)
    2110:	00178713          	addi	a4,a5,1
    2114:	fae42423          	sw	a4,-88(s0)
    2118:	0ff6f713          	zext.b	a4,a3
    211c:	a398                	.2byte	0xa398
    211e:	fbc42783          	lw	a5,-68(s0)
    2122:	0107d693          	srli	a3,a5,0x10
    2126:	fa842783          	lw	a5,-88(s0)
    212a:	00178713          	addi	a4,a5,1
    212e:	fae42423          	sw	a4,-88(s0)
    2132:	0ff6f713          	zext.b	a4,a3
    2136:	a398                	.2byte	0xa398
    2138:	fbc42783          	lw	a5,-68(s0)
    213c:	0187d693          	srli	a3,a5,0x18
    2140:	fa842783          	lw	a5,-88(s0)
    2144:	00178713          	addi	a4,a5,1
    2148:	fae42423          	sw	a4,-88(s0)
    214c:	0ff6f713          	zext.b	a4,a3
    2150:	a398                	.2byte	0xa398
    2152:	a881                	j	21a2 <DAP_JTAG_Transfer+0x726>
    2154:	200067b7          	lui	a5,0x20006
    2158:	5f878793          	addi	a5,a5,1528 # 200065f8 <DAP_Data>
    215c:	2b9e                	.2byte	0x2b9e
    215e:	fcf42c23          	sw	a5,-40(s0)
    2162:	4581                	li	a1,0
    2164:	4539                	li	a0,14
    2166:	2b1030ef          	jal	ra,5c16 <JTAG_Transfer>
    216a:	87aa                	mv	a5,a0
    216c:	fef42223          	sw	a5,-28(s0)
    2170:	fe442703          	lw	a4,-28(s0)
    2174:	4789                	li	a5,2
    2176:	02f71363          	bne	a4,a5,219c <DAP_JTAG_Transfer+0x720>
    217a:	fd842783          	lw	a5,-40(s0)
    217e:	fff78713          	addi	a4,a5,-1
    2182:	fce42c23          	sw	a4,-40(s0)
    2186:	cb99                	beqz	a5,219c <DAP_JTAG_Transfer+0x720>
    2188:	200067b7          	lui	a5,0x20006
    218c:	5b07c783          	lbu	a5,1456(a5) # 200065b0 <DAP_TransferAbort>
    2190:	0ff7f793          	zext.b	a5,a5
    2194:	d7f9                	beqz	a5,2162 <DAP_JTAG_Transfer+0x6e6>
    2196:	a019                	j	219c <DAP_JTAG_Transfer+0x720>
    2198:	0001                	nop
    219a:	a021                	j	21a2 <DAP_JTAG_Transfer+0x726>
    219c:	0001                	nop
    219e:	a011                	j	21a2 <DAP_JTAG_Transfer+0x726>
    21a0:	0001                	nop
    21a2:	fe842783          	lw	a5,-24(s0)
    21a6:	0ff7f713          	zext.b	a4,a5
    21aa:	fcc42783          	lw	a5,-52(s0)
    21ae:	a398                	.2byte	0xa398
    21b0:	fcc42783          	lw	a5,-52(s0)
    21b4:	0785                	addi	a5,a5,1
    21b6:	fe442703          	lw	a4,-28(s0)
    21ba:	0ff77713          	zext.b	a4,a4
    21be:	a398                	.2byte	0xa398
    21c0:	fac42703          	lw	a4,-84(s0)
    21c4:	fd042783          	lw	a5,-48(s0)
    21c8:	40f707b3          	sub	a5,a4,a5
    21cc:	07c2                	slli	a5,a5,0x10
    21ce:	fa842683          	lw	a3,-88(s0)
    21d2:	fcc42703          	lw	a4,-52(s0)
    21d6:	40e68733          	sub	a4,a3,a4
    21da:	8fd9                	or	a5,a5,a4
    21dc:	853e                	mv	a0,a5
    21de:	40f6                	lw	ra,92(sp)
    21e0:	4466                	lw	s0,88(sp)
    21e2:	6125                	addi	sp,sp,96
    21e4:	8082                	ret

000021e6 <DAP_Dummy_Transfer>:
    21e6:	7179                	addi	sp,sp,-48
    21e8:	d622                	sw	s0,44(sp)
    21ea:	1800                	addi	s0,sp,48
    21ec:	fca42e23          	sw	a0,-36(s0)
    21f0:	fcb42c23          	sw	a1,-40(s0)
    21f4:	fdc42783          	lw	a5,-36(s0)
    21f8:	fef42423          	sw	a5,-24(s0)
    21fc:	fdc42783          	lw	a5,-36(s0)
    2200:	0785                	addi	a5,a5,1
    2202:	fcf42e23          	sw	a5,-36(s0)
    2206:	fdc42783          	lw	a5,-36(s0)
    220a:	00178713          	addi	a4,a5,1
    220e:	fce42e23          	sw	a4,-36(s0)
    2212:	239c                	.2byte	0x239c
    2214:	fef42623          	sw	a5,-20(s0)
    2218:	a091                	j	225c <DAP_Dummy_Transfer+0x76>
    221a:	fdc42783          	lw	a5,-36(s0)
    221e:	00178713          	addi	a4,a5,1
    2222:	fce42e23          	sw	a4,-36(s0)
    2226:	239c                	.2byte	0x239c
    2228:	fef42223          	sw	a5,-28(s0)
    222c:	fe442783          	lw	a5,-28(s0)
    2230:	8b89                	andi	a5,a5,2
    2232:	cb99                	beqz	a5,2248 <DAP_Dummy_Transfer+0x62>
    2234:	fe442783          	lw	a5,-28(s0)
    2238:	8bc1                	andi	a5,a5,16
    223a:	cf81                	beqz	a5,2252 <DAP_Dummy_Transfer+0x6c>
    223c:	fdc42783          	lw	a5,-36(s0)
    2240:	0791                	addi	a5,a5,4
    2242:	fcf42e23          	sw	a5,-36(s0)
    2246:	a031                	j	2252 <DAP_Dummy_Transfer+0x6c>
    2248:	fdc42783          	lw	a5,-36(s0)
    224c:	0791                	addi	a5,a5,4
    224e:	fcf42e23          	sw	a5,-36(s0)
    2252:	fec42783          	lw	a5,-20(s0)
    2256:	17fd                	addi	a5,a5,-1
    2258:	fef42623          	sw	a5,-20(s0)
    225c:	fec42783          	lw	a5,-20(s0)
    2260:	ffcd                	bnez	a5,221a <DAP_Dummy_Transfer+0x34>
    2262:	fd842783          	lw	a5,-40(s0)
    2266:	00078023          	sb	zero,0(a5)
    226a:	fd842783          	lw	a5,-40(s0)
    226e:	0785                	addi	a5,a5,1
    2270:	00078023          	sb	zero,0(a5)
    2274:	fdc42703          	lw	a4,-36(s0)
    2278:	fe842783          	lw	a5,-24(s0)
    227c:	40f707b3          	sub	a5,a4,a5
    2280:	07c2                	slli	a5,a5,0x10
    2282:	0027e793          	ori	a5,a5,2
    2286:	853e                	mv	a0,a5
    2288:	5432                	lw	s0,44(sp)
    228a:	6145                	addi	sp,sp,48
    228c:	8082                	ret

0000228e <DAP_Transfer>:
    228e:	7179                	addi	sp,sp,-48
    2290:	d606                	sw	ra,44(sp)
    2292:	d422                	sw	s0,40(sp)
    2294:	1800                	addi	s0,sp,48
    2296:	fca42e23          	sw	a0,-36(s0)
    229a:	fcb42c23          	sw	a1,-40(s0)
    229e:	200067b7          	lui	a5,0x20006
    22a2:	5f878793          	addi	a5,a5,1528 # 200065f8 <DAP_Data>
    22a6:	239c                	.2byte	0x239c
    22a8:	4705                	li	a4,1
    22aa:	00e78663          	beq	a5,a4,22b6 <DAP_Transfer+0x28>
    22ae:	4709                	li	a4,2
    22b0:	00e78c63          	beq	a5,a4,22c8 <DAP_Transfer+0x3a>
    22b4:	a01d                	j	22da <DAP_Transfer+0x4c>
    22b6:	fd842583          	lw	a1,-40(s0)
    22ba:	fdc42503          	lw	a0,-36(s0)
    22be:	86cff0ef          	jal	ra,132a <DAP_SWD_Transfer>
    22c2:	fea42623          	sw	a0,-20(s0)
    22c6:	a015                	j	22ea <DAP_Transfer+0x5c>
    22c8:	fd842583          	lw	a1,-40(s0)
    22cc:	fdc42503          	lw	a0,-36(s0)
    22d0:	facff0ef          	jal	ra,1a7c <DAP_JTAG_Transfer>
    22d4:	fea42623          	sw	a0,-20(s0)
    22d8:	a809                	j	22ea <DAP_Transfer+0x5c>
    22da:	fd842583          	lw	a1,-40(s0)
    22de:	fdc42503          	lw	a0,-36(s0)
    22e2:	3711                	jal	21e6 <DAP_Dummy_Transfer>
    22e4:	fea42623          	sw	a0,-20(s0)
    22e8:	0001                	nop
    22ea:	fec42783          	lw	a5,-20(s0)
    22ee:	853e                	mv	a0,a5
    22f0:	50b2                	lw	ra,44(sp)
    22f2:	5422                	lw	s0,40(sp)
    22f4:	6145                	addi	sp,sp,48
    22f6:	8082                	ret

000022f8 <DAP_SWD_TransferBlock>:
    22f8:	7139                	addi	sp,sp,-64
    22fa:	de06                	sw	ra,60(sp)
    22fc:	dc22                	sw	s0,56(sp)
    22fe:	0080                	addi	s0,sp,64
    2300:	fca42623          	sw	a0,-52(s0)
    2304:	fcb42423          	sw	a1,-56(s0)
    2308:	fe042223          	sw	zero,-28(s0)
    230c:	fe042023          	sw	zero,-32(s0)
    2310:	fc842783          	lw	a5,-56(s0)
    2314:	fcf42c23          	sw	a5,-40(s0)
    2318:	fc842783          	lw	a5,-56(s0)
    231c:	078d                	addi	a5,a5,3
    231e:	fcf42423          	sw	a5,-56(s0)
    2322:	200067b7          	lui	a5,0x20006
    2326:	5a078823          	sb	zero,1456(a5) # 200065b0 <DAP_TransferAbort>
    232a:	fcc42783          	lw	a5,-52(s0)
    232e:	0785                	addi	a5,a5,1
    2330:	fcf42623          	sw	a5,-52(s0)
    2334:	fcc42783          	lw	a5,-52(s0)
    2338:	239c                	.2byte	0x239c
    233a:	873e                	mv	a4,a5
    233c:	fcc42783          	lw	a5,-52(s0)
    2340:	0785                	addi	a5,a5,1
    2342:	239c                	.2byte	0x239c
    2344:	07a2                	slli	a5,a5,0x8
    2346:	8fd9                	or	a5,a5,a4
    2348:	fef42623          	sw	a5,-20(s0)
    234c:	fcc42783          	lw	a5,-52(s0)
    2350:	0789                	addi	a5,a5,2
    2352:	fcf42623          	sw	a5,-52(s0)
    2356:	fec42783          	lw	a5,-20(s0)
    235a:	24078363          	beqz	a5,25a0 <DAP_SWD_TransferBlock+0x2a8>
    235e:	fcc42783          	lw	a5,-52(s0)
    2362:	00178713          	addi	a4,a5,1
    2366:	fce42623          	sw	a4,-52(s0)
    236a:	239c                	.2byte	0x239c
    236c:	fef42423          	sw	a5,-24(s0)
    2370:	fe842783          	lw	a5,-24(s0)
    2374:	8b89                	andi	a5,a5,2
    2376:	1c078c63          	beqz	a5,254e <DAP_SWD_TransferBlock+0x256>
    237a:	fe842783          	lw	a5,-24(s0)
    237e:	8b85                	andi	a5,a5,1
    2380:	12078463          	beqz	a5,24a8 <DAP_SWD_TransferBlock+0x1b0>
    2384:	200067b7          	lui	a5,0x20006
    2388:	5f878793          	addi	a5,a5,1528 # 200065f8 <DAP_Data>
    238c:	2b9e                	.2byte	0x2b9e
    238e:	fcf42e23          	sw	a5,-36(s0)
    2392:	4581                	li	a1,0
    2394:	fe842503          	lw	a0,-24(s0)
    2398:	6ae050ef          	jal	ra,7a46 <SWD_Transfer>
    239c:	87aa                	mv	a5,a0
    239e:	fef42023          	sw	a5,-32(s0)
    23a2:	fe042703          	lw	a4,-32(s0)
    23a6:	4789                	li	a5,2
    23a8:	02f71063          	bne	a4,a5,23c8 <DAP_SWD_TransferBlock+0xd0>
    23ac:	fdc42783          	lw	a5,-36(s0)
    23b0:	fff78713          	addi	a4,a5,-1
    23b4:	fce42e23          	sw	a4,-36(s0)
    23b8:	cb81                	beqz	a5,23c8 <DAP_SWD_TransferBlock+0xd0>
    23ba:	200067b7          	lui	a5,0x20006
    23be:	5b07c783          	lbu	a5,1456(a5) # 200065b0 <DAP_TransferAbort>
    23c2:	0ff7f793          	zext.b	a5,a5
    23c6:	d7f1                	beqz	a5,2392 <DAP_SWD_TransferBlock+0x9a>
    23c8:	fe042703          	lw	a4,-32(s0)
    23cc:	4785                	li	a5,1
    23ce:	1cf71b63          	bne	a4,a5,25a4 <DAP_SWD_TransferBlock+0x2ac>
    23d2:	a8d9                	j	24a8 <DAP_SWD_TransferBlock+0x1b0>
    23d4:	fec42783          	lw	a5,-20(s0)
    23d8:	eb81                	bnez	a5,23e8 <DAP_SWD_TransferBlock+0xf0>
    23da:	fe842783          	lw	a5,-24(s0)
    23de:	8b85                	andi	a5,a5,1
    23e0:	c781                	beqz	a5,23e8 <DAP_SWD_TransferBlock+0xf0>
    23e2:	47b9                	li	a5,14
    23e4:	fef42423          	sw	a5,-24(s0)
    23e8:	200067b7          	lui	a5,0x20006
    23ec:	5f878793          	addi	a5,a5,1528 # 200065f8 <DAP_Data>
    23f0:	2b9e                	.2byte	0x2b9e
    23f2:	fcf42e23          	sw	a5,-36(s0)
    23f6:	fd440793          	addi	a5,s0,-44
    23fa:	85be                	mv	a1,a5
    23fc:	fe842503          	lw	a0,-24(s0)
    2400:	646050ef          	jal	ra,7a46 <SWD_Transfer>
    2404:	87aa                	mv	a5,a0
    2406:	fef42023          	sw	a5,-32(s0)
    240a:	fe042703          	lw	a4,-32(s0)
    240e:	4789                	li	a5,2
    2410:	02f71063          	bne	a4,a5,2430 <DAP_SWD_TransferBlock+0x138>
    2414:	fdc42783          	lw	a5,-36(s0)
    2418:	fff78713          	addi	a4,a5,-1
    241c:	fce42e23          	sw	a4,-36(s0)
    2420:	cb81                	beqz	a5,2430 <DAP_SWD_TransferBlock+0x138>
    2422:	200067b7          	lui	a5,0x20006
    2426:	5b07c783          	lbu	a5,1456(a5) # 200065b0 <DAP_TransferAbort>
    242a:	0ff7f793          	zext.b	a5,a5
    242e:	d7e1                	beqz	a5,23f6 <DAP_SWD_TransferBlock+0xfe>
    2430:	fe042703          	lw	a4,-32(s0)
    2434:	4785                	li	a5,1
    2436:	16f71963          	bne	a4,a5,25a8 <DAP_SWD_TransferBlock+0x2b0>
    243a:	fd442683          	lw	a3,-44(s0)
    243e:	fc842783          	lw	a5,-56(s0)
    2442:	00178713          	addi	a4,a5,1
    2446:	fce42423          	sw	a4,-56(s0)
    244a:	0ff6f713          	zext.b	a4,a3
    244e:	a398                	.2byte	0xa398
    2450:	fd442783          	lw	a5,-44(s0)
    2454:	0087d693          	srli	a3,a5,0x8
    2458:	fc842783          	lw	a5,-56(s0)
    245c:	00178713          	addi	a4,a5,1
    2460:	fce42423          	sw	a4,-56(s0)
    2464:	0ff6f713          	zext.b	a4,a3
    2468:	a398                	.2byte	0xa398
    246a:	fd442783          	lw	a5,-44(s0)
    246e:	0107d693          	srli	a3,a5,0x10
    2472:	fc842783          	lw	a5,-56(s0)
    2476:	00178713          	addi	a4,a5,1
    247a:	fce42423          	sw	a4,-56(s0)
    247e:	0ff6f713          	zext.b	a4,a3
    2482:	a398                	.2byte	0xa398
    2484:	fd442783          	lw	a5,-44(s0)
    2488:	0187d693          	srli	a3,a5,0x18
    248c:	fc842783          	lw	a5,-56(s0)
    2490:	00178713          	addi	a4,a5,1
    2494:	fce42423          	sw	a4,-56(s0)
    2498:	0ff6f713          	zext.b	a4,a3
    249c:	a398                	.2byte	0xa398
    249e:	fe442783          	lw	a5,-28(s0)
    24a2:	0785                	addi	a5,a5,1
    24a4:	fef42223          	sw	a5,-28(s0)
    24a8:	fec42783          	lw	a5,-20(s0)
    24ac:	fff78713          	addi	a4,a5,-1
    24b0:	fee42623          	sw	a4,-20(s0)
    24b4:	f385                	bnez	a5,23d4 <DAP_SWD_TransferBlock+0xdc>
    24b6:	a8f5                	j	25b2 <DAP_SWD_TransferBlock+0x2ba>
    24b8:	fcc42783          	lw	a5,-52(s0)
    24bc:	239c                	.2byte	0x239c
    24be:	873e                	mv	a4,a5
    24c0:	fcc42783          	lw	a5,-52(s0)
    24c4:	0785                	addi	a5,a5,1
    24c6:	239c                	.2byte	0x239c
    24c8:	07a2                	slli	a5,a5,0x8
    24ca:	8f5d                	or	a4,a4,a5
    24cc:	fcc42783          	lw	a5,-52(s0)
    24d0:	0789                	addi	a5,a5,2
    24d2:	239c                	.2byte	0x239c
    24d4:	07c2                	slli	a5,a5,0x10
    24d6:	8f5d                	or	a4,a4,a5
    24d8:	fcc42783          	lw	a5,-52(s0)
    24dc:	078d                	addi	a5,a5,3
    24de:	239c                	.2byte	0x239c
    24e0:	07e2                	slli	a5,a5,0x18
    24e2:	8fd9                	or	a5,a5,a4
    24e4:	fcf42a23          	sw	a5,-44(s0)
    24e8:	fcc42783          	lw	a5,-52(s0)
    24ec:	0791                	addi	a5,a5,4
    24ee:	fcf42623          	sw	a5,-52(s0)
    24f2:	200067b7          	lui	a5,0x20006
    24f6:	5f878793          	addi	a5,a5,1528 # 200065f8 <DAP_Data>
    24fa:	2b9e                	.2byte	0x2b9e
    24fc:	fcf42e23          	sw	a5,-36(s0)
    2500:	fd440793          	addi	a5,s0,-44
    2504:	85be                	mv	a1,a5
    2506:	fe842503          	lw	a0,-24(s0)
    250a:	53c050ef          	jal	ra,7a46 <SWD_Transfer>
    250e:	87aa                	mv	a5,a0
    2510:	fef42023          	sw	a5,-32(s0)
    2514:	fe042703          	lw	a4,-32(s0)
    2518:	4789                	li	a5,2
    251a:	02f71063          	bne	a4,a5,253a <DAP_SWD_TransferBlock+0x242>
    251e:	fdc42783          	lw	a5,-36(s0)
    2522:	fff78713          	addi	a4,a5,-1
    2526:	fce42e23          	sw	a4,-36(s0)
    252a:	cb81                	beqz	a5,253a <DAP_SWD_TransferBlock+0x242>
    252c:	200067b7          	lui	a5,0x20006
    2530:	5b07c783          	lbu	a5,1456(a5) # 200065b0 <DAP_TransferAbort>
    2534:	0ff7f793          	zext.b	a5,a5
    2538:	d7e1                	beqz	a5,2500 <DAP_SWD_TransferBlock+0x208>
    253a:	fe042703          	lw	a4,-32(s0)
    253e:	4785                	li	a5,1
    2540:	06f71663          	bne	a4,a5,25ac <DAP_SWD_TransferBlock+0x2b4>
    2544:	fe442783          	lw	a5,-28(s0)
    2548:	0785                	addi	a5,a5,1
    254a:	fef42223          	sw	a5,-28(s0)
    254e:	fec42783          	lw	a5,-20(s0)
    2552:	fff78713          	addi	a4,a5,-1
    2556:	fee42623          	sw	a4,-20(s0)
    255a:	ffb9                	bnez	a5,24b8 <DAP_SWD_TransferBlock+0x1c0>
    255c:	200067b7          	lui	a5,0x20006
    2560:	5f878793          	addi	a5,a5,1528 # 200065f8 <DAP_Data>
    2564:	2b9e                	.2byte	0x2b9e
    2566:	fcf42e23          	sw	a5,-36(s0)
    256a:	4581                	li	a1,0
    256c:	4539                	li	a0,14
    256e:	4d8050ef          	jal	ra,7a46 <SWD_Transfer>
    2572:	87aa                	mv	a5,a0
    2574:	fef42023          	sw	a5,-32(s0)
    2578:	fe042703          	lw	a4,-32(s0)
    257c:	4789                	li	a5,2
    257e:	02f71963          	bne	a4,a5,25b0 <DAP_SWD_TransferBlock+0x2b8>
    2582:	fdc42783          	lw	a5,-36(s0)
    2586:	fff78713          	addi	a4,a5,-1
    258a:	fce42e23          	sw	a4,-36(s0)
    258e:	c38d                	beqz	a5,25b0 <DAP_SWD_TransferBlock+0x2b8>
    2590:	200067b7          	lui	a5,0x20006
    2594:	5b07c783          	lbu	a5,1456(a5) # 200065b0 <DAP_TransferAbort>
    2598:	0ff7f793          	zext.b	a5,a5
    259c:	d7f9                	beqz	a5,256a <DAP_SWD_TransferBlock+0x272>
    259e:	a809                	j	25b0 <DAP_SWD_TransferBlock+0x2b8>
    25a0:	0001                	nop
    25a2:	a801                	j	25b2 <DAP_SWD_TransferBlock+0x2ba>
    25a4:	0001                	nop
    25a6:	a031                	j	25b2 <DAP_SWD_TransferBlock+0x2ba>
    25a8:	0001                	nop
    25aa:	a021                	j	25b2 <DAP_SWD_TransferBlock+0x2ba>
    25ac:	0001                	nop
    25ae:	a011                	j	25b2 <DAP_SWD_TransferBlock+0x2ba>
    25b0:	0001                	nop
    25b2:	fe442783          	lw	a5,-28(s0)
    25b6:	0ff7f713          	zext.b	a4,a5
    25ba:	fd842783          	lw	a5,-40(s0)
    25be:	a398                	.2byte	0xa398
    25c0:	fe442783          	lw	a5,-28(s0)
    25c4:	0087d713          	srli	a4,a5,0x8
    25c8:	fd842783          	lw	a5,-40(s0)
    25cc:	0785                	addi	a5,a5,1
    25ce:	0ff77713          	zext.b	a4,a4
    25d2:	a398                	.2byte	0xa398
    25d4:	fd842783          	lw	a5,-40(s0)
    25d8:	0789                	addi	a5,a5,2
    25da:	fe042703          	lw	a4,-32(s0)
    25de:	0ff77713          	zext.b	a4,a4
    25e2:	a398                	.2byte	0xa398
    25e4:	fc842703          	lw	a4,-56(s0)
    25e8:	fd842783          	lw	a5,-40(s0)
    25ec:	40f707b3          	sub	a5,a4,a5
    25f0:	853e                	mv	a0,a5
    25f2:	50f2                	lw	ra,60(sp)
    25f4:	5462                	lw	s0,56(sp)
    25f6:	6121                	addi	sp,sp,64
    25f8:	8082                	ret

000025fa <DAP_JTAG_TransferBlock>:
    25fa:	7139                	addi	sp,sp,-64
    25fc:	de06                	sw	ra,60(sp)
    25fe:	dc22                	sw	s0,56(sp)
    2600:	0080                	addi	s0,sp,64
    2602:	fca42623          	sw	a0,-52(s0)
    2606:	fcb42423          	sw	a1,-56(s0)
    260a:	fe042223          	sw	zero,-28(s0)
    260e:	fe042023          	sw	zero,-32(s0)
    2612:	fc842783          	lw	a5,-56(s0)
    2616:	fcf42c23          	sw	a5,-40(s0)
    261a:	fc842783          	lw	a5,-56(s0)
    261e:	078d                	addi	a5,a5,3
    2620:	fcf42423          	sw	a5,-56(s0)
    2624:	200067b7          	lui	a5,0x20006
    2628:	5a078823          	sb	zero,1456(a5) # 200065b0 <DAP_TransferAbort>
    262c:	fcc42783          	lw	a5,-52(s0)
    2630:	00178713          	addi	a4,a5,1
    2634:	fce42623          	sw	a4,-52(s0)
    2638:	2398                	.2byte	0x2398
    263a:	200067b7          	lui	a5,0x20006
    263e:	5f878793          	addi	a5,a5,1528 # 200065f8 <DAP_Data>
    2642:	bfb8                	.2byte	0xbfb8
    2644:	200067b7          	lui	a5,0x20006
    2648:	5f878793          	addi	a5,a5,1528 # 200065f8 <DAP_Data>
    264c:	3fb8                	.2byte	0x3fb8
    264e:	200067b7          	lui	a5,0x20006
    2652:	5f878793          	addi	a5,a5,1528 # 200065f8 <DAP_Data>
    2656:	2fbc                	.2byte	0x2fbc
    2658:	28f77c63          	bgeu	a4,a5,28f0 <DAP_JTAG_TransferBlock+0x2f6>
    265c:	fcc42783          	lw	a5,-52(s0)
    2660:	239c                	.2byte	0x239c
    2662:	873e                	mv	a4,a5
    2664:	fcc42783          	lw	a5,-52(s0)
    2668:	0785                	addi	a5,a5,1
    266a:	239c                	.2byte	0x239c
    266c:	07a2                	slli	a5,a5,0x8
    266e:	8fd9                	or	a5,a5,a4
    2670:	fef42623          	sw	a5,-20(s0)
    2674:	fcc42783          	lw	a5,-52(s0)
    2678:	0789                	addi	a5,a5,2
    267a:	fcf42623          	sw	a5,-52(s0)
    267e:	fec42783          	lw	a5,-20(s0)
    2682:	26078963          	beqz	a5,28f4 <DAP_JTAG_TransferBlock+0x2fa>
    2686:	fcc42783          	lw	a5,-52(s0)
    268a:	00178713          	addi	a4,a5,1
    268e:	fce42623          	sw	a4,-52(s0)
    2692:	239c                	.2byte	0x239c
    2694:	fef42423          	sw	a5,-24(s0)
    2698:	fe842783          	lw	a5,-24(s0)
    269c:	8b85                	andi	a5,a5,1
    269e:	c399                	beqz	a5,26a4 <DAP_JTAG_TransferBlock+0xaa>
    26a0:	47ad                	li	a5,11
    26a2:	a011                	j	26a6 <DAP_JTAG_TransferBlock+0xac>
    26a4:	47a9                	li	a5,10
    26a6:	fcf42a23          	sw	a5,-44(s0)
    26aa:	fd442503          	lw	a0,-44(s0)
    26ae:	534030ef          	jal	ra,5be2 <JTAG_IR>
    26b2:	fe842783          	lw	a5,-24(s0)
    26b6:	8b89                	andi	a5,a5,2
    26b8:	1c078b63          	beqz	a5,288e <DAP_JTAG_TransferBlock+0x294>
    26bc:	200067b7          	lui	a5,0x20006
    26c0:	5f878793          	addi	a5,a5,1528 # 200065f8 <DAP_Data>
    26c4:	2b9e                	.2byte	0x2b9e
    26c6:	fcf42e23          	sw	a5,-36(s0)
    26ca:	4581                	li	a1,0
    26cc:	fe842503          	lw	a0,-24(s0)
    26d0:	546030ef          	jal	ra,5c16 <JTAG_Transfer>
    26d4:	87aa                	mv	a5,a0
    26d6:	fef42023          	sw	a5,-32(s0)
    26da:	fe042703          	lw	a4,-32(s0)
    26de:	4789                	li	a5,2
    26e0:	02f71063          	bne	a4,a5,2700 <DAP_JTAG_TransferBlock+0x106>
    26e4:	fdc42783          	lw	a5,-36(s0)
    26e8:	fff78713          	addi	a4,a5,-1
    26ec:	fce42e23          	sw	a4,-36(s0)
    26f0:	cb81                	beqz	a5,2700 <DAP_JTAG_TransferBlock+0x106>
    26f2:	200067b7          	lui	a5,0x20006
    26f6:	5b07c783          	lbu	a5,1456(a5) # 200065b0 <DAP_TransferAbort>
    26fa:	0ff7f793          	zext.b	a5,a5
    26fe:	d7f1                	beqz	a5,26ca <DAP_JTAG_TransferBlock+0xd0>
    2700:	fe042703          	lw	a4,-32(s0)
    2704:	4785                	li	a5,1
    2706:	1ef71963          	bne	a4,a5,28f8 <DAP_JTAG_TransferBlock+0x2fe>
    270a:	a8f9                	j	27e8 <DAP_JTAG_TransferBlock+0x1ee>
    270c:	fec42783          	lw	a5,-20(s0)
    2710:	ef81                	bnez	a5,2728 <DAP_JTAG_TransferBlock+0x12e>
    2712:	fd442703          	lw	a4,-44(s0)
    2716:	47a9                	li	a5,10
    2718:	00f70563          	beq	a4,a5,2722 <DAP_JTAG_TransferBlock+0x128>
    271c:	4529                	li	a0,10
    271e:	4c4030ef          	jal	ra,5be2 <JTAG_IR>
    2722:	47b9                	li	a5,14
    2724:	fef42423          	sw	a5,-24(s0)
    2728:	200067b7          	lui	a5,0x20006
    272c:	5f878793          	addi	a5,a5,1528 # 200065f8 <DAP_Data>
    2730:	2b9e                	.2byte	0x2b9e
    2732:	fcf42e23          	sw	a5,-36(s0)
    2736:	fd040793          	addi	a5,s0,-48
    273a:	85be                	mv	a1,a5
    273c:	fe842503          	lw	a0,-24(s0)
    2740:	4d6030ef          	jal	ra,5c16 <JTAG_Transfer>
    2744:	87aa                	mv	a5,a0
    2746:	fef42023          	sw	a5,-32(s0)
    274a:	fe042703          	lw	a4,-32(s0)
    274e:	4789                	li	a5,2
    2750:	02f71063          	bne	a4,a5,2770 <DAP_JTAG_TransferBlock+0x176>
    2754:	fdc42783          	lw	a5,-36(s0)
    2758:	fff78713          	addi	a4,a5,-1
    275c:	fce42e23          	sw	a4,-36(s0)
    2760:	cb81                	beqz	a5,2770 <DAP_JTAG_TransferBlock+0x176>
    2762:	200067b7          	lui	a5,0x20006
    2766:	5b07c783          	lbu	a5,1456(a5) # 200065b0 <DAP_TransferAbort>
    276a:	0ff7f793          	zext.b	a5,a5
    276e:	d7e1                	beqz	a5,2736 <DAP_JTAG_TransferBlock+0x13c>
    2770:	fe042703          	lw	a4,-32(s0)
    2774:	4785                	li	a5,1
    2776:	18f71363          	bne	a4,a5,28fc <DAP_JTAG_TransferBlock+0x302>
    277a:	fd042683          	lw	a3,-48(s0)
    277e:	fc842783          	lw	a5,-56(s0)
    2782:	00178713          	addi	a4,a5,1
    2786:	fce42423          	sw	a4,-56(s0)
    278a:	0ff6f713          	zext.b	a4,a3
    278e:	a398                	.2byte	0xa398
    2790:	fd042783          	lw	a5,-48(s0)
    2794:	0087d693          	srli	a3,a5,0x8
    2798:	fc842783          	lw	a5,-56(s0)
    279c:	00178713          	addi	a4,a5,1
    27a0:	fce42423          	sw	a4,-56(s0)
    27a4:	0ff6f713          	zext.b	a4,a3
    27a8:	a398                	.2byte	0xa398
    27aa:	fd042783          	lw	a5,-48(s0)
    27ae:	0107d693          	srli	a3,a5,0x10
    27b2:	fc842783          	lw	a5,-56(s0)
    27b6:	00178713          	addi	a4,a5,1
    27ba:	fce42423          	sw	a4,-56(s0)
    27be:	0ff6f713          	zext.b	a4,a3
    27c2:	a398                	.2byte	0xa398
    27c4:	fd042783          	lw	a5,-48(s0)
    27c8:	0187d693          	srli	a3,a5,0x18
    27cc:	fc842783          	lw	a5,-56(s0)
    27d0:	00178713          	addi	a4,a5,1
    27d4:	fce42423          	sw	a4,-56(s0)
    27d8:	0ff6f713          	zext.b	a4,a3
    27dc:	a398                	.2byte	0xa398
    27de:	fe442783          	lw	a5,-28(s0)
    27e2:	0785                	addi	a5,a5,1
    27e4:	fef42223          	sw	a5,-28(s0)
    27e8:	fec42783          	lw	a5,-20(s0)
    27ec:	fff78713          	addi	a4,a5,-1
    27f0:	fee42623          	sw	a4,-20(s0)
    27f4:	ff81                	bnez	a5,270c <DAP_JTAG_TransferBlock+0x112>
    27f6:	aa01                	j	2906 <DAP_JTAG_TransferBlock+0x30c>
    27f8:	fcc42783          	lw	a5,-52(s0)
    27fc:	239c                	.2byte	0x239c
    27fe:	873e                	mv	a4,a5
    2800:	fcc42783          	lw	a5,-52(s0)
    2804:	0785                	addi	a5,a5,1
    2806:	239c                	.2byte	0x239c
    2808:	07a2                	slli	a5,a5,0x8
    280a:	8f5d                	or	a4,a4,a5
    280c:	fcc42783          	lw	a5,-52(s0)
    2810:	0789                	addi	a5,a5,2
    2812:	239c                	.2byte	0x239c
    2814:	07c2                	slli	a5,a5,0x10
    2816:	8f5d                	or	a4,a4,a5
    2818:	fcc42783          	lw	a5,-52(s0)
    281c:	078d                	addi	a5,a5,3
    281e:	239c                	.2byte	0x239c
    2820:	07e2                	slli	a5,a5,0x18
    2822:	8fd9                	or	a5,a5,a4
    2824:	fcf42823          	sw	a5,-48(s0)
    2828:	fcc42783          	lw	a5,-52(s0)
    282c:	0791                	addi	a5,a5,4
    282e:	fcf42623          	sw	a5,-52(s0)
    2832:	200067b7          	lui	a5,0x20006
    2836:	5f878793          	addi	a5,a5,1528 # 200065f8 <DAP_Data>
    283a:	2b9e                	.2byte	0x2b9e
    283c:	fcf42e23          	sw	a5,-36(s0)
    2840:	fd040793          	addi	a5,s0,-48
    2844:	85be                	mv	a1,a5
    2846:	fe842503          	lw	a0,-24(s0)
    284a:	3cc030ef          	jal	ra,5c16 <JTAG_Transfer>
    284e:	87aa                	mv	a5,a0
    2850:	fef42023          	sw	a5,-32(s0)
    2854:	fe042703          	lw	a4,-32(s0)
    2858:	4789                	li	a5,2
    285a:	02f71063          	bne	a4,a5,287a <DAP_JTAG_TransferBlock+0x280>
    285e:	fdc42783          	lw	a5,-36(s0)
    2862:	fff78713          	addi	a4,a5,-1
    2866:	fce42e23          	sw	a4,-36(s0)
    286a:	cb81                	beqz	a5,287a <DAP_JTAG_TransferBlock+0x280>
    286c:	200067b7          	lui	a5,0x20006
    2870:	5b07c783          	lbu	a5,1456(a5) # 200065b0 <DAP_TransferAbort>
    2874:	0ff7f793          	zext.b	a5,a5
    2878:	d7e1                	beqz	a5,2840 <DAP_JTAG_TransferBlock+0x246>
    287a:	fe042703          	lw	a4,-32(s0)
    287e:	4785                	li	a5,1
    2880:	08f71063          	bne	a4,a5,2900 <DAP_JTAG_TransferBlock+0x306>
    2884:	fe442783          	lw	a5,-28(s0)
    2888:	0785                	addi	a5,a5,1
    288a:	fef42223          	sw	a5,-28(s0)
    288e:	fec42783          	lw	a5,-20(s0)
    2892:	fff78713          	addi	a4,a5,-1
    2896:	fee42623          	sw	a4,-20(s0)
    289a:	ffb9                	bnez	a5,27f8 <DAP_JTAG_TransferBlock+0x1fe>
    289c:	fd442703          	lw	a4,-44(s0)
    28a0:	47a9                	li	a5,10
    28a2:	00f70563          	beq	a4,a5,28ac <DAP_JTAG_TransferBlock+0x2b2>
    28a6:	4529                	li	a0,10
    28a8:	33a030ef          	jal	ra,5be2 <JTAG_IR>
    28ac:	200067b7          	lui	a5,0x20006
    28b0:	5f878793          	addi	a5,a5,1528 # 200065f8 <DAP_Data>
    28b4:	2b9e                	.2byte	0x2b9e
    28b6:	fcf42e23          	sw	a5,-36(s0)
    28ba:	4581                	li	a1,0
    28bc:	4539                	li	a0,14
    28be:	358030ef          	jal	ra,5c16 <JTAG_Transfer>
    28c2:	87aa                	mv	a5,a0
    28c4:	fef42023          	sw	a5,-32(s0)
    28c8:	fe042703          	lw	a4,-32(s0)
    28cc:	4789                	li	a5,2
    28ce:	02f71b63          	bne	a4,a5,2904 <DAP_JTAG_TransferBlock+0x30a>
    28d2:	fdc42783          	lw	a5,-36(s0)
    28d6:	fff78713          	addi	a4,a5,-1
    28da:	fce42e23          	sw	a4,-36(s0)
    28de:	c39d                	beqz	a5,2904 <DAP_JTAG_TransferBlock+0x30a>
    28e0:	200067b7          	lui	a5,0x20006
    28e4:	5b07c783          	lbu	a5,1456(a5) # 200065b0 <DAP_TransferAbort>
    28e8:	0ff7f793          	zext.b	a5,a5
    28ec:	d7f9                	beqz	a5,28ba <DAP_JTAG_TransferBlock+0x2c0>
    28ee:	a819                	j	2904 <DAP_JTAG_TransferBlock+0x30a>
    28f0:	0001                	nop
    28f2:	a811                	j	2906 <DAP_JTAG_TransferBlock+0x30c>
    28f4:	0001                	nop
    28f6:	a801                	j	2906 <DAP_JTAG_TransferBlock+0x30c>
    28f8:	0001                	nop
    28fa:	a031                	j	2906 <DAP_JTAG_TransferBlock+0x30c>
    28fc:	0001                	nop
    28fe:	a021                	j	2906 <DAP_JTAG_TransferBlock+0x30c>
    2900:	0001                	nop
    2902:	a011                	j	2906 <DAP_JTAG_TransferBlock+0x30c>
    2904:	0001                	nop
    2906:	fe442783          	lw	a5,-28(s0)
    290a:	0ff7f713          	zext.b	a4,a5
    290e:	fd842783          	lw	a5,-40(s0)
    2912:	a398                	.2byte	0xa398
    2914:	fe442783          	lw	a5,-28(s0)
    2918:	0087d713          	srli	a4,a5,0x8
    291c:	fd842783          	lw	a5,-40(s0)
    2920:	0785                	addi	a5,a5,1
    2922:	0ff77713          	zext.b	a4,a4
    2926:	a398                	.2byte	0xa398
    2928:	fd842783          	lw	a5,-40(s0)
    292c:	0789                	addi	a5,a5,2
    292e:	fe042703          	lw	a4,-32(s0)
    2932:	0ff77713          	zext.b	a4,a4
    2936:	a398                	.2byte	0xa398
    2938:	fc842703          	lw	a4,-56(s0)
    293c:	fd842783          	lw	a5,-40(s0)
    2940:	40f707b3          	sub	a5,a4,a5
    2944:	853e                	mv	a0,a5
    2946:	50f2                	lw	ra,60(sp)
    2948:	5462                	lw	s0,56(sp)
    294a:	6121                	addi	sp,sp,64
    294c:	8082                	ret

0000294e <DAP_TransferBlock>:
    294e:	7179                	addi	sp,sp,-48
    2950:	d606                	sw	ra,44(sp)
    2952:	d422                	sw	s0,40(sp)
    2954:	1800                	addi	s0,sp,48
    2956:	fca42e23          	sw	a0,-36(s0)
    295a:	fcb42c23          	sw	a1,-40(s0)
    295e:	200067b7          	lui	a5,0x20006
    2962:	5f878793          	addi	a5,a5,1528 # 200065f8 <DAP_Data>
    2966:	239c                	.2byte	0x239c
    2968:	4705                	li	a4,1
    296a:	00e78663          	beq	a5,a4,2976 <DAP_TransferBlock+0x28>
    296e:	4709                	li	a4,2
    2970:	00e78c63          	beq	a5,a4,2988 <DAP_TransferBlock+0x3a>
    2974:	a015                	j	2998 <DAP_TransferBlock+0x4a>
    2976:	fd842583          	lw	a1,-40(s0)
    297a:	fdc42503          	lw	a0,-36(s0)
    297e:	97bff0ef          	jal	ra,22f8 <DAP_SWD_TransferBlock>
    2982:	fea42623          	sw	a0,-20(s0)
    2986:	a81d                	j	29bc <DAP_TransferBlock+0x6e>
    2988:	fd842583          	lw	a1,-40(s0)
    298c:	fdc42503          	lw	a0,-36(s0)
    2990:	31ad                	jal	25fa <DAP_JTAG_TransferBlock>
    2992:	fea42623          	sw	a0,-20(s0)
    2996:	a01d                	j	29bc <DAP_TransferBlock+0x6e>
    2998:	fd842783          	lw	a5,-40(s0)
    299c:	00078023          	sb	zero,0(a5)
    29a0:	fd842783          	lw	a5,-40(s0)
    29a4:	0785                	addi	a5,a5,1
    29a6:	00078023          	sb	zero,0(a5)
    29aa:	fd842783          	lw	a5,-40(s0)
    29ae:	0789                	addi	a5,a5,2
    29b0:	00078023          	sb	zero,0(a5)
    29b4:	478d                	li	a5,3
    29b6:	fef42623          	sw	a5,-20(s0)
    29ba:	0001                	nop
    29bc:	fdc42783          	lw	a5,-36(s0)
    29c0:	078d                	addi	a5,a5,3
    29c2:	239c                	.2byte	0x239c
    29c4:	8b89                	andi	a5,a5,2
    29c6:	cb89                	beqz	a5,29d8 <DAP_TransferBlock+0x8a>
    29c8:	fec42703          	lw	a4,-20(s0)
    29cc:	000407b7          	lui	a5,0x40
    29d0:	8fd9                	or	a5,a5,a4
    29d2:	fef42623          	sw	a5,-20(s0)
    29d6:	a025                	j	29fe <DAP_TransferBlock+0xb0>
    29d8:	fdc42783          	lw	a5,-36(s0)
    29dc:	0785                	addi	a5,a5,1 # 40001 <_data_lma+0x32231>
    29de:	239c                	.2byte	0x239c
    29e0:	873e                	mv	a4,a5
    29e2:	fdc42783          	lw	a5,-36(s0)
    29e6:	0789                	addi	a5,a5,2
    29e8:	239c                	.2byte	0x239c
    29ea:	07a2                	slli	a5,a5,0x8
    29ec:	8fd9                	or	a5,a5,a4
    29ee:	0785                	addi	a5,a5,1
    29f0:	078a                	slli	a5,a5,0x2
    29f2:	07c2                	slli	a5,a5,0x10
    29f4:	fec42703          	lw	a4,-20(s0)
    29f8:	8fd9                	or	a5,a5,a4
    29fa:	fef42623          	sw	a5,-20(s0)
    29fe:	fec42783          	lw	a5,-20(s0)
    2a02:	853e                	mv	a0,a5
    2a04:	50b2                	lw	ra,44(sp)
    2a06:	5422                	lw	s0,40(sp)
    2a08:	6145                	addi	sp,sp,48
    2a0a:	8082                	ret

00002a0c <DAP_SWD_WriteAbort>:
    2a0c:	7179                	addi	sp,sp,-48
    2a0e:	d606                	sw	ra,44(sp)
    2a10:	d422                	sw	s0,40(sp)
    2a12:	1800                	addi	s0,sp,48
    2a14:	fca42e23          	sw	a0,-36(s0)
    2a18:	fcb42c23          	sw	a1,-40(s0)
    2a1c:	fdc42783          	lw	a5,-36(s0)
    2a20:	0785                	addi	a5,a5,1
    2a22:	239c                	.2byte	0x239c
    2a24:	873e                	mv	a4,a5
    2a26:	fdc42783          	lw	a5,-36(s0)
    2a2a:	0789                	addi	a5,a5,2
    2a2c:	239c                	.2byte	0x239c
    2a2e:	07a2                	slli	a5,a5,0x8
    2a30:	8f5d                	or	a4,a4,a5
    2a32:	fdc42783          	lw	a5,-36(s0)
    2a36:	078d                	addi	a5,a5,3
    2a38:	239c                	.2byte	0x239c
    2a3a:	07c2                	slli	a5,a5,0x10
    2a3c:	8f5d                	or	a4,a4,a5
    2a3e:	fdc42783          	lw	a5,-36(s0)
    2a42:	0791                	addi	a5,a5,4
    2a44:	239c                	.2byte	0x239c
    2a46:	07e2                	slli	a5,a5,0x18
    2a48:	8fd9                	or	a5,a5,a4
    2a4a:	fef42623          	sw	a5,-20(s0)
    2a4e:	fec40793          	addi	a5,s0,-20
    2a52:	85be                	mv	a1,a5
    2a54:	4501                	li	a0,0
    2a56:	7f1040ef          	jal	ra,7a46 <SWD_Transfer>
    2a5a:	fd842783          	lw	a5,-40(s0)
    2a5e:	00078023          	sb	zero,0(a5)
    2a62:	4785                	li	a5,1
    2a64:	853e                	mv	a0,a5
    2a66:	50b2                	lw	ra,44(sp)
    2a68:	5422                	lw	s0,40(sp)
    2a6a:	6145                	addi	sp,sp,48
    2a6c:	8082                	ret

00002a6e <DAP_JTAG_WriteAbort>:
    2a6e:	7179                	addi	sp,sp,-48
    2a70:	d606                	sw	ra,44(sp)
    2a72:	d422                	sw	s0,40(sp)
    2a74:	1800                	addi	s0,sp,48
    2a76:	fca42e23          	sw	a0,-36(s0)
    2a7a:	fcb42c23          	sw	a1,-40(s0)
    2a7e:	fdc42783          	lw	a5,-36(s0)
    2a82:	2398                	.2byte	0x2398
    2a84:	200067b7          	lui	a5,0x20006
    2a88:	5f878793          	addi	a5,a5,1528 # 200065f8 <DAP_Data>
    2a8c:	bfb8                	.2byte	0xbfb8
    2a8e:	200067b7          	lui	a5,0x20006
    2a92:	5f878793          	addi	a5,a5,1528 # 200065f8 <DAP_Data>
    2a96:	3fb8                	.2byte	0x3fb8
    2a98:	200067b7          	lui	a5,0x20006
    2a9c:	5f878793          	addi	a5,a5,1528 # 200065f8 <DAP_Data>
    2aa0:	2fbc                	.2byte	0x2fbc
    2aa2:	00f76863          	bltu	a4,a5,2ab2 <DAP_JTAG_WriteAbort+0x44>
    2aa6:	fd842783          	lw	a5,-40(s0)
    2aaa:	577d                	li	a4,-1
    2aac:	a398                	.2byte	0xa398
    2aae:	4785                	li	a5,1
    2ab0:	a0b1                	j	2afc <DAP_JTAG_WriteAbort+0x8e>
    2ab2:	4521                	li	a0,8
    2ab4:	12e030ef          	jal	ra,5be2 <JTAG_IR>
    2ab8:	fdc42783          	lw	a5,-36(s0)
    2abc:	0785                	addi	a5,a5,1
    2abe:	239c                	.2byte	0x239c
    2ac0:	873e                	mv	a4,a5
    2ac2:	fdc42783          	lw	a5,-36(s0)
    2ac6:	0789                	addi	a5,a5,2
    2ac8:	239c                	.2byte	0x239c
    2aca:	07a2                	slli	a5,a5,0x8
    2acc:	8f5d                	or	a4,a4,a5
    2ace:	fdc42783          	lw	a5,-36(s0)
    2ad2:	078d                	addi	a5,a5,3
    2ad4:	239c                	.2byte	0x239c
    2ad6:	07c2                	slli	a5,a5,0x10
    2ad8:	8f5d                	or	a4,a4,a5
    2ada:	fdc42783          	lw	a5,-36(s0)
    2ade:	0791                	addi	a5,a5,4
    2ae0:	239c                	.2byte	0x239c
    2ae2:	07e2                	slli	a5,a5,0x18
    2ae4:	8fd9                	or	a5,a5,a4
    2ae6:	fef42623          	sw	a5,-20(s0)
    2aea:	fec42503          	lw	a0,-20(s0)
    2aee:	11d020ef          	jal	ra,540a <JTAG_WriteAbort>
    2af2:	fd842783          	lw	a5,-40(s0)
    2af6:	00078023          	sb	zero,0(a5)
    2afa:	4785                	li	a5,1
    2afc:	853e                	mv	a0,a5
    2afe:	50b2                	lw	ra,44(sp)
    2b00:	5422                	lw	s0,40(sp)
    2b02:	6145                	addi	sp,sp,48
    2b04:	8082                	ret

00002b06 <DAP_WriteAbort>:
    2b06:	7179                	addi	sp,sp,-48
    2b08:	d606                	sw	ra,44(sp)
    2b0a:	d422                	sw	s0,40(sp)
    2b0c:	1800                	addi	s0,sp,48
    2b0e:	fca42e23          	sw	a0,-36(s0)
    2b12:	fcb42c23          	sw	a1,-40(s0)
    2b16:	200067b7          	lui	a5,0x20006
    2b1a:	5f878793          	addi	a5,a5,1528 # 200065f8 <DAP_Data>
    2b1e:	239c                	.2byte	0x239c
    2b20:	4705                	li	a4,1
    2b22:	00e78663          	beq	a5,a4,2b2e <DAP_WriteAbort+0x28>
    2b26:	4709                	li	a4,2
    2b28:	00e78b63          	beq	a5,a4,2b3e <DAP_WriteAbort+0x38>
    2b2c:	a00d                	j	2b4e <DAP_WriteAbort+0x48>
    2b2e:	fd842583          	lw	a1,-40(s0)
    2b32:	fdc42503          	lw	a0,-36(s0)
    2b36:	3dd9                	jal	2a0c <DAP_SWD_WriteAbort>
    2b38:	fea42623          	sw	a0,-20(s0)
    2b3c:	a00d                	j	2b5e <DAP_WriteAbort+0x58>
    2b3e:	fd842583          	lw	a1,-40(s0)
    2b42:	fdc42503          	lw	a0,-36(s0)
    2b46:	3725                	jal	2a6e <DAP_JTAG_WriteAbort>
    2b48:	fea42623          	sw	a0,-20(s0)
    2b4c:	a809                	j	2b5e <DAP_WriteAbort+0x58>
    2b4e:	fd842783          	lw	a5,-40(s0)
    2b52:	577d                	li	a4,-1
    2b54:	a398                	.2byte	0xa398
    2b56:	4785                	li	a5,1
    2b58:	fef42623          	sw	a5,-20(s0)
    2b5c:	0001                	nop
    2b5e:	fec42703          	lw	a4,-20(s0)
    2b62:	000507b7          	lui	a5,0x50
    2b66:	8fd9                	or	a5,a5,a4
    2b68:	853e                	mv	a0,a5
    2b6a:	50b2                	lw	ra,44(sp)
    2b6c:	5422                	lw	s0,40(sp)
    2b6e:	6145                	addi	sp,sp,48
    2b70:	8082                	ret

00002b72 <DAP_ProcessCommand>:
    2b72:	7179                	addi	sp,sp,-48
    2b74:	d606                	sw	ra,44(sp)
    2b76:	d422                	sw	s0,40(sp)
    2b78:	1800                	addi	s0,sp,48
    2b7a:	fca42e23          	sw	a0,-36(s0)
    2b7e:	fcb42c23          	sw	a1,-40(s0)
    2b82:	fdc42783          	lw	a5,-36(s0)
    2b86:	239c                	.2byte	0x239c
    2b88:	07e2                	slli	a5,a5,0x18
    2b8a:	87e1                	srai	a5,a5,0x18
    2b8c:	0207d063          	bgez	a5,2bac <DAP_ProcessCommand+0x3a>
    2b90:	fdc42783          	lw	a5,-36(s0)
    2b94:	2398                	.2byte	0x2398
    2b96:	09f00793          	li	a5,159
    2b9a:	00e7e963          	bltu	a5,a4,2bac <DAP_ProcessCommand+0x3a>
    2b9e:	fd842583          	lw	a1,-40(s0)
    2ba2:	fdc42503          	lw	a0,-36(s0)
    2ba6:	2605                	jal	2ec6 <DAP_ProcessVendorCommand>
    2ba8:	87aa                	mv	a5,a0
    2baa:	aa45                	j	2d5a <DAP_ProcessCommand+0x1e8>
    2bac:	fd842783          	lw	a5,-40(s0)
    2bb0:	00178713          	addi	a4,a5,1 # 50001 <_data_lma+0x42231>
    2bb4:	fce42c23          	sw	a4,-40(s0)
    2bb8:	fdc42703          	lw	a4,-36(s0)
    2bbc:	2318                	.2byte	0x2318
    2bbe:	a398                	.2byte	0xa398
    2bc0:	fdc42783          	lw	a5,-36(s0)
    2bc4:	00178713          	addi	a4,a5,1
    2bc8:	fce42e23          	sw	a4,-36(s0)
    2bcc:	239c                	.2byte	0x239c
    2bce:	4775                	li	a4,29
    2bd0:	16f76863          	bltu	a4,a5,2d40 <DAP_ProcessCommand+0x1ce>
    2bd4:	00279713          	slli	a4,a5,0x2
    2bd8:	67b9                	lui	a5,0xe
    2bda:	ae878793          	addi	a5,a5,-1304 # dae8 <__retarget_lock_release_recursive+0x7c>
    2bde:	97ba                	add	a5,a5,a4
    2be0:	439c                	lw	a5,0(a5)
    2be2:	8782                	jr	a5
    2be4:	fdc42783          	lw	a5,-36(s0)
    2be8:	2398                	.2byte	0x2398
    2bea:	fd842783          	lw	a5,-40(s0)
    2bee:	0785                	addi	a5,a5,1
    2bf0:	85be                	mv	a1,a5
    2bf2:	853a                	mv	a0,a4
    2bf4:	b21fd0ef          	jal	ra,714 <DAP_Info>
    2bf8:	87aa                	mv	a5,a0
    2bfa:	fef42623          	sw	a5,-20(s0)
    2bfe:	fec42783          	lw	a5,-20(s0)
    2c02:	0ff7f713          	zext.b	a4,a5
    2c06:	fd842783          	lw	a5,-40(s0)
    2c0a:	a398                	.2byte	0xa398
    2c0c:	fec42703          	lw	a4,-20(s0)
    2c10:	000207b7          	lui	a5,0x20
    2c14:	0789                	addi	a5,a5,2 # 20002 <_data_lma+0x12232>
    2c16:	97ba                	add	a5,a5,a4
    2c18:	a289                	j	2d5a <DAP_ProcessCommand+0x1e8>
    2c1a:	fd842583          	lw	a1,-40(s0)
    2c1e:	fdc42503          	lw	a0,-36(s0)
    2c22:	ca9fd0ef          	jal	ra,8ca <DAP_HostStatus>
    2c26:	fea42623          	sw	a0,-20(s0)
    2c2a:	a21d                	j	2d50 <DAP_ProcessCommand+0x1de>
    2c2c:	fd842583          	lw	a1,-40(s0)
    2c30:	fdc42503          	lw	a0,-36(s0)
    2c34:	cfffd0ef          	jal	ra,932 <DAP_Connect>
    2c38:	fea42623          	sw	a0,-20(s0)
    2c3c:	aa11                	j	2d50 <DAP_ProcessCommand+0x1de>
    2c3e:	fd842503          	lw	a0,-40(s0)
    2c42:	d73fd0ef          	jal	ra,9b4 <DAP_Disconnect>
    2c46:	fea42623          	sw	a0,-20(s0)
    2c4a:	a219                	j	2d50 <DAP_ProcessCommand+0x1de>
    2c4c:	fd842583          	lw	a1,-40(s0)
    2c50:	fdc42503          	lw	a0,-36(s0)
    2c54:	c05fd0ef          	jal	ra,858 <DAP_Delay>
    2c58:	fea42623          	sw	a0,-20(s0)
    2c5c:	a8d5                	j	2d50 <DAP_ProcessCommand+0x1de>
    2c5e:	fd842503          	lw	a0,-40(s0)
    2c62:	d81fd0ef          	jal	ra,9e2 <DAP_ResetTarget>
    2c66:	fea42623          	sw	a0,-20(s0)
    2c6a:	a0dd                	j	2d50 <DAP_ProcessCommand+0x1de>
    2c6c:	fd842583          	lw	a1,-40(s0)
    2c70:	fdc42503          	lw	a0,-36(s0)
    2c74:	da1fd0ef          	jal	ra,a14 <DAP_SWJ_Pins>
    2c78:	fea42623          	sw	a0,-20(s0)
    2c7c:	a8d1                	j	2d50 <DAP_ProcessCommand+0x1de>
    2c7e:	fd842583          	lw	a1,-40(s0)
    2c82:	fdc42503          	lw	a0,-36(s0)
    2c86:	858fe0ef          	jal	ra,cde <DAP_SWJ_Clock>
    2c8a:	fea42623          	sw	a0,-20(s0)
    2c8e:	a0c9                	j	2d50 <DAP_ProcessCommand+0x1de>
    2c90:	fd842583          	lw	a1,-40(s0)
    2c94:	fdc42503          	lw	a0,-36(s0)
    2c98:	8bafe0ef          	jal	ra,d52 <DAP_SWJ_Sequence>
    2c9c:	fea42623          	sw	a0,-20(s0)
    2ca0:	a845                	j	2d50 <DAP_ProcessCommand+0x1de>
    2ca2:	fd842583          	lw	a1,-40(s0)
    2ca6:	fdc42503          	lw	a0,-36(s0)
    2caa:	90efe0ef          	jal	ra,db8 <DAP_SWD_Configure>
    2cae:	fea42623          	sw	a0,-20(s0)
    2cb2:	a879                	j	2d50 <DAP_ProcessCommand+0x1de>
    2cb4:	fd842583          	lw	a1,-40(s0)
    2cb8:	fdc42503          	lw	a0,-36(s0)
    2cbc:	95cfe0ef          	jal	ra,e18 <DAP_SWD_Sequence>
    2cc0:	fea42623          	sw	a0,-20(s0)
    2cc4:	a071                	j	2d50 <DAP_ProcessCommand+0x1de>
    2cc6:	fd842583          	lw	a1,-40(s0)
    2cca:	fdc42503          	lw	a0,-36(s0)
    2cce:	afcfe0ef          	jal	ra,fca <DAP_JTAG_Sequence>
    2cd2:	fea42623          	sw	a0,-20(s0)
    2cd6:	a8ad                	j	2d50 <DAP_ProcessCommand+0x1de>
    2cd8:	fd842583          	lw	a1,-40(s0)
    2cdc:	fdc42503          	lw	a0,-36(s0)
    2ce0:	bdcfe0ef          	jal	ra,10bc <DAP_JTAG_Configure>
    2ce4:	fea42623          	sw	a0,-20(s0)
    2ce8:	a0a5                	j	2d50 <DAP_ProcessCommand+0x1de>
    2cea:	fd842583          	lw	a1,-40(s0)
    2cee:	fdc42503          	lw	a0,-36(s0)
    2cf2:	ce4fe0ef          	jal	ra,11d6 <DAP_JTAG_IDCode>
    2cf6:	fea42623          	sw	a0,-20(s0)
    2cfa:	a899                	j	2d50 <DAP_ProcessCommand+0x1de>
    2cfc:	fd842583          	lw	a1,-40(s0)
    2d00:	fdc42503          	lw	a0,-36(s0)
    2d04:	d9efe0ef          	jal	ra,12a2 <DAP_TransferConfigure>
    2d08:	fea42623          	sw	a0,-20(s0)
    2d0c:	a091                	j	2d50 <DAP_ProcessCommand+0x1de>
    2d0e:	fd842583          	lw	a1,-40(s0)
    2d12:	fdc42503          	lw	a0,-36(s0)
    2d16:	d78ff0ef          	jal	ra,228e <DAP_Transfer>
    2d1a:	fea42623          	sw	a0,-20(s0)
    2d1e:	a80d                	j	2d50 <DAP_ProcessCommand+0x1de>
    2d20:	fd842583          	lw	a1,-40(s0)
    2d24:	fdc42503          	lw	a0,-36(s0)
    2d28:	311d                	jal	294e <DAP_TransferBlock>
    2d2a:	fea42623          	sw	a0,-20(s0)
    2d2e:	a00d                	j	2d50 <DAP_ProcessCommand+0x1de>
    2d30:	fd842583          	lw	a1,-40(s0)
    2d34:	fdc42503          	lw	a0,-36(s0)
    2d38:	33f9                	jal	2b06 <DAP_WriteAbort>
    2d3a:	fea42623          	sw	a0,-20(s0)
    2d3e:	a809                	j	2d50 <DAP_ProcessCommand+0x1de>
    2d40:	fd842783          	lw	a5,-40(s0)
    2d44:	17fd                	addi	a5,a5,-1
    2d46:	577d                	li	a4,-1
    2d48:	a398                	.2byte	0xa398
    2d4a:	67c1                	lui	a5,0x10
    2d4c:	0785                	addi	a5,a5,1 # 10001 <_data_lma+0x2231>
    2d4e:	a031                	j	2d5a <DAP_ProcessCommand+0x1e8>
    2d50:	fec42703          	lw	a4,-20(s0)
    2d54:	67c1                	lui	a5,0x10
    2d56:	0785                	addi	a5,a5,1 # 10001 <_data_lma+0x2231>
    2d58:	97ba                	add	a5,a5,a4
    2d5a:	853e                	mv	a0,a5
    2d5c:	50b2                	lw	ra,44(sp)
    2d5e:	5422                	lw	s0,40(sp)
    2d60:	6145                	addi	sp,sp,48
    2d62:	8082                	ret

00002d64 <DAP_ExecuteCommand>:
    2d64:	7179                	addi	sp,sp,-48
    2d66:	d606                	sw	ra,44(sp)
    2d68:	d422                	sw	s0,40(sp)
    2d6a:	1800                	addi	s0,sp,48
    2d6c:	fca42e23          	sw	a0,-36(s0)
    2d70:	fcb42c23          	sw	a1,-40(s0)
    2d74:	fdc42783          	lw	a5,-36(s0)
    2d78:	2398                	.2byte	0x2398
    2d7a:	07f00793          	li	a5,127
    2d7e:	0af71763          	bne	a4,a5,2e2c <DAP_ExecuteCommand+0xc8>
    2d82:	fdc42703          	lw	a4,-36(s0)
    2d86:	00170793          	addi	a5,a4,1 # 1300001 <_data_lma+0x12f2231>
    2d8a:	fcf42e23          	sw	a5,-36(s0)
    2d8e:	fd842783          	lw	a5,-40(s0)
    2d92:	00178693          	addi	a3,a5,1
    2d96:	fcd42c23          	sw	a3,-40(s0)
    2d9a:	2318                	.2byte	0x2318
    2d9c:	a398                	.2byte	0xa398
    2d9e:	fdc42783          	lw	a5,-36(s0)
    2da2:	00178713          	addi	a4,a5,1
    2da6:	fce42e23          	sw	a4,-36(s0)
    2daa:	239c                	.2byte	0x239c
    2dac:	fef42623          	sw	a5,-20(s0)
    2db0:	fd842783          	lw	a5,-40(s0)
    2db4:	00178713          	addi	a4,a5,1
    2db8:	fce42c23          	sw	a4,-40(s0)
    2dbc:	fec42703          	lw	a4,-20(s0)
    2dc0:	0ff77713          	zext.b	a4,a4
    2dc4:	a398                	.2byte	0xa398
    2dc6:	000207b7          	lui	a5,0x20
    2dca:	0789                	addi	a5,a5,2 # 20002 <_data_lma+0x12232>
    2dcc:	fef42423          	sw	a5,-24(s0)
    2dd0:	a0a1                	j	2e18 <DAP_ExecuteCommand+0xb4>
    2dd2:	fd842583          	lw	a1,-40(s0)
    2dd6:	fdc42503          	lw	a0,-36(s0)
    2dda:	3b61                	jal	2b72 <DAP_ProcessCommand>
    2ddc:	fea42223          	sw	a0,-28(s0)
    2de0:	fe842703          	lw	a4,-24(s0)
    2de4:	fe442783          	lw	a5,-28(s0)
    2de8:	97ba                	add	a5,a5,a4
    2dea:	fef42423          	sw	a5,-24(s0)
    2dee:	fe442783          	lw	a5,-28(s0)
    2df2:	83c1                	srli	a5,a5,0x10
    2df4:	07c2                	slli	a5,a5,0x10
    2df6:	83c1                	srli	a5,a5,0x10
    2df8:	873e                	mv	a4,a5
    2dfa:	fdc42783          	lw	a5,-36(s0)
    2dfe:	97ba                	add	a5,a5,a4
    2e00:	fcf42e23          	sw	a5,-36(s0)
    2e04:	fe442783          	lw	a5,-28(s0)
    2e08:	07c2                	slli	a5,a5,0x10
    2e0a:	83c1                	srli	a5,a5,0x10
    2e0c:	873e                	mv	a4,a5
    2e0e:	fd842783          	lw	a5,-40(s0)
    2e12:	97ba                	add	a5,a5,a4
    2e14:	fcf42c23          	sw	a5,-40(s0)
    2e18:	fec42783          	lw	a5,-20(s0)
    2e1c:	fff78713          	addi	a4,a5,-1
    2e20:	fee42623          	sw	a4,-20(s0)
    2e24:	f7dd                	bnez	a5,2dd2 <DAP_ExecuteCommand+0x6e>
    2e26:	fe842783          	lw	a5,-24(s0)
    2e2a:	a039                	j	2e38 <DAP_ExecuteCommand+0xd4>
    2e2c:	fd842583          	lw	a1,-40(s0)
    2e30:	fdc42503          	lw	a0,-36(s0)
    2e34:	3b3d                	jal	2b72 <DAP_ProcessCommand>
    2e36:	87aa                	mv	a5,a0
    2e38:	853e                	mv	a0,a5
    2e3a:	50b2                	lw	ra,44(sp)
    2e3c:	5422                	lw	s0,40(sp)
    2e3e:	6145                	addi	sp,sp,48
    2e40:	8082                	ret

00002e42 <DAP_Setup>:
    2e42:	1141                	addi	sp,sp,-16
    2e44:	c606                	sw	ra,12(sp)
    2e46:	c422                	sw	s0,8(sp)
    2e48:	0800                	addi	s0,sp,16
    2e4a:	200067b7          	lui	a5,0x20006
    2e4e:	5f878793          	addi	a5,a5,1528 # 200065f8 <DAP_Data>
    2e52:	00078023          	sb	zero,0(a5)
    2e56:	200067b7          	lui	a5,0x20006
    2e5a:	5f878793          	addi	a5,a5,1528 # 200065f8 <DAP_Data>
    2e5e:	00078623          	sb	zero,12(a5)
    2e62:	200067b7          	lui	a5,0x20006
    2e66:	5f878793          	addi	a5,a5,1528 # 200065f8 <DAP_Data>
    2e6a:	06400713          	li	a4,100
    2e6e:	ab9a                	.2byte	0xab9a
    2e70:	200067b7          	lui	a5,0x20006
    2e74:	5f878793          	addi	a5,a5,1528 # 200065f8 <DAP_Data>
    2e78:	00079923          	sh	zero,18(a5)
    2e7c:	200067b7          	lui	a5,0x20006
    2e80:	5f878793          	addi	a5,a5,1528 # 200065f8 <DAP_Data>
    2e84:	0007aa23          	sw	zero,20(a5)
    2e88:	200067b7          	lui	a5,0x20006
    2e8c:	5f878793          	addi	a5,a5,1528 # 200065f8 <DAP_Data>
    2e90:	4705                	li	a4,1
    2e92:	af98                	.2byte	0xaf98
    2e94:	200067b7          	lui	a5,0x20006
    2e98:	5f878793          	addi	a5,a5,1528 # 200065f8 <DAP_Data>
    2e9c:	00078ca3          	sb	zero,25(a5)
    2ea0:	200067b7          	lui	a5,0x20006
    2ea4:	5f878793          	addi	a5,a5,1528 # 200065f8 <DAP_Data>
    2ea8:	00078d23          	sb	zero,26(a5)
    2eac:	000f47b7          	lui	a5,0xf4
    2eb0:	24078513          	addi	a0,a5,576 # f4240 <_data_lma+0xe6470>
    2eb4:	fc2fd0ef          	jal	ra,676 <Set_Clock_Delay>
    2eb8:	f54fd0ef          	jal	ra,60c <DAP_SETUP>
    2ebc:	0001                	nop
    2ebe:	40b2                	lw	ra,12(sp)
    2ec0:	4422                	lw	s0,8(sp)
    2ec2:	0141                	addi	sp,sp,16
    2ec4:	8082                	ret

00002ec6 <DAP_ProcessVendorCommand>:
    2ec6:	7179                	addi	sp,sp,-48
    2ec8:	d622                	sw	s0,44(sp)
    2eca:	1800                	addi	s0,sp,48
    2ecc:	fca42e23          	sw	a0,-36(s0)
    2ed0:	fcb42c23          	sw	a1,-40(s0)
    2ed4:	67c1                	lui	a5,0x10
    2ed6:	0785                	addi	a5,a5,1 # 10001 <_data_lma+0x2231>
    2ed8:	fef42623          	sw	a5,-20(s0)
    2edc:	fd842783          	lw	a5,-40(s0)
    2ee0:	00178713          	addi	a4,a5,1
    2ee4:	fce42c23          	sw	a4,-40(s0)
    2ee8:	fdc42703          	lw	a4,-36(s0)
    2eec:	2318                	.2byte	0x2318
    2eee:	a398                	.2byte	0xa398
    2ef0:	fdc42783          	lw	a5,-36(s0)
    2ef4:	00178713          	addi	a4,a5,1
    2ef8:	fce42e23          	sw	a4,-36(s0)
    2efc:	239c                	.2byte	0x239c
    2efe:	f8078793          	addi	a5,a5,-128
    2f02:	477d                	li	a4,31
    2f04:	00f76b63          	bltu	a4,a5,2f1a <DAP_ProcessVendorCommand+0x54>
    2f08:	00279713          	slli	a4,a5,0x2
    2f0c:	67b9                	lui	a5,0xe
    2f0e:	b6078793          	addi	a5,a5,-1184 # db60 <__retarget_lock_release_recursive+0xf4>
    2f12:	97ba                	add	a5,a5,a4
    2f14:	439c                	lw	a5,0(a5)
    2f16:	8782                	jr	a5
    2f18:	0001                	nop
    2f1a:	fec42783          	lw	a5,-20(s0)
    2f1e:	853e                	mv	a0,a5
    2f20:	5432                	lw	s0,44(sp)
    2f22:	6145                	addi	sp,sp,48
    2f24:	8082                	ret

00002f26 <TIMESTAMP_GET>:
    2f26:	1141                	addi	sp,sp,-16
    2f28:	c622                	sw	s0,12(sp)
    2f2a:	0800                	addi	s0,sp,16
    2f2c:	4781                	li	a5,0
    2f2e:	853e                	mv	a0,a5
    2f30:	4432                	lw	s0,12(sp)
    2f32:	0141                	addi	sp,sp,16
    2f34:	8082                	ret

00002f36 <JTAG_Sequence>:
    2f36:	715d                	addi	sp,sp,-80
    2f38:	c6a2                	sw	s0,76(sp)
    2f3a:	0880                	addi	s0,sp,80
    2f3c:	faa42e23          	sw	a0,-68(s0)
    2f40:	fab42c23          	sw	a1,-72(s0)
    2f44:	fac42a23          	sw	a2,-76(s0)
    2f48:	fbc42783          	lw	a5,-68(s0)
    2f4c:	03f7f793          	andi	a5,a5,63
    2f50:	fef42223          	sw	a5,-28(s0)
    2f54:	fe442783          	lw	a5,-28(s0)
    2f58:	e789                	bnez	a5,2f62 <JTAG_Sequence+0x2c>
    2f5a:	04000793          	li	a5,64
    2f5e:	fef42223          	sw	a5,-28(s0)
    2f62:	fbc42783          	lw	a5,-68(s0)
    2f66:	0407f793          	andi	a5,a5,64
    2f6a:	cb81                	beqz	a5,2f7a <JTAG_Sequence+0x44>
    2f6c:	400117b7          	lui	a5,0x40011
    2f70:	80078793          	addi	a5,a5,-2048 # 40010800 <_eusrstack+0x20008800>
    2f74:	6709                	lui	a4,0x2
    2f76:	cb98                	sw	a4,16(a5)
    2f78:	a801                	j	2f88 <JTAG_Sequence+0x52>
    2f7a:	400117b7          	lui	a5,0x40011
    2f7e:	80078793          	addi	a5,a5,-2048 # 40010800 <_eusrstack+0x20008800>
    2f82:	6709                	lui	a4,0x2
    2f84:	cbd8                	sw	a4,20(a5)
    2f86:	0001                	nop
    2f88:	a2a9                	j	30d2 <JTAG_Sequence+0x19c>
    2f8a:	fb842783          	lw	a5,-72(s0)
    2f8e:	00178713          	addi	a4,a5,1
    2f92:	fae42c23          	sw	a4,-72(s0)
    2f96:	239c                	.2byte	0x239c
    2f98:	fef42623          	sw	a5,-20(s0)
    2f9c:	fe042423          	sw	zero,-24(s0)
    2fa0:	47a1                	li	a5,8
    2fa2:	fef42023          	sw	a5,-32(s0)
    2fa6:	a8c5                	j	3096 <JTAG_Sequence+0x160>
    2fa8:	fec42783          	lw	a5,-20(s0)
    2fac:	fcf42423          	sw	a5,-56(s0)
    2fb0:	fc842783          	lw	a5,-56(s0)
    2fb4:	8b85                	andi	a5,a5,1
    2fb6:	cb81                	beqz	a5,2fc6 <JTAG_Sequence+0x90>
    2fb8:	400117b7          	lui	a5,0x40011
    2fbc:	c0078793          	addi	a5,a5,-1024 # 40010c00 <_eusrstack+0x20008c00>
    2fc0:	6721                	lui	a4,0x8
    2fc2:	cb98                	sw	a4,16(a5)
    2fc4:	a039                	j	2fd2 <JTAG_Sequence+0x9c>
    2fc6:	400117b7          	lui	a5,0x40011
    2fca:	c0078793          	addi	a5,a5,-1024 # 40010c00 <_eusrstack+0x20008c00>
    2fce:	6721                	lui	a4,0x8
    2fd0:	cbd8                	sw	a4,20(a5)
    2fd2:	0001                	nop
    2fd4:	400117b7          	lui	a5,0x40011
    2fd8:	80078793          	addi	a5,a5,-2048 # 40010800 <_eusrstack+0x20008800>
    2fdc:	6711                	lui	a4,0x4
    2fde:	cbd8                	sw	a4,20(a5)
    2fe0:	0001                	nop
    2fe2:	200067b7          	lui	a5,0x20006
    2fe6:	5f878793          	addi	a5,a5,1528 # 200065f8 <DAP_Data>
    2fea:	43dc                	lw	a5,4(a5)
    2fec:	fcf42823          	sw	a5,-48(s0)
    2ff0:	fd042783          	lw	a5,-48(s0)
    2ff4:	fcf42623          	sw	a5,-52(s0)
    2ff8:	0001                	nop
    2ffa:	fcc42783          	lw	a5,-52(s0)
    2ffe:	17fd                	addi	a5,a5,-1
    3000:	fcf42623          	sw	a5,-52(s0)
    3004:	fcc42783          	lw	a5,-52(s0)
    3008:	fbed                	bnez	a5,2ffa <JTAG_Sequence+0xc4>
    300a:	0001                	nop
    300c:	400117b7          	lui	a5,0x40011
    3010:	c0078793          	addi	a5,a5,-1024 # 40010c00 <_eusrstack+0x20008c00>
    3014:	4798                	lw	a4,8(a5)
    3016:	6791                	lui	a5,0x4
    3018:	8ff9                	and	a5,a5,a4
    301a:	00f037b3          	snez	a5,a5
    301e:	0ff7f793          	zext.b	a5,a5
    3022:	fcf42e23          	sw	a5,-36(s0)
    3026:	400117b7          	lui	a5,0x40011
    302a:	80078793          	addi	a5,a5,-2048 # 40010800 <_eusrstack+0x20008800>
    302e:	6711                	lui	a4,0x4
    3030:	cb98                	sw	a4,16(a5)
    3032:	0001                	nop
    3034:	200067b7          	lui	a5,0x20006
    3038:	5f878793          	addi	a5,a5,1528 # 200065f8 <DAP_Data>
    303c:	43dc                	lw	a5,4(a5)
    303e:	fcf42c23          	sw	a5,-40(s0)
    3042:	fd842783          	lw	a5,-40(s0)
    3046:	fcf42a23          	sw	a5,-44(s0)
    304a:	0001                	nop
    304c:	fd442783          	lw	a5,-44(s0)
    3050:	17fd                	addi	a5,a5,-1
    3052:	fcf42a23          	sw	a5,-44(s0)
    3056:	fd442783          	lw	a5,-44(s0)
    305a:	fbed                	bnez	a5,304c <JTAG_Sequence+0x116>
    305c:	0001                	nop
    305e:	fec42783          	lw	a5,-20(s0)
    3062:	8385                	srli	a5,a5,0x1
    3064:	fef42623          	sw	a5,-20(s0)
    3068:	fe842783          	lw	a5,-24(s0)
    306c:	8385                	srli	a5,a5,0x1
    306e:	fef42423          	sw	a5,-24(s0)
    3072:	fdc42783          	lw	a5,-36(s0)
    3076:	079e                	slli	a5,a5,0x7
    3078:	fe842703          	lw	a4,-24(s0)
    307c:	8fd9                	or	a5,a5,a4
    307e:	fef42423          	sw	a5,-24(s0)
    3082:	fe042783          	lw	a5,-32(s0)
    3086:	17fd                	addi	a5,a5,-1
    3088:	fef42023          	sw	a5,-32(s0)
    308c:	fe442783          	lw	a5,-28(s0)
    3090:	17fd                	addi	a5,a5,-1
    3092:	fef42223          	sw	a5,-28(s0)
    3096:	fe042783          	lw	a5,-32(s0)
    309a:	c781                	beqz	a5,30a2 <JTAG_Sequence+0x16c>
    309c:	fe442783          	lw	a5,-28(s0)
    30a0:	f781                	bnez	a5,2fa8 <JTAG_Sequence+0x72>
    30a2:	fe042783          	lw	a5,-32(s0)
    30a6:	fe842703          	lw	a4,-24(s0)
    30aa:	00f757b3          	srl	a5,a4,a5
    30ae:	fef42423          	sw	a5,-24(s0)
    30b2:	fbc42783          	lw	a5,-68(s0)
    30b6:	0807f793          	andi	a5,a5,128
    30ba:	cf81                	beqz	a5,30d2 <JTAG_Sequence+0x19c>
    30bc:	fb442783          	lw	a5,-76(s0)
    30c0:	00178713          	addi	a4,a5,1
    30c4:	fae42a23          	sw	a4,-76(s0)
    30c8:	fe842703          	lw	a4,-24(s0)
    30cc:	0ff77713          	zext.b	a4,a4
    30d0:	a398                	.2byte	0xa398
    30d2:	fe442783          	lw	a5,-28(s0)
    30d6:	ea079ae3          	bnez	a5,2f8a <JTAG_Sequence+0x54>
    30da:	0001                	nop
    30dc:	0001                	nop
    30de:	4436                	lw	s0,76(sp)
    30e0:	6161                	addi	sp,sp,80
    30e2:	8082                	ret

000030e4 <JTAG_IR_Fast>:
    30e4:	7139                	addi	sp,sp,-64
    30e6:	de22                	sw	s0,60(sp)
    30e8:	0080                	addi	s0,sp,64
    30ea:	fca42623          	sw	a0,-52(s0)
    30ee:	400117b7          	lui	a5,0x40011
    30f2:	80078793          	addi	a5,a5,-2048 # 40010800 <_eusrstack+0x20008800>
    30f6:	6709                	lui	a4,0x2
    30f8:	cb98                	sw	a4,16(a5)
    30fa:	0001                	nop
    30fc:	400117b7          	lui	a5,0x40011
    3100:	80078793          	addi	a5,a5,-2048 # 40010800 <_eusrstack+0x20008800>
    3104:	6711                	lui	a4,0x4
    3106:	cbd8                	sw	a4,20(a5)
    3108:	0001                	nop
    310a:	0001                	nop
    310c:	400117b7          	lui	a5,0x40011
    3110:	80078793          	addi	a5,a5,-2048 # 40010800 <_eusrstack+0x20008800>
    3114:	6711                	lui	a4,0x4
    3116:	cb98                	sw	a4,16(a5)
    3118:	0001                	nop
    311a:	0001                	nop
    311c:	400117b7          	lui	a5,0x40011
    3120:	80078793          	addi	a5,a5,-2048 # 40010800 <_eusrstack+0x20008800>
    3124:	6711                	lui	a4,0x4
    3126:	cbd8                	sw	a4,20(a5)
    3128:	0001                	nop
    312a:	0001                	nop
    312c:	400117b7          	lui	a5,0x40011
    3130:	80078793          	addi	a5,a5,-2048 # 40010800 <_eusrstack+0x20008800>
    3134:	6711                	lui	a4,0x4
    3136:	cb98                	sw	a4,16(a5)
    3138:	0001                	nop
    313a:	0001                	nop
    313c:	400117b7          	lui	a5,0x40011
    3140:	80078793          	addi	a5,a5,-2048 # 40010800 <_eusrstack+0x20008800>
    3144:	6709                	lui	a4,0x2
    3146:	cbd8                	sw	a4,20(a5)
    3148:	0001                	nop
    314a:	400117b7          	lui	a5,0x40011
    314e:	80078793          	addi	a5,a5,-2048 # 40010800 <_eusrstack+0x20008800>
    3152:	6711                	lui	a4,0x4
    3154:	cbd8                	sw	a4,20(a5)
    3156:	0001                	nop
    3158:	0001                	nop
    315a:	400117b7          	lui	a5,0x40011
    315e:	80078793          	addi	a5,a5,-2048 # 40010800 <_eusrstack+0x20008800>
    3162:	6711                	lui	a4,0x4
    3164:	cb98                	sw	a4,16(a5)
    3166:	0001                	nop
    3168:	0001                	nop
    316a:	400117b7          	lui	a5,0x40011
    316e:	80078793          	addi	a5,a5,-2048 # 40010800 <_eusrstack+0x20008800>
    3172:	6711                	lui	a4,0x4
    3174:	cbd8                	sw	a4,20(a5)
    3176:	0001                	nop
    3178:	0001                	nop
    317a:	400117b7          	lui	a5,0x40011
    317e:	80078793          	addi	a5,a5,-2048 # 40010800 <_eusrstack+0x20008800>
    3182:	6711                	lui	a4,0x4
    3184:	cb98                	sw	a4,16(a5)
    3186:	0001                	nop
    3188:	0001                	nop
    318a:	4785                	li	a5,1
    318c:	fef42423          	sw	a5,-24(s0)
    3190:	fe842783          	lw	a5,-24(s0)
    3194:	8b85                	andi	a5,a5,1
    3196:	cb81                	beqz	a5,31a6 <JTAG_IR_Fast+0xc2>
    3198:	400117b7          	lui	a5,0x40011
    319c:	c0078793          	addi	a5,a5,-1024 # 40010c00 <_eusrstack+0x20008c00>
    31a0:	6721                	lui	a4,0x8
    31a2:	cb98                	sw	a4,16(a5)
    31a4:	a039                	j	31b2 <JTAG_IR_Fast+0xce>
    31a6:	400117b7          	lui	a5,0x40011
    31aa:	c0078793          	addi	a5,a5,-1024 # 40010c00 <_eusrstack+0x20008c00>
    31ae:	6721                	lui	a4,0x8
    31b0:	cbd8                	sw	a4,20(a5)
    31b2:	0001                	nop
    31b4:	200067b7          	lui	a5,0x20006
    31b8:	5f878793          	addi	a5,a5,1528 # 200065f8 <DAP_Data>
    31bc:	3fbc                	.2byte	0x3fbc
    31be:	86be                	mv	a3,a5
    31c0:	200067b7          	lui	a5,0x20006
    31c4:	5f878713          	addi	a4,a5,1528 # 200065f8 <DAP_Data>
    31c8:	00868793          	addi	a5,a3,8
    31cc:	0786                	slli	a5,a5,0x1
    31ce:	97ba                	add	a5,a5,a4
    31d0:	2bde                	.2byte	0x2bde
    31d2:	fef42623          	sw	a5,-20(s0)
    31d6:	a035                	j	3202 <JTAG_IR_Fast+0x11e>
    31d8:	400117b7          	lui	a5,0x40011
    31dc:	80078793          	addi	a5,a5,-2048 # 40010800 <_eusrstack+0x20008800>
    31e0:	6711                	lui	a4,0x4
    31e2:	cbd8                	sw	a4,20(a5)
    31e4:	0001                	nop
    31e6:	0001                	nop
    31e8:	400117b7          	lui	a5,0x40011
    31ec:	80078793          	addi	a5,a5,-2048 # 40010800 <_eusrstack+0x20008800>
    31f0:	6711                	lui	a4,0x4
    31f2:	cb98                	sw	a4,16(a5)
    31f4:	0001                	nop
    31f6:	0001                	nop
    31f8:	fec42783          	lw	a5,-20(s0)
    31fc:	17fd                	addi	a5,a5,-1
    31fe:	fef42623          	sw	a5,-20(s0)
    3202:	fec42783          	lw	a5,-20(s0)
    3206:	fbe9                	bnez	a5,31d8 <JTAG_IR_Fast+0xf4>
    3208:	200067b7          	lui	a5,0x20006
    320c:	5f878793          	addi	a5,a5,1528 # 200065f8 <DAP_Data>
    3210:	3fbc                	.2byte	0x3fbc
    3212:	873e                	mv	a4,a5
    3214:	200067b7          	lui	a5,0x20006
    3218:	5f878793          	addi	a5,a5,1528 # 200065f8 <DAP_Data>
    321c:	97ba                	add	a5,a5,a4
    321e:	2fdc                	.2byte	0x2fdc
    3220:	17fd                	addi	a5,a5,-1
    3222:	fef42623          	sw	a5,-20(s0)
    3226:	a08d                	j	3288 <JTAG_IR_Fast+0x1a4>
    3228:	fcc42783          	lw	a5,-52(s0)
    322c:	fef42223          	sw	a5,-28(s0)
    3230:	fe442783          	lw	a5,-28(s0)
    3234:	8b85                	andi	a5,a5,1
    3236:	cb81                	beqz	a5,3246 <JTAG_IR_Fast+0x162>
    3238:	400117b7          	lui	a5,0x40011
    323c:	c0078793          	addi	a5,a5,-1024 # 40010c00 <_eusrstack+0x20008c00>
    3240:	6721                	lui	a4,0x8
    3242:	cb98                	sw	a4,16(a5)
    3244:	a039                	j	3252 <JTAG_IR_Fast+0x16e>
    3246:	400117b7          	lui	a5,0x40011
    324a:	c0078793          	addi	a5,a5,-1024 # 40010c00 <_eusrstack+0x20008c00>
    324e:	6721                	lui	a4,0x8
    3250:	cbd8                	sw	a4,20(a5)
    3252:	0001                	nop
    3254:	400117b7          	lui	a5,0x40011
    3258:	80078793          	addi	a5,a5,-2048 # 40010800 <_eusrstack+0x20008800>
    325c:	6711                	lui	a4,0x4
    325e:	cbd8                	sw	a4,20(a5)
    3260:	0001                	nop
    3262:	0001                	nop
    3264:	400117b7          	lui	a5,0x40011
    3268:	80078793          	addi	a5,a5,-2048 # 40010800 <_eusrstack+0x20008800>
    326c:	6711                	lui	a4,0x4
    326e:	cb98                	sw	a4,16(a5)
    3270:	0001                	nop
    3272:	0001                	nop
    3274:	fcc42783          	lw	a5,-52(s0)
    3278:	8385                	srli	a5,a5,0x1
    327a:	fcf42623          	sw	a5,-52(s0)
    327e:	fec42783          	lw	a5,-20(s0)
    3282:	17fd                	addi	a5,a5,-1
    3284:	fef42623          	sw	a5,-20(s0)
    3288:	fec42783          	lw	a5,-20(s0)
    328c:	ffd1                	bnez	a5,3228 <JTAG_IR_Fast+0x144>
    328e:	200067b7          	lui	a5,0x20006
    3292:	5f878793          	addi	a5,a5,1528 # 200065f8 <DAP_Data>
    3296:	3fbc                	.2byte	0x3fbc
    3298:	86be                	mv	a3,a5
    329a:	200067b7          	lui	a5,0x20006
    329e:	5f878713          	addi	a4,a5,1528 # 200065f8 <DAP_Data>
    32a2:	01068793          	addi	a5,a3,16
    32a6:	0786                	slli	a5,a5,0x1
    32a8:	97ba                	add	a5,a5,a4
    32aa:	2bde                	.2byte	0x2bde
    32ac:	fef42623          	sw	a5,-20(s0)
    32b0:	fec42783          	lw	a5,-20(s0)
    32b4:	c3ed                	beqz	a5,3396 <JTAG_IR_Fast+0x2b2>
    32b6:	fcc42783          	lw	a5,-52(s0)
    32ba:	fcf42e23          	sw	a5,-36(s0)
    32be:	fdc42783          	lw	a5,-36(s0)
    32c2:	8b85                	andi	a5,a5,1
    32c4:	cb81                	beqz	a5,32d4 <JTAG_IR_Fast+0x1f0>
    32c6:	400117b7          	lui	a5,0x40011
    32ca:	c0078793          	addi	a5,a5,-1024 # 40010c00 <_eusrstack+0x20008c00>
    32ce:	6721                	lui	a4,0x8
    32d0:	cb98                	sw	a4,16(a5)
    32d2:	a039                	j	32e0 <JTAG_IR_Fast+0x1fc>
    32d4:	400117b7          	lui	a5,0x40011
    32d8:	c0078793          	addi	a5,a5,-1024 # 40010c00 <_eusrstack+0x20008c00>
    32dc:	6721                	lui	a4,0x8
    32de:	cbd8                	sw	a4,20(a5)
    32e0:	0001                	nop
    32e2:	400117b7          	lui	a5,0x40011
    32e6:	80078793          	addi	a5,a5,-2048 # 40010800 <_eusrstack+0x20008800>
    32ea:	6711                	lui	a4,0x4
    32ec:	cbd8                	sw	a4,20(a5)
    32ee:	0001                	nop
    32f0:	0001                	nop
    32f2:	400117b7          	lui	a5,0x40011
    32f6:	80078793          	addi	a5,a5,-2048 # 40010800 <_eusrstack+0x20008800>
    32fa:	6711                	lui	a4,0x4
    32fc:	cb98                	sw	a4,16(a5)
    32fe:	0001                	nop
    3300:	0001                	nop
    3302:	4785                	li	a5,1
    3304:	fef42023          	sw	a5,-32(s0)
    3308:	fe042783          	lw	a5,-32(s0)
    330c:	8b85                	andi	a5,a5,1
    330e:	cb81                	beqz	a5,331e <JTAG_IR_Fast+0x23a>
    3310:	400117b7          	lui	a5,0x40011
    3314:	c0078793          	addi	a5,a5,-1024 # 40010c00 <_eusrstack+0x20008c00>
    3318:	6721                	lui	a4,0x8
    331a:	cb98                	sw	a4,16(a5)
    331c:	a039                	j	332a <JTAG_IR_Fast+0x246>
    331e:	400117b7          	lui	a5,0x40011
    3322:	c0078793          	addi	a5,a5,-1024 # 40010c00 <_eusrstack+0x20008c00>
    3326:	6721                	lui	a4,0x8
    3328:	cbd8                	sw	a4,20(a5)
    332a:	0001                	nop
    332c:	fec42783          	lw	a5,-20(s0)
    3330:	17fd                	addi	a5,a5,-1
    3332:	fef42623          	sw	a5,-20(s0)
    3336:	a035                	j	3362 <JTAG_IR_Fast+0x27e>
    3338:	400117b7          	lui	a5,0x40011
    333c:	80078793          	addi	a5,a5,-2048 # 40010800 <_eusrstack+0x20008800>
    3340:	6711                	lui	a4,0x4
    3342:	cbd8                	sw	a4,20(a5)
    3344:	0001                	nop
    3346:	0001                	nop
    3348:	400117b7          	lui	a5,0x40011
    334c:	80078793          	addi	a5,a5,-2048 # 40010800 <_eusrstack+0x20008800>
    3350:	6711                	lui	a4,0x4
    3352:	cb98                	sw	a4,16(a5)
    3354:	0001                	nop
    3356:	0001                	nop
    3358:	fec42783          	lw	a5,-20(s0)
    335c:	17fd                	addi	a5,a5,-1
    335e:	fef42623          	sw	a5,-20(s0)
    3362:	fec42783          	lw	a5,-20(s0)
    3366:	fbe9                	bnez	a5,3338 <JTAG_IR_Fast+0x254>
    3368:	400117b7          	lui	a5,0x40011
    336c:	80078793          	addi	a5,a5,-2048 # 40010800 <_eusrstack+0x20008800>
    3370:	6709                	lui	a4,0x2
    3372:	cb98                	sw	a4,16(a5)
    3374:	0001                	nop
    3376:	400117b7          	lui	a5,0x40011
    337a:	80078793          	addi	a5,a5,-2048 # 40010800 <_eusrstack+0x20008800>
    337e:	6711                	lui	a4,0x4
    3380:	cbd8                	sw	a4,20(a5)
    3382:	0001                	nop
    3384:	0001                	nop
    3386:	400117b7          	lui	a5,0x40011
    338a:	80078793          	addi	a5,a5,-2048 # 40010800 <_eusrstack+0x20008800>
    338e:	6711                	lui	a4,0x4
    3390:	cb98                	sw	a4,16(a5)
    3392:	0001                	nop
    3394:	a8b1                	j	33f0 <JTAG_IR_Fast+0x30c>
    3396:	400117b7          	lui	a5,0x40011
    339a:	80078793          	addi	a5,a5,-2048 # 40010800 <_eusrstack+0x20008800>
    339e:	6709                	lui	a4,0x2
    33a0:	cb98                	sw	a4,16(a5)
    33a2:	0001                	nop
    33a4:	fcc42783          	lw	a5,-52(s0)
    33a8:	fcf42c23          	sw	a5,-40(s0)
    33ac:	fd842783          	lw	a5,-40(s0)
    33b0:	8b85                	andi	a5,a5,1
    33b2:	cb81                	beqz	a5,33c2 <JTAG_IR_Fast+0x2de>
    33b4:	400117b7          	lui	a5,0x40011
    33b8:	c0078793          	addi	a5,a5,-1024 # 40010c00 <_eusrstack+0x20008c00>
    33bc:	6721                	lui	a4,0x8
    33be:	cb98                	sw	a4,16(a5)
    33c0:	a039                	j	33ce <JTAG_IR_Fast+0x2ea>
    33c2:	400117b7          	lui	a5,0x40011
    33c6:	c0078793          	addi	a5,a5,-1024 # 40010c00 <_eusrstack+0x20008c00>
    33ca:	6721                	lui	a4,0x8
    33cc:	cbd8                	sw	a4,20(a5)
    33ce:	0001                	nop
    33d0:	400117b7          	lui	a5,0x40011
    33d4:	80078793          	addi	a5,a5,-2048 # 40010800 <_eusrstack+0x20008800>
    33d8:	6711                	lui	a4,0x4
    33da:	cbd8                	sw	a4,20(a5)
    33dc:	0001                	nop
    33de:	0001                	nop
    33e0:	400117b7          	lui	a5,0x40011
    33e4:	80078793          	addi	a5,a5,-2048 # 40010800 <_eusrstack+0x20008800>
    33e8:	6711                	lui	a4,0x4
    33ea:	cb98                	sw	a4,16(a5)
    33ec:	0001                	nop
    33ee:	0001                	nop
    33f0:	400117b7          	lui	a5,0x40011
    33f4:	80078793          	addi	a5,a5,-2048 # 40010800 <_eusrstack+0x20008800>
    33f8:	6711                	lui	a4,0x4
    33fa:	cbd8                	sw	a4,20(a5)
    33fc:	0001                	nop
    33fe:	0001                	nop
    3400:	400117b7          	lui	a5,0x40011
    3404:	80078793          	addi	a5,a5,-2048 # 40010800 <_eusrstack+0x20008800>
    3408:	6711                	lui	a4,0x4
    340a:	cb98                	sw	a4,16(a5)
    340c:	0001                	nop
    340e:	0001                	nop
    3410:	400117b7          	lui	a5,0x40011
    3414:	80078793          	addi	a5,a5,-2048 # 40010800 <_eusrstack+0x20008800>
    3418:	6709                	lui	a4,0x2
    341a:	cbd8                	sw	a4,20(a5)
    341c:	0001                	nop
    341e:	400117b7          	lui	a5,0x40011
    3422:	80078793          	addi	a5,a5,-2048 # 40010800 <_eusrstack+0x20008800>
    3426:	6711                	lui	a4,0x4
    3428:	cbd8                	sw	a4,20(a5)
    342a:	0001                	nop
    342c:	0001                	nop
    342e:	400117b7          	lui	a5,0x40011
    3432:	80078793          	addi	a5,a5,-2048 # 40010800 <_eusrstack+0x20008800>
    3436:	6711                	lui	a4,0x4
    3438:	cb98                	sw	a4,16(a5)
    343a:	0001                	nop
    343c:	0001                	nop
    343e:	4785                	li	a5,1
    3440:	fcf42a23          	sw	a5,-44(s0)
    3444:	fd442783          	lw	a5,-44(s0)
    3448:	8b85                	andi	a5,a5,1
    344a:	cb81                	beqz	a5,345a <JTAG_IR_Fast+0x376>
    344c:	400117b7          	lui	a5,0x40011
    3450:	c0078793          	addi	a5,a5,-1024 # 40010c00 <_eusrstack+0x20008c00>
    3454:	6721                	lui	a4,0x8
    3456:	cb98                	sw	a4,16(a5)
    3458:	a039                	j	3466 <JTAG_IR_Fast+0x382>
    345a:	400117b7          	lui	a5,0x40011
    345e:	c0078793          	addi	a5,a5,-1024 # 40010c00 <_eusrstack+0x20008c00>
    3462:	6721                	lui	a4,0x8
    3464:	cbd8                	sw	a4,20(a5)
    3466:	0001                	nop
    3468:	0001                	nop
    346a:	5472                	lw	s0,60(sp)
    346c:	6121                	addi	sp,sp,64
    346e:	8082                	ret

00003470 <JTAG_TransferFast>:
    3470:	715d                	addi	sp,sp,-80
    3472:	c686                	sw	ra,76(sp)
    3474:	c4a2                	sw	s0,72(sp)
    3476:	0880                	addi	s0,sp,80
    3478:	faa42e23          	sw	a0,-68(s0)
    347c:	fab42c23          	sw	a1,-72(s0)
    3480:	400117b7          	lui	a5,0x40011
    3484:	80078793          	addi	a5,a5,-2048 # 40010800 <_eusrstack+0x20008800>
    3488:	6709                	lui	a4,0x2
    348a:	cb98                	sw	a4,16(a5)
    348c:	0001                	nop
    348e:	400117b7          	lui	a5,0x40011
    3492:	80078793          	addi	a5,a5,-2048 # 40010800 <_eusrstack+0x20008800>
    3496:	6711                	lui	a4,0x4
    3498:	cbd8                	sw	a4,20(a5)
    349a:	0001                	nop
    349c:	0001                	nop
    349e:	400117b7          	lui	a5,0x40011
    34a2:	80078793          	addi	a5,a5,-2048 # 40010800 <_eusrstack+0x20008800>
    34a6:	6711                	lui	a4,0x4
    34a8:	cb98                	sw	a4,16(a5)
    34aa:	0001                	nop
    34ac:	0001                	nop
    34ae:	400117b7          	lui	a5,0x40011
    34b2:	80078793          	addi	a5,a5,-2048 # 40010800 <_eusrstack+0x20008800>
    34b6:	6709                	lui	a4,0x2
    34b8:	cbd8                	sw	a4,20(a5)
    34ba:	0001                	nop
    34bc:	400117b7          	lui	a5,0x40011
    34c0:	80078793          	addi	a5,a5,-2048 # 40010800 <_eusrstack+0x20008800>
    34c4:	6711                	lui	a4,0x4
    34c6:	cbd8                	sw	a4,20(a5)
    34c8:	0001                	nop
    34ca:	0001                	nop
    34cc:	400117b7          	lui	a5,0x40011
    34d0:	80078793          	addi	a5,a5,-2048 # 40010800 <_eusrstack+0x20008800>
    34d4:	6711                	lui	a4,0x4
    34d6:	cb98                	sw	a4,16(a5)
    34d8:	0001                	nop
    34da:	0001                	nop
    34dc:	400117b7          	lui	a5,0x40011
    34e0:	80078793          	addi	a5,a5,-2048 # 40010800 <_eusrstack+0x20008800>
    34e4:	6711                	lui	a4,0x4
    34e6:	cbd8                	sw	a4,20(a5)
    34e8:	0001                	nop
    34ea:	0001                	nop
    34ec:	400117b7          	lui	a5,0x40011
    34f0:	80078793          	addi	a5,a5,-2048 # 40010800 <_eusrstack+0x20008800>
    34f4:	6711                	lui	a4,0x4
    34f6:	cb98                	sw	a4,16(a5)
    34f8:	0001                	nop
    34fa:	0001                	nop
    34fc:	200067b7          	lui	a5,0x20006
    3500:	5f878793          	addi	a5,a5,1528 # 200065f8 <DAP_Data>
    3504:	3fbc                	.2byte	0x3fbc
    3506:	fef42223          	sw	a5,-28(s0)
    350a:	a035                	j	3536 <JTAG_TransferFast+0xc6>
    350c:	400117b7          	lui	a5,0x40011
    3510:	80078793          	addi	a5,a5,-2048 # 40010800 <_eusrstack+0x20008800>
    3514:	6711                	lui	a4,0x4
    3516:	cbd8                	sw	a4,20(a5)
    3518:	0001                	nop
    351a:	0001                	nop
    351c:	400117b7          	lui	a5,0x40011
    3520:	80078793          	addi	a5,a5,-2048 # 40010800 <_eusrstack+0x20008800>
    3524:	6711                	lui	a4,0x4
    3526:	cb98                	sw	a4,16(a5)
    3528:	0001                	nop
    352a:	0001                	nop
    352c:	fe442783          	lw	a5,-28(s0)
    3530:	17fd                	addi	a5,a5,-1
    3532:	fef42223          	sw	a5,-28(s0)
    3536:	fe442783          	lw	a5,-28(s0)
    353a:	fbe9                	bnez	a5,350c <JTAG_TransferFast+0x9c>
    353c:	fbc42783          	lw	a5,-68(s0)
    3540:	8385                	srli	a5,a5,0x1
    3542:	fcf42a23          	sw	a5,-44(s0)
    3546:	fd442783          	lw	a5,-44(s0)
    354a:	8b85                	andi	a5,a5,1
    354c:	cb81                	beqz	a5,355c <JTAG_TransferFast+0xec>
    354e:	400117b7          	lui	a5,0x40011
    3552:	c0078793          	addi	a5,a5,-1024 # 40010c00 <_eusrstack+0x20008c00>
    3556:	6721                	lui	a4,0x8
    3558:	cb98                	sw	a4,16(a5)
    355a:	a039                	j	3568 <JTAG_TransferFast+0xf8>
    355c:	400117b7          	lui	a5,0x40011
    3560:	c0078793          	addi	a5,a5,-1024 # 40010c00 <_eusrstack+0x20008c00>
    3564:	6721                	lui	a4,0x8
    3566:	cbd8                	sw	a4,20(a5)
    3568:	0001                	nop
    356a:	400117b7          	lui	a5,0x40011
    356e:	80078793          	addi	a5,a5,-2048 # 40010800 <_eusrstack+0x20008800>
    3572:	6711                	lui	a4,0x4
    3574:	cbd8                	sw	a4,20(a5)
    3576:	0001                	nop
    3578:	0001                	nop
    357a:	400117b7          	lui	a5,0x40011
    357e:	c0078793          	addi	a5,a5,-1024 # 40010c00 <_eusrstack+0x20008c00>
    3582:	4798                	lw	a4,8(a5)
    3584:	6791                	lui	a5,0x4
    3586:	8ff9                	and	a5,a5,a4
    3588:	00f037b3          	snez	a5,a5
    358c:	0ff7f793          	zext.b	a5,a5
    3590:	fef42623          	sw	a5,-20(s0)
    3594:	400117b7          	lui	a5,0x40011
    3598:	80078793          	addi	a5,a5,-2048 # 40010800 <_eusrstack+0x20008800>
    359c:	6711                	lui	a4,0x4
    359e:	cb98                	sw	a4,16(a5)
    35a0:	0001                	nop
    35a2:	0001                	nop
    35a4:	fec42783          	lw	a5,-20(s0)
    35a8:	0786                	slli	a5,a5,0x1
    35aa:	fef42023          	sw	a5,-32(s0)
    35ae:	fbc42783          	lw	a5,-68(s0)
    35b2:	8389                	srli	a5,a5,0x2
    35b4:	fcf42c23          	sw	a5,-40(s0)
    35b8:	fd842783          	lw	a5,-40(s0)
    35bc:	8b85                	andi	a5,a5,1
    35be:	cb81                	beqz	a5,35ce <JTAG_TransferFast+0x15e>
    35c0:	400117b7          	lui	a5,0x40011
    35c4:	c0078793          	addi	a5,a5,-1024 # 40010c00 <_eusrstack+0x20008c00>
    35c8:	6721                	lui	a4,0x8
    35ca:	cb98                	sw	a4,16(a5)
    35cc:	a039                	j	35da <JTAG_TransferFast+0x16a>
    35ce:	400117b7          	lui	a5,0x40011
    35d2:	c0078793          	addi	a5,a5,-1024 # 40010c00 <_eusrstack+0x20008c00>
    35d6:	6721                	lui	a4,0x8
    35d8:	cbd8                	sw	a4,20(a5)
    35da:	0001                	nop
    35dc:	400117b7          	lui	a5,0x40011
    35e0:	80078793          	addi	a5,a5,-2048 # 40010800 <_eusrstack+0x20008800>
    35e4:	6711                	lui	a4,0x4
    35e6:	cbd8                	sw	a4,20(a5)
    35e8:	0001                	nop
    35ea:	0001                	nop
    35ec:	400117b7          	lui	a5,0x40011
    35f0:	c0078793          	addi	a5,a5,-1024 # 40010c00 <_eusrstack+0x20008c00>
    35f4:	4798                	lw	a4,8(a5)
    35f6:	6791                	lui	a5,0x4
    35f8:	8ff9                	and	a5,a5,a4
    35fa:	00f037b3          	snez	a5,a5
    35fe:	0ff7f793          	zext.b	a5,a5
    3602:	fef42623          	sw	a5,-20(s0)
    3606:	400117b7          	lui	a5,0x40011
    360a:	80078793          	addi	a5,a5,-2048 # 40010800 <_eusrstack+0x20008800>
    360e:	6711                	lui	a4,0x4
    3610:	cb98                	sw	a4,16(a5)
    3612:	0001                	nop
    3614:	0001                	nop
    3616:	fe042703          	lw	a4,-32(s0)
    361a:	fec42783          	lw	a5,-20(s0)
    361e:	8fd9                	or	a5,a5,a4
    3620:	fef42023          	sw	a5,-32(s0)
    3624:	fbc42783          	lw	a5,-68(s0)
    3628:	838d                	srli	a5,a5,0x3
    362a:	fcf42e23          	sw	a5,-36(s0)
    362e:	fdc42783          	lw	a5,-36(s0)
    3632:	8b85                	andi	a5,a5,1
    3634:	cb81                	beqz	a5,3644 <JTAG_TransferFast+0x1d4>
    3636:	400117b7          	lui	a5,0x40011
    363a:	c0078793          	addi	a5,a5,-1024 # 40010c00 <_eusrstack+0x20008c00>
    363e:	6721                	lui	a4,0x8
    3640:	cb98                	sw	a4,16(a5)
    3642:	a039                	j	3650 <JTAG_TransferFast+0x1e0>
    3644:	400117b7          	lui	a5,0x40011
    3648:	c0078793          	addi	a5,a5,-1024 # 40010c00 <_eusrstack+0x20008c00>
    364c:	6721                	lui	a4,0x8
    364e:	cbd8                	sw	a4,20(a5)
    3650:	0001                	nop
    3652:	400117b7          	lui	a5,0x40011
    3656:	80078793          	addi	a5,a5,-2048 # 40010800 <_eusrstack+0x20008800>
    365a:	6711                	lui	a4,0x4
    365c:	cbd8                	sw	a4,20(a5)
    365e:	0001                	nop
    3660:	0001                	nop
    3662:	400117b7          	lui	a5,0x40011
    3666:	c0078793          	addi	a5,a5,-1024 # 40010c00 <_eusrstack+0x20008c00>
    366a:	4798                	lw	a4,8(a5)
    366c:	6791                	lui	a5,0x4
    366e:	8ff9                	and	a5,a5,a4
    3670:	00f037b3          	snez	a5,a5
    3674:	0ff7f793          	zext.b	a5,a5
    3678:	fef42623          	sw	a5,-20(s0)
    367c:	400117b7          	lui	a5,0x40011
    3680:	80078793          	addi	a5,a5,-2048 # 40010800 <_eusrstack+0x20008800>
    3684:	6711                	lui	a4,0x4
    3686:	cb98                	sw	a4,16(a5)
    3688:	0001                	nop
    368a:	0001                	nop
    368c:	fec42783          	lw	a5,-20(s0)
    3690:	078a                	slli	a5,a5,0x2
    3692:	fe042703          	lw	a4,-32(s0)
    3696:	8fd9                	or	a5,a5,a4
    3698:	fef42023          	sw	a5,-32(s0)
    369c:	fe042703          	lw	a4,-32(s0)
    36a0:	4785                	li	a5,1
    36a2:	02f70a63          	beq	a4,a5,36d6 <JTAG_TransferFast+0x266>
    36a6:	400117b7          	lui	a5,0x40011
    36aa:	80078793          	addi	a5,a5,-2048 # 40010800 <_eusrstack+0x20008800>
    36ae:	6709                	lui	a4,0x2
    36b0:	cb98                	sw	a4,16(a5)
    36b2:	0001                	nop
    36b4:	400117b7          	lui	a5,0x40011
    36b8:	80078793          	addi	a5,a5,-2048 # 40010800 <_eusrstack+0x20008800>
    36bc:	6711                	lui	a4,0x4
    36be:	cbd8                	sw	a4,20(a5)
    36c0:	0001                	nop
    36c2:	0001                	nop
    36c4:	400117b7          	lui	a5,0x40011
    36c8:	80078793          	addi	a5,a5,-2048 # 40010800 <_eusrstack+0x20008800>
    36cc:	6711                	lui	a4,0x4
    36ce:	cb98                	sw	a4,16(a5)
    36d0:	0001                	nop
    36d2:	0001                	nop
    36d4:	a685                	j	3a34 <JTAG_TransferFast+0x5c4>
    36d6:	fbc42783          	lw	a5,-68(s0)
    36da:	8b89                	andi	a5,a5,2
    36dc:	1a078563          	beqz	a5,3886 <JTAG_TransferFast+0x416>
    36e0:	fe042423          	sw	zero,-24(s0)
    36e4:	47fd                	li	a5,31
    36e6:	fef42223          	sw	a5,-28(s0)
    36ea:	a085                	j	374a <JTAG_TransferFast+0x2da>
    36ec:	400117b7          	lui	a5,0x40011
    36f0:	80078793          	addi	a5,a5,-2048 # 40010800 <_eusrstack+0x20008800>
    36f4:	6711                	lui	a4,0x4
    36f6:	cbd8                	sw	a4,20(a5)
    36f8:	0001                	nop
    36fa:	0001                	nop
    36fc:	400117b7          	lui	a5,0x40011
    3700:	c0078793          	addi	a5,a5,-1024 # 40010c00 <_eusrstack+0x20008c00>
    3704:	4798                	lw	a4,8(a5)
    3706:	6791                	lui	a5,0x4
    3708:	8ff9                	and	a5,a5,a4
    370a:	00f037b3          	snez	a5,a5
    370e:	0ff7f793          	zext.b	a5,a5
    3712:	fef42623          	sw	a5,-20(s0)
    3716:	400117b7          	lui	a5,0x40011
    371a:	80078793          	addi	a5,a5,-2048 # 40010800 <_eusrstack+0x20008800>
    371e:	6711                	lui	a4,0x4
    3720:	cb98                	sw	a4,16(a5)
    3722:	0001                	nop
    3724:	0001                	nop
    3726:	fec42783          	lw	a5,-20(s0)
    372a:	07fe                	slli	a5,a5,0x1f
    372c:	fe842703          	lw	a4,-24(s0)
    3730:	8fd9                	or	a5,a5,a4
    3732:	fef42423          	sw	a5,-24(s0)
    3736:	fe842783          	lw	a5,-24(s0)
    373a:	8385                	srli	a5,a5,0x1
    373c:	fef42423          	sw	a5,-24(s0)
    3740:	fe442783          	lw	a5,-28(s0)
    3744:	17fd                	addi	a5,a5,-1
    3746:	fef42223          	sw	a5,-28(s0)
    374a:	fe442783          	lw	a5,-28(s0)
    374e:	ffd9                	bnez	a5,36ec <JTAG_TransferFast+0x27c>
    3750:	200067b7          	lui	a5,0x20006
    3754:	5f878793          	addi	a5,a5,1528 # 200065f8 <DAP_Data>
    3758:	2fbc                	.2byte	0x2fbc
    375a:	873e                	mv	a4,a5
    375c:	200067b7          	lui	a5,0x20006
    3760:	5f878793          	addi	a5,a5,1528 # 200065f8 <DAP_Data>
    3764:	3fbc                	.2byte	0x3fbc
    3766:	40f707b3          	sub	a5,a4,a5
    376a:	17fd                	addi	a5,a5,-1
    376c:	fef42223          	sw	a5,-28(s0)
    3770:	fe442783          	lw	a5,-28(s0)
    3774:	c3dd                	beqz	a5,381a <JTAG_TransferFast+0x3aa>
    3776:	400117b7          	lui	a5,0x40011
    377a:	80078793          	addi	a5,a5,-2048 # 40010800 <_eusrstack+0x20008800>
    377e:	6711                	lui	a4,0x4
    3780:	cbd8                	sw	a4,20(a5)
    3782:	0001                	nop
    3784:	0001                	nop
    3786:	400117b7          	lui	a5,0x40011
    378a:	c0078793          	addi	a5,a5,-1024 # 40010c00 <_eusrstack+0x20008c00>
    378e:	4798                	lw	a4,8(a5)
    3790:	6791                	lui	a5,0x4
    3792:	8ff9                	and	a5,a5,a4
    3794:	00f037b3          	snez	a5,a5
    3798:	0ff7f793          	zext.b	a5,a5
    379c:	fef42623          	sw	a5,-20(s0)
    37a0:	400117b7          	lui	a5,0x40011
    37a4:	80078793          	addi	a5,a5,-2048 # 40010800 <_eusrstack+0x20008800>
    37a8:	6711                	lui	a4,0x4
    37aa:	cb98                	sw	a4,16(a5)
    37ac:	0001                	nop
    37ae:	0001                	nop
    37b0:	fe442783          	lw	a5,-28(s0)
    37b4:	17fd                	addi	a5,a5,-1
    37b6:	fef42223          	sw	a5,-28(s0)
    37ba:	a035                	j	37e6 <JTAG_TransferFast+0x376>
    37bc:	400117b7          	lui	a5,0x40011
    37c0:	80078793          	addi	a5,a5,-2048 # 40010800 <_eusrstack+0x20008800>
    37c4:	6711                	lui	a4,0x4
    37c6:	cbd8                	sw	a4,20(a5)
    37c8:	0001                	nop
    37ca:	0001                	nop
    37cc:	400117b7          	lui	a5,0x40011
    37d0:	80078793          	addi	a5,a5,-2048 # 40010800 <_eusrstack+0x20008800>
    37d4:	6711                	lui	a4,0x4
    37d6:	cb98                	sw	a4,16(a5)
    37d8:	0001                	nop
    37da:	0001                	nop
    37dc:	fe442783          	lw	a5,-28(s0)
    37e0:	17fd                	addi	a5,a5,-1
    37e2:	fef42223          	sw	a5,-28(s0)
    37e6:	fe442783          	lw	a5,-28(s0)
    37ea:	fbe9                	bnez	a5,37bc <JTAG_TransferFast+0x34c>
    37ec:	400117b7          	lui	a5,0x40011
    37f0:	80078793          	addi	a5,a5,-2048 # 40010800 <_eusrstack+0x20008800>
    37f4:	6709                	lui	a4,0x2
    37f6:	cb98                	sw	a4,16(a5)
    37f8:	0001                	nop
    37fa:	400117b7          	lui	a5,0x40011
    37fe:	80078793          	addi	a5,a5,-2048 # 40010800 <_eusrstack+0x20008800>
    3802:	6711                	lui	a4,0x4
    3804:	cbd8                	sw	a4,20(a5)
    3806:	0001                	nop
    3808:	0001                	nop
    380a:	400117b7          	lui	a5,0x40011
    380e:	80078793          	addi	a5,a5,-2048 # 40010800 <_eusrstack+0x20008800>
    3812:	6711                	lui	a4,0x4
    3814:	cb98                	sw	a4,16(a5)
    3816:	0001                	nop
    3818:	a0a9                	j	3862 <JTAG_TransferFast+0x3f2>
    381a:	400117b7          	lui	a5,0x40011
    381e:	80078793          	addi	a5,a5,-2048 # 40010800 <_eusrstack+0x20008800>
    3822:	6709                	lui	a4,0x2
    3824:	cb98                	sw	a4,16(a5)
    3826:	0001                	nop
    3828:	400117b7          	lui	a5,0x40011
    382c:	80078793          	addi	a5,a5,-2048 # 40010800 <_eusrstack+0x20008800>
    3830:	6711                	lui	a4,0x4
    3832:	cbd8                	sw	a4,20(a5)
    3834:	0001                	nop
    3836:	0001                	nop
    3838:	400117b7          	lui	a5,0x40011
    383c:	c0078793          	addi	a5,a5,-1024 # 40010c00 <_eusrstack+0x20008c00>
    3840:	4798                	lw	a4,8(a5)
    3842:	6791                	lui	a5,0x4
    3844:	8ff9                	and	a5,a5,a4
    3846:	00f037b3          	snez	a5,a5
    384a:	0ff7f793          	zext.b	a5,a5
    384e:	fef42623          	sw	a5,-20(s0)
    3852:	400117b7          	lui	a5,0x40011
    3856:	80078793          	addi	a5,a5,-2048 # 40010800 <_eusrstack+0x20008800>
    385a:	6711                	lui	a4,0x4
    385c:	cb98                	sw	a4,16(a5)
    385e:	0001                	nop
    3860:	0001                	nop
    3862:	fec42783          	lw	a5,-20(s0)
    3866:	07fe                	slli	a5,a5,0x1f
    3868:	fe842703          	lw	a4,-24(s0)
    386c:	8fd9                	or	a5,a5,a4
    386e:	fef42423          	sw	a5,-24(s0)
    3872:	fb842783          	lw	a5,-72(s0)
    3876:	1a078f63          	beqz	a5,3a34 <JTAG_TransferFast+0x5c4>
    387a:	fb842783          	lw	a5,-72(s0)
    387e:	fe842703          	lw	a4,-24(s0)
    3882:	c398                	sw	a4,0(a5)
    3884:	aa45                	j	3a34 <JTAG_TransferFast+0x5c4>
    3886:	fb842783          	lw	a5,-72(s0)
    388a:	439c                	lw	a5,0(a5)
    388c:	fef42423          	sw	a5,-24(s0)
    3890:	47fd                	li	a5,31
    3892:	fef42223          	sw	a5,-28(s0)
    3896:	a08d                	j	38f8 <JTAG_TransferFast+0x488>
    3898:	fe842783          	lw	a5,-24(s0)
    389c:	fcf42823          	sw	a5,-48(s0)
    38a0:	fd042783          	lw	a5,-48(s0)
    38a4:	8b85                	andi	a5,a5,1
    38a6:	cb81                	beqz	a5,38b6 <JTAG_TransferFast+0x446>
    38a8:	400117b7          	lui	a5,0x40011
    38ac:	c0078793          	addi	a5,a5,-1024 # 40010c00 <_eusrstack+0x20008c00>
    38b0:	6721                	lui	a4,0x8
    38b2:	cb98                	sw	a4,16(a5)
    38b4:	a039                	j	38c2 <JTAG_TransferFast+0x452>
    38b6:	400117b7          	lui	a5,0x40011
    38ba:	c0078793          	addi	a5,a5,-1024 # 40010c00 <_eusrstack+0x20008c00>
    38be:	6721                	lui	a4,0x8
    38c0:	cbd8                	sw	a4,20(a5)
    38c2:	0001                	nop
    38c4:	400117b7          	lui	a5,0x40011
    38c8:	80078793          	addi	a5,a5,-2048 # 40010800 <_eusrstack+0x20008800>
    38cc:	6711                	lui	a4,0x4
    38ce:	cbd8                	sw	a4,20(a5)
    38d0:	0001                	nop
    38d2:	0001                	nop
    38d4:	400117b7          	lui	a5,0x40011
    38d8:	80078793          	addi	a5,a5,-2048 # 40010800 <_eusrstack+0x20008800>
    38dc:	6711                	lui	a4,0x4
    38de:	cb98                	sw	a4,16(a5)
    38e0:	0001                	nop
    38e2:	0001                	nop
    38e4:	fe842783          	lw	a5,-24(s0)
    38e8:	8385                	srli	a5,a5,0x1
    38ea:	fef42423          	sw	a5,-24(s0)
    38ee:	fe442783          	lw	a5,-28(s0)
    38f2:	17fd                	addi	a5,a5,-1
    38f4:	fef42223          	sw	a5,-28(s0)
    38f8:	fe442783          	lw	a5,-28(s0)
    38fc:	ffd1                	bnez	a5,3898 <JTAG_TransferFast+0x428>
    38fe:	200067b7          	lui	a5,0x20006
    3902:	5f878793          	addi	a5,a5,1528 # 200065f8 <DAP_Data>
    3906:	2fbc                	.2byte	0x2fbc
    3908:	873e                	mv	a4,a5
    390a:	200067b7          	lui	a5,0x20006
    390e:	5f878793          	addi	a5,a5,1528 # 200065f8 <DAP_Data>
    3912:	3fbc                	.2byte	0x3fbc
    3914:	40f707b3          	sub	a5,a4,a5
    3918:	17fd                	addi	a5,a5,-1
    391a:	fef42223          	sw	a5,-28(s0)
    391e:	fe442783          	lw	a5,-28(s0)
    3922:	cfc5                	beqz	a5,39da <JTAG_TransferFast+0x56a>
    3924:	fe842783          	lw	a5,-24(s0)
    3928:	fcf42623          	sw	a5,-52(s0)
    392c:	fcc42783          	lw	a5,-52(s0)
    3930:	8b85                	andi	a5,a5,1
    3932:	cb81                	beqz	a5,3942 <JTAG_TransferFast+0x4d2>
    3934:	400117b7          	lui	a5,0x40011
    3938:	c0078793          	addi	a5,a5,-1024 # 40010c00 <_eusrstack+0x20008c00>
    393c:	6721                	lui	a4,0x8
    393e:	cb98                	sw	a4,16(a5)
    3940:	a039                	j	394e <JTAG_TransferFast+0x4de>
    3942:	400117b7          	lui	a5,0x40011
    3946:	c0078793          	addi	a5,a5,-1024 # 40010c00 <_eusrstack+0x20008c00>
    394a:	6721                	lui	a4,0x8
    394c:	cbd8                	sw	a4,20(a5)
    394e:	0001                	nop
    3950:	400117b7          	lui	a5,0x40011
    3954:	80078793          	addi	a5,a5,-2048 # 40010800 <_eusrstack+0x20008800>
    3958:	6711                	lui	a4,0x4
    395a:	cbd8                	sw	a4,20(a5)
    395c:	0001                	nop
    395e:	0001                	nop
    3960:	400117b7          	lui	a5,0x40011
    3964:	80078793          	addi	a5,a5,-2048 # 40010800 <_eusrstack+0x20008800>
    3968:	6711                	lui	a4,0x4
    396a:	cb98                	sw	a4,16(a5)
    396c:	0001                	nop
    396e:	0001                	nop
    3970:	fe442783          	lw	a5,-28(s0)
    3974:	17fd                	addi	a5,a5,-1
    3976:	fef42223          	sw	a5,-28(s0)
    397a:	a035                	j	39a6 <JTAG_TransferFast+0x536>
    397c:	400117b7          	lui	a5,0x40011
    3980:	80078793          	addi	a5,a5,-2048 # 40010800 <_eusrstack+0x20008800>
    3984:	6711                	lui	a4,0x4
    3986:	cbd8                	sw	a4,20(a5)
    3988:	0001                	nop
    398a:	0001                	nop
    398c:	400117b7          	lui	a5,0x40011
    3990:	80078793          	addi	a5,a5,-2048 # 40010800 <_eusrstack+0x20008800>
    3994:	6711                	lui	a4,0x4
    3996:	cb98                	sw	a4,16(a5)
    3998:	0001                	nop
    399a:	0001                	nop
    399c:	fe442783          	lw	a5,-28(s0)
    39a0:	17fd                	addi	a5,a5,-1
    39a2:	fef42223          	sw	a5,-28(s0)
    39a6:	fe442783          	lw	a5,-28(s0)
    39aa:	fbe9                	bnez	a5,397c <JTAG_TransferFast+0x50c>
    39ac:	400117b7          	lui	a5,0x40011
    39b0:	80078793          	addi	a5,a5,-2048 # 40010800 <_eusrstack+0x20008800>
    39b4:	6709                	lui	a4,0x2
    39b6:	cb98                	sw	a4,16(a5)
    39b8:	0001                	nop
    39ba:	400117b7          	lui	a5,0x40011
    39be:	80078793          	addi	a5,a5,-2048 # 40010800 <_eusrstack+0x20008800>
    39c2:	6711                	lui	a4,0x4
    39c4:	cbd8                	sw	a4,20(a5)
    39c6:	0001                	nop
    39c8:	0001                	nop
    39ca:	400117b7          	lui	a5,0x40011
    39ce:	80078793          	addi	a5,a5,-2048 # 40010800 <_eusrstack+0x20008800>
    39d2:	6711                	lui	a4,0x4
    39d4:	cb98                	sw	a4,16(a5)
    39d6:	0001                	nop
    39d8:	a8b1                	j	3a34 <JTAG_TransferFast+0x5c4>
    39da:	400117b7          	lui	a5,0x40011
    39de:	80078793          	addi	a5,a5,-2048 # 40010800 <_eusrstack+0x20008800>
    39e2:	6709                	lui	a4,0x2
    39e4:	cb98                	sw	a4,16(a5)
    39e6:	0001                	nop
    39e8:	fe842783          	lw	a5,-24(s0)
    39ec:	fcf42423          	sw	a5,-56(s0)
    39f0:	fc842783          	lw	a5,-56(s0)
    39f4:	8b85                	andi	a5,a5,1
    39f6:	cb81                	beqz	a5,3a06 <JTAG_TransferFast+0x596>
    39f8:	400117b7          	lui	a5,0x40011
    39fc:	c0078793          	addi	a5,a5,-1024 # 40010c00 <_eusrstack+0x20008c00>
    3a00:	6721                	lui	a4,0x8
    3a02:	cb98                	sw	a4,16(a5)
    3a04:	a039                	j	3a12 <JTAG_TransferFast+0x5a2>
    3a06:	400117b7          	lui	a5,0x40011
    3a0a:	c0078793          	addi	a5,a5,-1024 # 40010c00 <_eusrstack+0x20008c00>
    3a0e:	6721                	lui	a4,0x8
    3a10:	cbd8                	sw	a4,20(a5)
    3a12:	0001                	nop
    3a14:	400117b7          	lui	a5,0x40011
    3a18:	80078793          	addi	a5,a5,-2048 # 40010800 <_eusrstack+0x20008800>
    3a1c:	6711                	lui	a4,0x4
    3a1e:	cbd8                	sw	a4,20(a5)
    3a20:	0001                	nop
    3a22:	0001                	nop
    3a24:	400117b7          	lui	a5,0x40011
    3a28:	80078793          	addi	a5,a5,-2048 # 40010800 <_eusrstack+0x20008800>
    3a2c:	6711                	lui	a4,0x4
    3a2e:	cb98                	sw	a4,16(a5)
    3a30:	0001                	nop
    3a32:	0001                	nop
    3a34:	400117b7          	lui	a5,0x40011
    3a38:	80078793          	addi	a5,a5,-2048 # 40010800 <_eusrstack+0x20008800>
    3a3c:	6711                	lui	a4,0x4
    3a3e:	cbd8                	sw	a4,20(a5)
    3a40:	0001                	nop
    3a42:	0001                	nop
    3a44:	400117b7          	lui	a5,0x40011
    3a48:	80078793          	addi	a5,a5,-2048 # 40010800 <_eusrstack+0x20008800>
    3a4c:	6711                	lui	a4,0x4
    3a4e:	cb98                	sw	a4,16(a5)
    3a50:	0001                	nop
    3a52:	0001                	nop
    3a54:	400117b7          	lui	a5,0x40011
    3a58:	80078793          	addi	a5,a5,-2048 # 40010800 <_eusrstack+0x20008800>
    3a5c:	6709                	lui	a4,0x2
    3a5e:	cbd8                	sw	a4,20(a5)
    3a60:	0001                	nop
    3a62:	400117b7          	lui	a5,0x40011
    3a66:	80078793          	addi	a5,a5,-2048 # 40010800 <_eusrstack+0x20008800>
    3a6a:	6711                	lui	a4,0x4
    3a6c:	cbd8                	sw	a4,20(a5)
    3a6e:	0001                	nop
    3a70:	0001                	nop
    3a72:	400117b7          	lui	a5,0x40011
    3a76:	80078793          	addi	a5,a5,-2048 # 40010800 <_eusrstack+0x20008800>
    3a7a:	6711                	lui	a4,0x4
    3a7c:	cb98                	sw	a4,16(a5)
    3a7e:	0001                	nop
    3a80:	0001                	nop
    3a82:	4785                	li	a5,1
    3a84:	fcf42223          	sw	a5,-60(s0)
    3a88:	fc442783          	lw	a5,-60(s0)
    3a8c:	8b85                	andi	a5,a5,1
    3a8e:	cb81                	beqz	a5,3a9e <JTAG_TransferFast+0x62e>
    3a90:	400117b7          	lui	a5,0x40011
    3a94:	c0078793          	addi	a5,a5,-1024 # 40010c00 <_eusrstack+0x20008c00>
    3a98:	6721                	lui	a4,0x8
    3a9a:	cb98                	sw	a4,16(a5)
    3a9c:	a039                	j	3aaa <JTAG_TransferFast+0x63a>
    3a9e:	400117b7          	lui	a5,0x40011
    3aa2:	c0078793          	addi	a5,a5,-1024 # 40010c00 <_eusrstack+0x20008c00>
    3aa6:	6721                	lui	a4,0x8
    3aa8:	cbd8                	sw	a4,20(a5)
    3aaa:	0001                	nop
    3aac:	fbc42783          	lw	a5,-68(s0)
    3ab0:	0807f793          	andi	a5,a5,128
    3ab4:	cb89                	beqz	a5,3ac6 <JTAG_TransferFast+0x656>
    3ab6:	c70ff0ef          	jal	ra,2f26 <TIMESTAMP_GET>
    3aba:	872a                	mv	a4,a0
    3abc:	200067b7          	lui	a5,0x20006
    3ac0:	5f878793          	addi	a5,a5,1528 # 200065f8 <DAP_Data>
    3ac4:	c798                	sw	a4,8(a5)
    3ac6:	200067b7          	lui	a5,0x20006
    3aca:	5f878793          	addi	a5,a5,1528 # 200065f8 <DAP_Data>
    3ace:	27dc                	.2byte	0x27dc
    3ad0:	fef42223          	sw	a5,-28(s0)
    3ad4:	a00d                	j	3af6 <JTAG_TransferFast+0x686>
    3ad6:	400117b7          	lui	a5,0x40011
    3ada:	80078793          	addi	a5,a5,-2048 # 40010800 <_eusrstack+0x20008800>
    3ade:	6711                	lui	a4,0x4
    3ae0:	cbd8                	sw	a4,20(a5)
    3ae2:	0001                	nop
    3ae4:	0001                	nop
    3ae6:	400117b7          	lui	a5,0x40011
    3aea:	80078793          	addi	a5,a5,-2048 # 40010800 <_eusrstack+0x20008800>
    3aee:	6711                	lui	a4,0x4
    3af0:	cb98                	sw	a4,16(a5)
    3af2:	0001                	nop
    3af4:	0001                	nop
    3af6:	fe442783          	lw	a5,-28(s0)
    3afa:	fff78713          	addi	a4,a5,-1
    3afe:	fee42223          	sw	a4,-28(s0)
    3b02:	fbf1                	bnez	a5,3ad6 <JTAG_TransferFast+0x666>
    3b04:	fe042783          	lw	a5,-32(s0)
    3b08:	0ff7f793          	zext.b	a5,a5
    3b0c:	853e                	mv	a0,a5
    3b0e:	40b6                	lw	ra,76(sp)
    3b10:	4426                	lw	s0,72(sp)
    3b12:	6161                	addi	sp,sp,80
    3b14:	8082                	ret

00003b16 <JTAG_IR_Slow>:
    3b16:	7111                	addi	sp,sp,-256
    3b18:	dfa2                	sw	s0,252(sp)
    3b1a:	0200                	addi	s0,sp,256
    3b1c:	f0a42623          	sw	a0,-244(s0)
    3b20:	400117b7          	lui	a5,0x40011
    3b24:	80078793          	addi	a5,a5,-2048 # 40010800 <_eusrstack+0x20008800>
    3b28:	6709                	lui	a4,0x2
    3b2a:	cb98                	sw	a4,16(a5)
    3b2c:	0001                	nop
    3b2e:	400117b7          	lui	a5,0x40011
    3b32:	80078793          	addi	a5,a5,-2048 # 40010800 <_eusrstack+0x20008800>
    3b36:	6711                	lui	a4,0x4
    3b38:	cbd8                	sw	a4,20(a5)
    3b3a:	0001                	nop
    3b3c:	200067b7          	lui	a5,0x20006
    3b40:	5f878793          	addi	a5,a5,1528 # 200065f8 <DAP_Data>
    3b44:	43dc                	lw	a5,4(a5)
    3b46:	faf42623          	sw	a5,-84(s0)
    3b4a:	fac42783          	lw	a5,-84(s0)
    3b4e:	faf42423          	sw	a5,-88(s0)
    3b52:	0001                	nop
    3b54:	fa842783          	lw	a5,-88(s0)
    3b58:	17fd                	addi	a5,a5,-1
    3b5a:	faf42423          	sw	a5,-88(s0)
    3b5e:	fa842783          	lw	a5,-88(s0)
    3b62:	fbed                	bnez	a5,3b54 <JTAG_IR_Slow+0x3e>
    3b64:	0001                	nop
    3b66:	400117b7          	lui	a5,0x40011
    3b6a:	80078793          	addi	a5,a5,-2048 # 40010800 <_eusrstack+0x20008800>
    3b6e:	6711                	lui	a4,0x4
    3b70:	cb98                	sw	a4,16(a5)
    3b72:	0001                	nop
    3b74:	200067b7          	lui	a5,0x20006
    3b78:	5f878793          	addi	a5,a5,1528 # 200065f8 <DAP_Data>
    3b7c:	43dc                	lw	a5,4(a5)
    3b7e:	faf42a23          	sw	a5,-76(s0)
    3b82:	fb442783          	lw	a5,-76(s0)
    3b86:	faf42823          	sw	a5,-80(s0)
    3b8a:	0001                	nop
    3b8c:	fb042783          	lw	a5,-80(s0)
    3b90:	17fd                	addi	a5,a5,-1
    3b92:	faf42823          	sw	a5,-80(s0)
    3b96:	fb042783          	lw	a5,-80(s0)
    3b9a:	fbed                	bnez	a5,3b8c <JTAG_IR_Slow+0x76>
    3b9c:	0001                	nop
    3b9e:	400117b7          	lui	a5,0x40011
    3ba2:	80078793          	addi	a5,a5,-2048 # 40010800 <_eusrstack+0x20008800>
    3ba6:	6711                	lui	a4,0x4
    3ba8:	cbd8                	sw	a4,20(a5)
    3baa:	0001                	nop
    3bac:	200067b7          	lui	a5,0x20006
    3bb0:	5f878793          	addi	a5,a5,1528 # 200065f8 <DAP_Data>
    3bb4:	43dc                	lw	a5,4(a5)
    3bb6:	faf42e23          	sw	a5,-68(s0)
    3bba:	fbc42783          	lw	a5,-68(s0)
    3bbe:	faf42c23          	sw	a5,-72(s0)
    3bc2:	0001                	nop
    3bc4:	fb842783          	lw	a5,-72(s0)
    3bc8:	17fd                	addi	a5,a5,-1
    3bca:	faf42c23          	sw	a5,-72(s0)
    3bce:	fb842783          	lw	a5,-72(s0)
    3bd2:	fbed                	bnez	a5,3bc4 <JTAG_IR_Slow+0xae>
    3bd4:	0001                	nop
    3bd6:	400117b7          	lui	a5,0x40011
    3bda:	80078793          	addi	a5,a5,-2048 # 40010800 <_eusrstack+0x20008800>
    3bde:	6711                	lui	a4,0x4
    3be0:	cb98                	sw	a4,16(a5)
    3be2:	0001                	nop
    3be4:	200067b7          	lui	a5,0x20006
    3be8:	5f878793          	addi	a5,a5,1528 # 200065f8 <DAP_Data>
    3bec:	43dc                	lw	a5,4(a5)
    3bee:	fcf42223          	sw	a5,-60(s0)
    3bf2:	fc442783          	lw	a5,-60(s0)
    3bf6:	fcf42023          	sw	a5,-64(s0)
    3bfa:	0001                	nop
    3bfc:	fc042783          	lw	a5,-64(s0)
    3c00:	17fd                	addi	a5,a5,-1
    3c02:	fcf42023          	sw	a5,-64(s0)
    3c06:	fc042783          	lw	a5,-64(s0)
    3c0a:	fbed                	bnez	a5,3bfc <JTAG_IR_Slow+0xe6>
    3c0c:	0001                	nop
    3c0e:	400117b7          	lui	a5,0x40011
    3c12:	80078793          	addi	a5,a5,-2048 # 40010800 <_eusrstack+0x20008800>
    3c16:	6709                	lui	a4,0x2
    3c18:	cbd8                	sw	a4,20(a5)
    3c1a:	0001                	nop
    3c1c:	400117b7          	lui	a5,0x40011
    3c20:	80078793          	addi	a5,a5,-2048 # 40010800 <_eusrstack+0x20008800>
    3c24:	6711                	lui	a4,0x4
    3c26:	cbd8                	sw	a4,20(a5)
    3c28:	0001                	nop
    3c2a:	200067b7          	lui	a5,0x20006
    3c2e:	5f878793          	addi	a5,a5,1528 # 200065f8 <DAP_Data>
    3c32:	43dc                	lw	a5,4(a5)
    3c34:	fcf42623          	sw	a5,-52(s0)
    3c38:	fcc42783          	lw	a5,-52(s0)
    3c3c:	fcf42423          	sw	a5,-56(s0)
    3c40:	0001                	nop
    3c42:	fc842783          	lw	a5,-56(s0)
    3c46:	17fd                	addi	a5,a5,-1
    3c48:	fcf42423          	sw	a5,-56(s0)
    3c4c:	fc842783          	lw	a5,-56(s0)
    3c50:	fbed                	bnez	a5,3c42 <JTAG_IR_Slow+0x12c>
    3c52:	0001                	nop
    3c54:	400117b7          	lui	a5,0x40011
    3c58:	80078793          	addi	a5,a5,-2048 # 40010800 <_eusrstack+0x20008800>
    3c5c:	6711                	lui	a4,0x4
    3c5e:	cb98                	sw	a4,16(a5)
    3c60:	0001                	nop
    3c62:	200067b7          	lui	a5,0x20006
    3c66:	5f878793          	addi	a5,a5,1528 # 200065f8 <DAP_Data>
    3c6a:	43dc                	lw	a5,4(a5)
    3c6c:	fcf42a23          	sw	a5,-44(s0)
    3c70:	fd442783          	lw	a5,-44(s0)
    3c74:	fcf42823          	sw	a5,-48(s0)
    3c78:	0001                	nop
    3c7a:	fd042783          	lw	a5,-48(s0)
    3c7e:	17fd                	addi	a5,a5,-1
    3c80:	fcf42823          	sw	a5,-48(s0)
    3c84:	fd042783          	lw	a5,-48(s0)
    3c88:	fbed                	bnez	a5,3c7a <JTAG_IR_Slow+0x164>
    3c8a:	0001                	nop
    3c8c:	400117b7          	lui	a5,0x40011
    3c90:	80078793          	addi	a5,a5,-2048 # 40010800 <_eusrstack+0x20008800>
    3c94:	6711                	lui	a4,0x4
    3c96:	cbd8                	sw	a4,20(a5)
    3c98:	0001                	nop
    3c9a:	200067b7          	lui	a5,0x20006
    3c9e:	5f878793          	addi	a5,a5,1528 # 200065f8 <DAP_Data>
    3ca2:	43dc                	lw	a5,4(a5)
    3ca4:	fcf42e23          	sw	a5,-36(s0)
    3ca8:	fdc42783          	lw	a5,-36(s0)
    3cac:	fcf42c23          	sw	a5,-40(s0)
    3cb0:	0001                	nop
    3cb2:	fd842783          	lw	a5,-40(s0)
    3cb6:	17fd                	addi	a5,a5,-1
    3cb8:	fcf42c23          	sw	a5,-40(s0)
    3cbc:	fd842783          	lw	a5,-40(s0)
    3cc0:	fbed                	bnez	a5,3cb2 <JTAG_IR_Slow+0x19c>
    3cc2:	0001                	nop
    3cc4:	400117b7          	lui	a5,0x40011
    3cc8:	80078793          	addi	a5,a5,-2048 # 40010800 <_eusrstack+0x20008800>
    3ccc:	6711                	lui	a4,0x4
    3cce:	cb98                	sw	a4,16(a5)
    3cd0:	0001                	nop
    3cd2:	200067b7          	lui	a5,0x20006
    3cd6:	5f878793          	addi	a5,a5,1528 # 200065f8 <DAP_Data>
    3cda:	43dc                	lw	a5,4(a5)
    3cdc:	fef42223          	sw	a5,-28(s0)
    3ce0:	fe442783          	lw	a5,-28(s0)
    3ce4:	fef42023          	sw	a5,-32(s0)
    3ce8:	0001                	nop
    3cea:	fe042783          	lw	a5,-32(s0)
    3cee:	17fd                	addi	a5,a5,-1
    3cf0:	fef42023          	sw	a5,-32(s0)
    3cf4:	fe042783          	lw	a5,-32(s0)
    3cf8:	fbed                	bnez	a5,3cea <JTAG_IR_Slow+0x1d4>
    3cfa:	0001                	nop
    3cfc:	4785                	li	a5,1
    3cfe:	fef42423          	sw	a5,-24(s0)
    3d02:	fe842783          	lw	a5,-24(s0)
    3d06:	8b85                	andi	a5,a5,1
    3d08:	cb81                	beqz	a5,3d18 <JTAG_IR_Slow+0x202>
    3d0a:	400117b7          	lui	a5,0x40011
    3d0e:	c0078793          	addi	a5,a5,-1024 # 40010c00 <_eusrstack+0x20008c00>
    3d12:	6721                	lui	a4,0x8
    3d14:	cb98                	sw	a4,16(a5)
    3d16:	a039                	j	3d24 <JTAG_IR_Slow+0x20e>
    3d18:	400117b7          	lui	a5,0x40011
    3d1c:	c0078793          	addi	a5,a5,-1024 # 40010c00 <_eusrstack+0x20008c00>
    3d20:	6721                	lui	a4,0x8
    3d22:	cbd8                	sw	a4,20(a5)
    3d24:	0001                	nop
    3d26:	200067b7          	lui	a5,0x20006
    3d2a:	5f878793          	addi	a5,a5,1528 # 200065f8 <DAP_Data>
    3d2e:	3fbc                	.2byte	0x3fbc
    3d30:	86be                	mv	a3,a5
    3d32:	200067b7          	lui	a5,0x20006
    3d36:	5f878713          	addi	a4,a5,1528 # 200065f8 <DAP_Data>
    3d3a:	00868793          	addi	a5,a3,8
    3d3e:	0786                	slli	a5,a5,0x1
    3d40:	97ba                	add	a5,a5,a4
    3d42:	2bde                	.2byte	0x2bde
    3d44:	fef42623          	sw	a5,-20(s0)
    3d48:	a8b5                	j	3dc4 <JTAG_IR_Slow+0x2ae>
    3d4a:	400117b7          	lui	a5,0x40011
    3d4e:	80078793          	addi	a5,a5,-2048 # 40010800 <_eusrstack+0x20008800>
    3d52:	6711                	lui	a4,0x4
    3d54:	cbd8                	sw	a4,20(a5)
    3d56:	0001                	nop
    3d58:	200067b7          	lui	a5,0x20006
    3d5c:	5f878793          	addi	a5,a5,1528 # 200065f8 <DAP_Data>
    3d60:	43dc                	lw	a5,4(a5)
    3d62:	f8f42e23          	sw	a5,-100(s0)
    3d66:	f9c42783          	lw	a5,-100(s0)
    3d6a:	f8f42c23          	sw	a5,-104(s0)
    3d6e:	0001                	nop
    3d70:	f9842783          	lw	a5,-104(s0)
    3d74:	17fd                	addi	a5,a5,-1
    3d76:	f8f42c23          	sw	a5,-104(s0)
    3d7a:	f9842783          	lw	a5,-104(s0)
    3d7e:	fbed                	bnez	a5,3d70 <JTAG_IR_Slow+0x25a>
    3d80:	0001                	nop
    3d82:	400117b7          	lui	a5,0x40011
    3d86:	80078793          	addi	a5,a5,-2048 # 40010800 <_eusrstack+0x20008800>
    3d8a:	6711                	lui	a4,0x4
    3d8c:	cb98                	sw	a4,16(a5)
    3d8e:	0001                	nop
    3d90:	200067b7          	lui	a5,0x20006
    3d94:	5f878793          	addi	a5,a5,1528 # 200065f8 <DAP_Data>
    3d98:	43dc                	lw	a5,4(a5)
    3d9a:	faf42223          	sw	a5,-92(s0)
    3d9e:	fa442783          	lw	a5,-92(s0)
    3da2:	faf42023          	sw	a5,-96(s0)
    3da6:	0001                	nop
    3da8:	fa042783          	lw	a5,-96(s0)
    3dac:	17fd                	addi	a5,a5,-1
    3dae:	faf42023          	sw	a5,-96(s0)
    3db2:	fa042783          	lw	a5,-96(s0)
    3db6:	fbed                	bnez	a5,3da8 <JTAG_IR_Slow+0x292>
    3db8:	0001                	nop
    3dba:	fec42783          	lw	a5,-20(s0)
    3dbe:	17fd                	addi	a5,a5,-1
    3dc0:	fef42623          	sw	a5,-20(s0)
    3dc4:	fec42783          	lw	a5,-20(s0)
    3dc8:	f3c9                	bnez	a5,3d4a <JTAG_IR_Slow+0x234>
    3dca:	200067b7          	lui	a5,0x20006
    3dce:	5f878793          	addi	a5,a5,1528 # 200065f8 <DAP_Data>
    3dd2:	3fbc                	.2byte	0x3fbc
    3dd4:	873e                	mv	a4,a5
    3dd6:	200067b7          	lui	a5,0x20006
    3dda:	5f878793          	addi	a5,a5,1528 # 200065f8 <DAP_Data>
    3dde:	97ba                	add	a5,a5,a4
    3de0:	2fdc                	.2byte	0x2fdc
    3de2:	17fd                	addi	a5,a5,-1
    3de4:	fef42623          	sw	a5,-20(s0)
    3de8:	a84d                	j	3e9a <JTAG_IR_Slow+0x384>
    3dea:	f0c42783          	lw	a5,-244(s0)
    3dee:	f8f42223          	sw	a5,-124(s0)
    3df2:	f8442783          	lw	a5,-124(s0)
    3df6:	8b85                	andi	a5,a5,1
    3df8:	cb81                	beqz	a5,3e08 <JTAG_IR_Slow+0x2f2>
    3dfa:	400117b7          	lui	a5,0x40011
    3dfe:	c0078793          	addi	a5,a5,-1024 # 40010c00 <_eusrstack+0x20008c00>
    3e02:	6721                	lui	a4,0x8
    3e04:	cb98                	sw	a4,16(a5)
    3e06:	a039                	j	3e14 <JTAG_IR_Slow+0x2fe>
    3e08:	400117b7          	lui	a5,0x40011
    3e0c:	c0078793          	addi	a5,a5,-1024 # 40010c00 <_eusrstack+0x20008c00>
    3e10:	6721                	lui	a4,0x8
    3e12:	cbd8                	sw	a4,20(a5)
    3e14:	0001                	nop
    3e16:	400117b7          	lui	a5,0x40011
    3e1a:	80078793          	addi	a5,a5,-2048 # 40010800 <_eusrstack+0x20008800>
    3e1e:	6711                	lui	a4,0x4
    3e20:	cbd8                	sw	a4,20(a5)
    3e22:	0001                	nop
    3e24:	200067b7          	lui	a5,0x20006
    3e28:	5f878793          	addi	a5,a5,1528 # 200065f8 <DAP_Data>
    3e2c:	43dc                	lw	a5,4(a5)
    3e2e:	f8f42623          	sw	a5,-116(s0)
    3e32:	f8c42783          	lw	a5,-116(s0)
    3e36:	f8f42423          	sw	a5,-120(s0)
    3e3a:	0001                	nop
    3e3c:	f8842783          	lw	a5,-120(s0)
    3e40:	17fd                	addi	a5,a5,-1
    3e42:	f8f42423          	sw	a5,-120(s0)
    3e46:	f8842783          	lw	a5,-120(s0)
    3e4a:	fbed                	bnez	a5,3e3c <JTAG_IR_Slow+0x326>
    3e4c:	0001                	nop
    3e4e:	400117b7          	lui	a5,0x40011
    3e52:	80078793          	addi	a5,a5,-2048 # 40010800 <_eusrstack+0x20008800>
    3e56:	6711                	lui	a4,0x4
    3e58:	cb98                	sw	a4,16(a5)
    3e5a:	0001                	nop
    3e5c:	200067b7          	lui	a5,0x20006
    3e60:	5f878793          	addi	a5,a5,1528 # 200065f8 <DAP_Data>
    3e64:	43dc                	lw	a5,4(a5)
    3e66:	f8f42a23          	sw	a5,-108(s0)
    3e6a:	f9442783          	lw	a5,-108(s0)
    3e6e:	f8f42823          	sw	a5,-112(s0)
    3e72:	0001                	nop
    3e74:	f9042783          	lw	a5,-112(s0)
    3e78:	17fd                	addi	a5,a5,-1
    3e7a:	f8f42823          	sw	a5,-112(s0)
    3e7e:	f9042783          	lw	a5,-112(s0)
    3e82:	fbed                	bnez	a5,3e74 <JTAG_IR_Slow+0x35e>
    3e84:	0001                	nop
    3e86:	f0c42783          	lw	a5,-244(s0)
    3e8a:	8385                	srli	a5,a5,0x1
    3e8c:	f0f42623          	sw	a5,-244(s0)
    3e90:	fec42783          	lw	a5,-20(s0)
    3e94:	17fd                	addi	a5,a5,-1
    3e96:	fef42623          	sw	a5,-20(s0)
    3e9a:	fec42783          	lw	a5,-20(s0)
    3e9e:	f7b1                	bnez	a5,3dea <JTAG_IR_Slow+0x2d4>
    3ea0:	200067b7          	lui	a5,0x20006
    3ea4:	5f878793          	addi	a5,a5,1528 # 200065f8 <DAP_Data>
    3ea8:	3fbc                	.2byte	0x3fbc
    3eaa:	86be                	mv	a3,a5
    3eac:	200067b7          	lui	a5,0x20006
    3eb0:	5f878713          	addi	a4,a5,1528 # 200065f8 <DAP_Data>
    3eb4:	01068793          	addi	a5,a3,16
    3eb8:	0786                	slli	a5,a5,0x1
    3eba:	97ba                	add	a5,a5,a4
    3ebc:	2bde                	.2byte	0x2bde
    3ebe:	fef42623          	sw	a5,-20(s0)
    3ec2:	fec42783          	lw	a5,-20(s0)
    3ec6:	1c078a63          	beqz	a5,409a <JTAG_IR_Slow+0x584>
    3eca:	f0c42783          	lw	a5,-244(s0)
    3ece:	f6f42623          	sw	a5,-148(s0)
    3ed2:	f6c42783          	lw	a5,-148(s0)
    3ed6:	8b85                	andi	a5,a5,1
    3ed8:	cb81                	beqz	a5,3ee8 <JTAG_IR_Slow+0x3d2>
    3eda:	400117b7          	lui	a5,0x40011
    3ede:	c0078793          	addi	a5,a5,-1024 # 40010c00 <_eusrstack+0x20008c00>
    3ee2:	6721                	lui	a4,0x8
    3ee4:	cb98                	sw	a4,16(a5)
    3ee6:	a039                	j	3ef4 <JTAG_IR_Slow+0x3de>
    3ee8:	400117b7          	lui	a5,0x40011
    3eec:	c0078793          	addi	a5,a5,-1024 # 40010c00 <_eusrstack+0x20008c00>
    3ef0:	6721                	lui	a4,0x8
    3ef2:	cbd8                	sw	a4,20(a5)
    3ef4:	0001                	nop
    3ef6:	400117b7          	lui	a5,0x40011
    3efa:	80078793          	addi	a5,a5,-2048 # 40010800 <_eusrstack+0x20008800>
    3efe:	6711                	lui	a4,0x4
    3f00:	cbd8                	sw	a4,20(a5)
    3f02:	0001                	nop
    3f04:	200067b7          	lui	a5,0x20006
    3f08:	5f878793          	addi	a5,a5,1528 # 200065f8 <DAP_Data>
    3f0c:	43dc                	lw	a5,4(a5)
    3f0e:	f6f42a23          	sw	a5,-140(s0)
    3f12:	f7442783          	lw	a5,-140(s0)
    3f16:	f6f42823          	sw	a5,-144(s0)
    3f1a:	0001                	nop
    3f1c:	f7042783          	lw	a5,-144(s0)
    3f20:	17fd                	addi	a5,a5,-1
    3f22:	f6f42823          	sw	a5,-144(s0)
    3f26:	f7042783          	lw	a5,-144(s0)
    3f2a:	fbed                	bnez	a5,3f1c <JTAG_IR_Slow+0x406>
    3f2c:	0001                	nop
    3f2e:	400117b7          	lui	a5,0x40011
    3f32:	80078793          	addi	a5,a5,-2048 # 40010800 <_eusrstack+0x20008800>
    3f36:	6711                	lui	a4,0x4
    3f38:	cb98                	sw	a4,16(a5)
    3f3a:	0001                	nop
    3f3c:	200067b7          	lui	a5,0x20006
    3f40:	5f878793          	addi	a5,a5,1528 # 200065f8 <DAP_Data>
    3f44:	43dc                	lw	a5,4(a5)
    3f46:	f6f42e23          	sw	a5,-132(s0)
    3f4a:	f7c42783          	lw	a5,-132(s0)
    3f4e:	f6f42c23          	sw	a5,-136(s0)
    3f52:	0001                	nop
    3f54:	f7842783          	lw	a5,-136(s0)
    3f58:	17fd                	addi	a5,a5,-1
    3f5a:	f6f42c23          	sw	a5,-136(s0)
    3f5e:	f7842783          	lw	a5,-136(s0)
    3f62:	fbed                	bnez	a5,3f54 <JTAG_IR_Slow+0x43e>
    3f64:	0001                	nop
    3f66:	4785                	li	a5,1
    3f68:	f8f42023          	sw	a5,-128(s0)
    3f6c:	f8042783          	lw	a5,-128(s0)
    3f70:	8b85                	andi	a5,a5,1
    3f72:	cb81                	beqz	a5,3f82 <JTAG_IR_Slow+0x46c>
    3f74:	400117b7          	lui	a5,0x40011
    3f78:	c0078793          	addi	a5,a5,-1024 # 40010c00 <_eusrstack+0x20008c00>
    3f7c:	6721                	lui	a4,0x8
    3f7e:	cb98                	sw	a4,16(a5)
    3f80:	a039                	j	3f8e <JTAG_IR_Slow+0x478>
    3f82:	400117b7          	lui	a5,0x40011
    3f86:	c0078793          	addi	a5,a5,-1024 # 40010c00 <_eusrstack+0x20008c00>
    3f8a:	6721                	lui	a4,0x8
    3f8c:	cbd8                	sw	a4,20(a5)
    3f8e:	0001                	nop
    3f90:	fec42783          	lw	a5,-20(s0)
    3f94:	17fd                	addi	a5,a5,-1
    3f96:	fef42623          	sw	a5,-20(s0)
    3f9a:	a8b5                	j	4016 <JTAG_IR_Slow+0x500>
    3f9c:	400117b7          	lui	a5,0x40011
    3fa0:	80078793          	addi	a5,a5,-2048 # 40010800 <_eusrstack+0x20008800>
    3fa4:	6711                	lui	a4,0x4
    3fa6:	cbd8                	sw	a4,20(a5)
    3fa8:	0001                	nop
    3faa:	200067b7          	lui	a5,0x20006
    3fae:	5f878793          	addi	a5,a5,1528 # 200065f8 <DAP_Data>
    3fb2:	43dc                	lw	a5,4(a5)
    3fb4:	f6f42023          	sw	a5,-160(s0)
    3fb8:	f6042783          	lw	a5,-160(s0)
    3fbc:	f4f42e23          	sw	a5,-164(s0)
    3fc0:	0001                	nop
    3fc2:	f5c42783          	lw	a5,-164(s0)
    3fc6:	17fd                	addi	a5,a5,-1
    3fc8:	f4f42e23          	sw	a5,-164(s0)
    3fcc:	f5c42783          	lw	a5,-164(s0)
    3fd0:	fbed                	bnez	a5,3fc2 <JTAG_IR_Slow+0x4ac>
    3fd2:	0001                	nop
    3fd4:	400117b7          	lui	a5,0x40011
    3fd8:	80078793          	addi	a5,a5,-2048 # 40010800 <_eusrstack+0x20008800>
    3fdc:	6711                	lui	a4,0x4
    3fde:	cb98                	sw	a4,16(a5)
    3fe0:	0001                	nop
    3fe2:	200067b7          	lui	a5,0x20006
    3fe6:	5f878793          	addi	a5,a5,1528 # 200065f8 <DAP_Data>
    3fea:	43dc                	lw	a5,4(a5)
    3fec:	f6f42423          	sw	a5,-152(s0)
    3ff0:	f6842783          	lw	a5,-152(s0)
    3ff4:	f6f42223          	sw	a5,-156(s0)
    3ff8:	0001                	nop
    3ffa:	f6442783          	lw	a5,-156(s0)
    3ffe:	17fd                	addi	a5,a5,-1
    4000:	f6f42223          	sw	a5,-156(s0)
    4004:	f6442783          	lw	a5,-156(s0)
    4008:	fbed                	bnez	a5,3ffa <JTAG_IR_Slow+0x4e4>
    400a:	0001                	nop
    400c:	fec42783          	lw	a5,-20(s0)
    4010:	17fd                	addi	a5,a5,-1
    4012:	fef42623          	sw	a5,-20(s0)
    4016:	fec42783          	lw	a5,-20(s0)
    401a:	f3c9                	bnez	a5,3f9c <JTAG_IR_Slow+0x486>
    401c:	400117b7          	lui	a5,0x40011
    4020:	80078793          	addi	a5,a5,-2048 # 40010800 <_eusrstack+0x20008800>
    4024:	6709                	lui	a4,0x2
    4026:	cb98                	sw	a4,16(a5)
    4028:	0001                	nop
    402a:	400117b7          	lui	a5,0x40011
    402e:	80078793          	addi	a5,a5,-2048 # 40010800 <_eusrstack+0x20008800>
    4032:	6711                	lui	a4,0x4
    4034:	cbd8                	sw	a4,20(a5)
    4036:	0001                	nop
    4038:	200067b7          	lui	a5,0x20006
    403c:	5f878793          	addi	a5,a5,1528 # 200065f8 <DAP_Data>
    4040:	43dc                	lw	a5,4(a5)
    4042:	f4f42823          	sw	a5,-176(s0)
    4046:	f5042783          	lw	a5,-176(s0)
    404a:	f4f42623          	sw	a5,-180(s0)
    404e:	0001                	nop
    4050:	f4c42783          	lw	a5,-180(s0)
    4054:	17fd                	addi	a5,a5,-1
    4056:	f4f42623          	sw	a5,-180(s0)
    405a:	f4c42783          	lw	a5,-180(s0)
    405e:	fbed                	bnez	a5,4050 <JTAG_IR_Slow+0x53a>
    4060:	0001                	nop
    4062:	400117b7          	lui	a5,0x40011
    4066:	80078793          	addi	a5,a5,-2048 # 40010800 <_eusrstack+0x20008800>
    406a:	6711                	lui	a4,0x4
    406c:	cb98                	sw	a4,16(a5)
    406e:	0001                	nop
    4070:	200067b7          	lui	a5,0x20006
    4074:	5f878793          	addi	a5,a5,1528 # 200065f8 <DAP_Data>
    4078:	43dc                	lw	a5,4(a5)
    407a:	f4f42c23          	sw	a5,-168(s0)
    407e:	f5842783          	lw	a5,-168(s0)
    4082:	f4f42a23          	sw	a5,-172(s0)
    4086:	0001                	nop
    4088:	f5442783          	lw	a5,-172(s0)
    408c:	17fd                	addi	a5,a5,-1
    408e:	f4f42a23          	sw	a5,-172(s0)
    4092:	f5442783          	lw	a5,-172(s0)
    4096:	fbed                	bnez	a5,4088 <JTAG_IR_Slow+0x572>
    4098:	a075                	j	4144 <JTAG_IR_Slow+0x62e>
    409a:	400117b7          	lui	a5,0x40011
    409e:	80078793          	addi	a5,a5,-2048 # 40010800 <_eusrstack+0x20008800>
    40a2:	6709                	lui	a4,0x2
    40a4:	cb98                	sw	a4,16(a5)
    40a6:	0001                	nop
    40a8:	f0c42783          	lw	a5,-244(s0)
    40ac:	f2f42c23          	sw	a5,-200(s0)
    40b0:	f3842783          	lw	a5,-200(s0)
    40b4:	8b85                	andi	a5,a5,1
    40b6:	cb81                	beqz	a5,40c6 <JTAG_IR_Slow+0x5b0>
    40b8:	400117b7          	lui	a5,0x40011
    40bc:	c0078793          	addi	a5,a5,-1024 # 40010c00 <_eusrstack+0x20008c00>
    40c0:	6721                	lui	a4,0x8
    40c2:	cb98                	sw	a4,16(a5)
    40c4:	a039                	j	40d2 <JTAG_IR_Slow+0x5bc>
    40c6:	400117b7          	lui	a5,0x40011
    40ca:	c0078793          	addi	a5,a5,-1024 # 40010c00 <_eusrstack+0x20008c00>
    40ce:	6721                	lui	a4,0x8
    40d0:	cbd8                	sw	a4,20(a5)
    40d2:	0001                	nop
    40d4:	400117b7          	lui	a5,0x40011
    40d8:	80078793          	addi	a5,a5,-2048 # 40010800 <_eusrstack+0x20008800>
    40dc:	6711                	lui	a4,0x4
    40de:	cbd8                	sw	a4,20(a5)
    40e0:	0001                	nop
    40e2:	200067b7          	lui	a5,0x20006
    40e6:	5f878793          	addi	a5,a5,1528 # 200065f8 <DAP_Data>
    40ea:	43dc                	lw	a5,4(a5)
    40ec:	f4f42023          	sw	a5,-192(s0)
    40f0:	f4042783          	lw	a5,-192(s0)
    40f4:	f2f42e23          	sw	a5,-196(s0)
    40f8:	0001                	nop
    40fa:	f3c42783          	lw	a5,-196(s0)
    40fe:	17fd                	addi	a5,a5,-1
    4100:	f2f42e23          	sw	a5,-196(s0)
    4104:	f3c42783          	lw	a5,-196(s0)
    4108:	fbed                	bnez	a5,40fa <JTAG_IR_Slow+0x5e4>
    410a:	0001                	nop
    410c:	400117b7          	lui	a5,0x40011
    4110:	80078793          	addi	a5,a5,-2048 # 40010800 <_eusrstack+0x20008800>
    4114:	6711                	lui	a4,0x4
    4116:	cb98                	sw	a4,16(a5)
    4118:	0001                	nop
    411a:	200067b7          	lui	a5,0x20006
    411e:	5f878793          	addi	a5,a5,1528 # 200065f8 <DAP_Data>
    4122:	43dc                	lw	a5,4(a5)
    4124:	f4f42423          	sw	a5,-184(s0)
    4128:	f4842783          	lw	a5,-184(s0)
    412c:	f4f42223          	sw	a5,-188(s0)
    4130:	0001                	nop
    4132:	f4442783          	lw	a5,-188(s0)
    4136:	17fd                	addi	a5,a5,-1
    4138:	f4f42223          	sw	a5,-188(s0)
    413c:	f4442783          	lw	a5,-188(s0)
    4140:	fbed                	bnez	a5,4132 <JTAG_IR_Slow+0x61c>
    4142:	0001                	nop
    4144:	400117b7          	lui	a5,0x40011
    4148:	80078793          	addi	a5,a5,-2048 # 40010800 <_eusrstack+0x20008800>
    414c:	6711                	lui	a4,0x4
    414e:	cbd8                	sw	a4,20(a5)
    4150:	0001                	nop
    4152:	200067b7          	lui	a5,0x20006
    4156:	5f878793          	addi	a5,a5,1528 # 200065f8 <DAP_Data>
    415a:	43dc                	lw	a5,4(a5)
    415c:	f0f42c23          	sw	a5,-232(s0)
    4160:	f1842783          	lw	a5,-232(s0)
    4164:	f0f42a23          	sw	a5,-236(s0)
    4168:	0001                	nop
    416a:	f1442783          	lw	a5,-236(s0)
    416e:	17fd                	addi	a5,a5,-1
    4170:	f0f42a23          	sw	a5,-236(s0)
    4174:	f1442783          	lw	a5,-236(s0)
    4178:	fbed                	bnez	a5,416a <JTAG_IR_Slow+0x654>
    417a:	0001                	nop
    417c:	400117b7          	lui	a5,0x40011
    4180:	80078793          	addi	a5,a5,-2048 # 40010800 <_eusrstack+0x20008800>
    4184:	6711                	lui	a4,0x4
    4186:	cb98                	sw	a4,16(a5)
    4188:	0001                	nop
    418a:	200067b7          	lui	a5,0x20006
    418e:	5f878793          	addi	a5,a5,1528 # 200065f8 <DAP_Data>
    4192:	43dc                	lw	a5,4(a5)
    4194:	f2f42023          	sw	a5,-224(s0)
    4198:	f2042783          	lw	a5,-224(s0)
    419c:	f0f42e23          	sw	a5,-228(s0)
    41a0:	0001                	nop
    41a2:	f1c42783          	lw	a5,-228(s0)
    41a6:	17fd                	addi	a5,a5,-1
    41a8:	f0f42e23          	sw	a5,-228(s0)
    41ac:	f1c42783          	lw	a5,-228(s0)
    41b0:	fbed                	bnez	a5,41a2 <JTAG_IR_Slow+0x68c>
    41b2:	0001                	nop
    41b4:	400117b7          	lui	a5,0x40011
    41b8:	80078793          	addi	a5,a5,-2048 # 40010800 <_eusrstack+0x20008800>
    41bc:	6709                	lui	a4,0x2
    41be:	cbd8                	sw	a4,20(a5)
    41c0:	0001                	nop
    41c2:	400117b7          	lui	a5,0x40011
    41c6:	80078793          	addi	a5,a5,-2048 # 40010800 <_eusrstack+0x20008800>
    41ca:	6711                	lui	a4,0x4
    41cc:	cbd8                	sw	a4,20(a5)
    41ce:	0001                	nop
    41d0:	200067b7          	lui	a5,0x20006
    41d4:	5f878793          	addi	a5,a5,1528 # 200065f8 <DAP_Data>
    41d8:	43dc                	lw	a5,4(a5)
    41da:	f2f42423          	sw	a5,-216(s0)
    41de:	f2842783          	lw	a5,-216(s0)
    41e2:	f2f42223          	sw	a5,-220(s0)
    41e6:	0001                	nop
    41e8:	f2442783          	lw	a5,-220(s0)
    41ec:	17fd                	addi	a5,a5,-1
    41ee:	f2f42223          	sw	a5,-220(s0)
    41f2:	f2442783          	lw	a5,-220(s0)
    41f6:	fbed                	bnez	a5,41e8 <JTAG_IR_Slow+0x6d2>
    41f8:	0001                	nop
    41fa:	400117b7          	lui	a5,0x40011
    41fe:	80078793          	addi	a5,a5,-2048 # 40010800 <_eusrstack+0x20008800>
    4202:	6711                	lui	a4,0x4
    4204:	cb98                	sw	a4,16(a5)
    4206:	0001                	nop
    4208:	200067b7          	lui	a5,0x20006
    420c:	5f878793          	addi	a5,a5,1528 # 200065f8 <DAP_Data>
    4210:	43dc                	lw	a5,4(a5)
    4212:	f2f42823          	sw	a5,-208(s0)
    4216:	f3042783          	lw	a5,-208(s0)
    421a:	f2f42623          	sw	a5,-212(s0)
    421e:	0001                	nop
    4220:	f2c42783          	lw	a5,-212(s0)
    4224:	17fd                	addi	a5,a5,-1
    4226:	f2f42623          	sw	a5,-212(s0)
    422a:	f2c42783          	lw	a5,-212(s0)
    422e:	fbed                	bnez	a5,4220 <JTAG_IR_Slow+0x70a>
    4230:	0001                	nop
    4232:	4785                	li	a5,1
    4234:	f2f42a23          	sw	a5,-204(s0)
    4238:	f3442783          	lw	a5,-204(s0)
    423c:	8b85                	andi	a5,a5,1
    423e:	cb81                	beqz	a5,424e <JTAG_IR_Slow+0x738>
    4240:	400117b7          	lui	a5,0x40011
    4244:	c0078793          	addi	a5,a5,-1024 # 40010c00 <_eusrstack+0x20008c00>
    4248:	6721                	lui	a4,0x8
    424a:	cb98                	sw	a4,16(a5)
    424c:	a039                	j	425a <JTAG_IR_Slow+0x744>
    424e:	400117b7          	lui	a5,0x40011
    4252:	c0078793          	addi	a5,a5,-1024 # 40010c00 <_eusrstack+0x20008c00>
    4256:	6721                	lui	a4,0x8
    4258:	cbd8                	sw	a4,20(a5)
    425a:	0001                	nop
    425c:	0001                	nop
    425e:	547e                	lw	s0,252(sp)
    4260:	6111                	addi	sp,sp,256
    4262:	8082                	ret

00004264 <JTAG_TransferSlow>:
    4264:	7125                	addi	sp,sp,-416
    4266:	18112e23          	sw	ra,412(sp)
    426a:	18812c23          	sw	s0,408(sp)
    426e:	1300                	addi	s0,sp,416
    4270:	e6a42623          	sw	a0,-404(s0)
    4274:	e6b42423          	sw	a1,-408(s0)
    4278:	400117b7          	lui	a5,0x40011
    427c:	80078793          	addi	a5,a5,-2048 # 40010800 <_eusrstack+0x20008800>
    4280:	6709                	lui	a4,0x2
    4282:	cb98                	sw	a4,16(a5)
    4284:	0001                	nop
    4286:	400117b7          	lui	a5,0x40011
    428a:	80078793          	addi	a5,a5,-2048 # 40010800 <_eusrstack+0x20008800>
    428e:	6711                	lui	a4,0x4
    4290:	cbd8                	sw	a4,20(a5)
    4292:	0001                	nop
    4294:	200067b7          	lui	a5,0x20006
    4298:	5f878793          	addi	a5,a5,1528 # 200065f8 <DAP_Data>
    429c:	43dc                	lw	a5,4(a5)
    429e:	faf42a23          	sw	a5,-76(s0)
    42a2:	fb442783          	lw	a5,-76(s0)
    42a6:	faf42823          	sw	a5,-80(s0)
    42aa:	0001                	nop
    42ac:	fb042783          	lw	a5,-80(s0)
    42b0:	17fd                	addi	a5,a5,-1
    42b2:	faf42823          	sw	a5,-80(s0)
    42b6:	fb042783          	lw	a5,-80(s0)
    42ba:	fbed                	bnez	a5,42ac <JTAG_TransferSlow+0x48>
    42bc:	0001                	nop
    42be:	400117b7          	lui	a5,0x40011
    42c2:	80078793          	addi	a5,a5,-2048 # 40010800 <_eusrstack+0x20008800>
    42c6:	6711                	lui	a4,0x4
    42c8:	cb98                	sw	a4,16(a5)
    42ca:	0001                	nop
    42cc:	200067b7          	lui	a5,0x20006
    42d0:	5f878793          	addi	a5,a5,1528 # 200065f8 <DAP_Data>
    42d4:	43dc                	lw	a5,4(a5)
    42d6:	faf42e23          	sw	a5,-68(s0)
    42da:	fbc42783          	lw	a5,-68(s0)
    42de:	faf42c23          	sw	a5,-72(s0)
    42e2:	0001                	nop
    42e4:	fb842783          	lw	a5,-72(s0)
    42e8:	17fd                	addi	a5,a5,-1
    42ea:	faf42c23          	sw	a5,-72(s0)
    42ee:	fb842783          	lw	a5,-72(s0)
    42f2:	fbed                	bnez	a5,42e4 <JTAG_TransferSlow+0x80>
    42f4:	0001                	nop
    42f6:	400117b7          	lui	a5,0x40011
    42fa:	80078793          	addi	a5,a5,-2048 # 40010800 <_eusrstack+0x20008800>
    42fe:	6709                	lui	a4,0x2
    4300:	cbd8                	sw	a4,20(a5)
    4302:	0001                	nop
    4304:	400117b7          	lui	a5,0x40011
    4308:	80078793          	addi	a5,a5,-2048 # 40010800 <_eusrstack+0x20008800>
    430c:	6711                	lui	a4,0x4
    430e:	cbd8                	sw	a4,20(a5)
    4310:	0001                	nop
    4312:	200067b7          	lui	a5,0x20006
    4316:	5f878793          	addi	a5,a5,1528 # 200065f8 <DAP_Data>
    431a:	43dc                	lw	a5,4(a5)
    431c:	fcf42223          	sw	a5,-60(s0)
    4320:	fc442783          	lw	a5,-60(s0)
    4324:	fcf42023          	sw	a5,-64(s0)
    4328:	0001                	nop
    432a:	fc042783          	lw	a5,-64(s0)
    432e:	17fd                	addi	a5,a5,-1
    4330:	fcf42023          	sw	a5,-64(s0)
    4334:	fc042783          	lw	a5,-64(s0)
    4338:	fbed                	bnez	a5,432a <JTAG_TransferSlow+0xc6>
    433a:	0001                	nop
    433c:	400117b7          	lui	a5,0x40011
    4340:	80078793          	addi	a5,a5,-2048 # 40010800 <_eusrstack+0x20008800>
    4344:	6711                	lui	a4,0x4
    4346:	cb98                	sw	a4,16(a5)
    4348:	0001                	nop
    434a:	200067b7          	lui	a5,0x20006
    434e:	5f878793          	addi	a5,a5,1528 # 200065f8 <DAP_Data>
    4352:	43dc                	lw	a5,4(a5)
    4354:	fcf42623          	sw	a5,-52(s0)
    4358:	fcc42783          	lw	a5,-52(s0)
    435c:	fcf42423          	sw	a5,-56(s0)
    4360:	0001                	nop
    4362:	fc842783          	lw	a5,-56(s0)
    4366:	17fd                	addi	a5,a5,-1
    4368:	fcf42423          	sw	a5,-56(s0)
    436c:	fc842783          	lw	a5,-56(s0)
    4370:	fbed                	bnez	a5,4362 <JTAG_TransferSlow+0xfe>
    4372:	0001                	nop
    4374:	400117b7          	lui	a5,0x40011
    4378:	80078793          	addi	a5,a5,-2048 # 40010800 <_eusrstack+0x20008800>
    437c:	6711                	lui	a4,0x4
    437e:	cbd8                	sw	a4,20(a5)
    4380:	0001                	nop
    4382:	200067b7          	lui	a5,0x20006
    4386:	5f878793          	addi	a5,a5,1528 # 200065f8 <DAP_Data>
    438a:	43dc                	lw	a5,4(a5)
    438c:	fcf42a23          	sw	a5,-44(s0)
    4390:	fd442783          	lw	a5,-44(s0)
    4394:	fcf42823          	sw	a5,-48(s0)
    4398:	0001                	nop
    439a:	fd042783          	lw	a5,-48(s0)
    439e:	17fd                	addi	a5,a5,-1
    43a0:	fcf42823          	sw	a5,-48(s0)
    43a4:	fd042783          	lw	a5,-48(s0)
    43a8:	fbed                	bnez	a5,439a <JTAG_TransferSlow+0x136>
    43aa:	0001                	nop
    43ac:	400117b7          	lui	a5,0x40011
    43b0:	80078793          	addi	a5,a5,-2048 # 40010800 <_eusrstack+0x20008800>
    43b4:	6711                	lui	a4,0x4
    43b6:	cb98                	sw	a4,16(a5)
    43b8:	0001                	nop
    43ba:	200067b7          	lui	a5,0x20006
    43be:	5f878793          	addi	a5,a5,1528 # 200065f8 <DAP_Data>
    43c2:	43dc                	lw	a5,4(a5)
    43c4:	fcf42e23          	sw	a5,-36(s0)
    43c8:	fdc42783          	lw	a5,-36(s0)
    43cc:	fcf42c23          	sw	a5,-40(s0)
    43d0:	0001                	nop
    43d2:	fd842783          	lw	a5,-40(s0)
    43d6:	17fd                	addi	a5,a5,-1
    43d8:	fcf42c23          	sw	a5,-40(s0)
    43dc:	fd842783          	lw	a5,-40(s0)
    43e0:	fbed                	bnez	a5,43d2 <JTAG_TransferSlow+0x16e>
    43e2:	0001                	nop
    43e4:	200067b7          	lui	a5,0x20006
    43e8:	5f878793          	addi	a5,a5,1528 # 200065f8 <DAP_Data>
    43ec:	3fbc                	.2byte	0x3fbc
    43ee:	fef42223          	sw	a5,-28(s0)
    43f2:	a8b5                	j	446e <JTAG_TransferSlow+0x20a>
    43f4:	400117b7          	lui	a5,0x40011
    43f8:	80078793          	addi	a5,a5,-2048 # 40010800 <_eusrstack+0x20008800>
    43fc:	6711                	lui	a4,0x4
    43fe:	cbd8                	sw	a4,20(a5)
    4400:	0001                	nop
    4402:	200067b7          	lui	a5,0x20006
    4406:	5f878793          	addi	a5,a5,1528 # 200065f8 <DAP_Data>
    440a:	43dc                	lw	a5,4(a5)
    440c:	faf42223          	sw	a5,-92(s0)
    4410:	fa442783          	lw	a5,-92(s0)
    4414:	faf42023          	sw	a5,-96(s0)
    4418:	0001                	nop
    441a:	fa042783          	lw	a5,-96(s0)
    441e:	17fd                	addi	a5,a5,-1
    4420:	faf42023          	sw	a5,-96(s0)
    4424:	fa042783          	lw	a5,-96(s0)
    4428:	fbed                	bnez	a5,441a <JTAG_TransferSlow+0x1b6>
    442a:	0001                	nop
    442c:	400117b7          	lui	a5,0x40011
    4430:	80078793          	addi	a5,a5,-2048 # 40010800 <_eusrstack+0x20008800>
    4434:	6711                	lui	a4,0x4
    4436:	cb98                	sw	a4,16(a5)
    4438:	0001                	nop
    443a:	200067b7          	lui	a5,0x20006
    443e:	5f878793          	addi	a5,a5,1528 # 200065f8 <DAP_Data>
    4442:	43dc                	lw	a5,4(a5)
    4444:	faf42623          	sw	a5,-84(s0)
    4448:	fac42783          	lw	a5,-84(s0)
    444c:	faf42423          	sw	a5,-88(s0)
    4450:	0001                	nop
    4452:	fa842783          	lw	a5,-88(s0)
    4456:	17fd                	addi	a5,a5,-1
    4458:	faf42423          	sw	a5,-88(s0)
    445c:	fa842783          	lw	a5,-88(s0)
    4460:	fbed                	bnez	a5,4452 <JTAG_TransferSlow+0x1ee>
    4462:	0001                	nop
    4464:	fe442783          	lw	a5,-28(s0)
    4468:	17fd                	addi	a5,a5,-1
    446a:	fef42223          	sw	a5,-28(s0)
    446e:	fe442783          	lw	a5,-28(s0)
    4472:	f3c9                	bnez	a5,43f4 <JTAG_TransferSlow+0x190>
    4474:	e6c42783          	lw	a5,-404(s0)
    4478:	8385                	srli	a5,a5,0x1
    447a:	f6f42223          	sw	a5,-156(s0)
    447e:	f6442783          	lw	a5,-156(s0)
    4482:	8b85                	andi	a5,a5,1
    4484:	cb81                	beqz	a5,4494 <JTAG_TransferSlow+0x230>
    4486:	400117b7          	lui	a5,0x40011
    448a:	c0078793          	addi	a5,a5,-1024 # 40010c00 <_eusrstack+0x20008c00>
    448e:	6721                	lui	a4,0x8
    4490:	cb98                	sw	a4,16(a5)
    4492:	a039                	j	44a0 <JTAG_TransferSlow+0x23c>
    4494:	400117b7          	lui	a5,0x40011
    4498:	c0078793          	addi	a5,a5,-1024 # 40010c00 <_eusrstack+0x20008c00>
    449c:	6721                	lui	a4,0x8
    449e:	cbd8                	sw	a4,20(a5)
    44a0:	0001                	nop
    44a2:	400117b7          	lui	a5,0x40011
    44a6:	80078793          	addi	a5,a5,-2048 # 40010800 <_eusrstack+0x20008800>
    44aa:	6711                	lui	a4,0x4
    44ac:	cbd8                	sw	a4,20(a5)
    44ae:	0001                	nop
    44b0:	200067b7          	lui	a5,0x20006
    44b4:	5f878793          	addi	a5,a5,1528 # 200065f8 <DAP_Data>
    44b8:	43dc                	lw	a5,4(a5)
    44ba:	f6f42623          	sw	a5,-148(s0)
    44be:	f6c42783          	lw	a5,-148(s0)
    44c2:	f6f42423          	sw	a5,-152(s0)
    44c6:	0001                	nop
    44c8:	f6842783          	lw	a5,-152(s0)
    44cc:	17fd                	addi	a5,a5,-1
    44ce:	f6f42423          	sw	a5,-152(s0)
    44d2:	f6842783          	lw	a5,-152(s0)
    44d6:	fbed                	bnez	a5,44c8 <JTAG_TransferSlow+0x264>
    44d8:	0001                	nop
    44da:	400117b7          	lui	a5,0x40011
    44de:	c0078793          	addi	a5,a5,-1024 # 40010c00 <_eusrstack+0x20008c00>
    44e2:	4798                	lw	a4,8(a5)
    44e4:	6791                	lui	a5,0x4
    44e6:	8ff9                	and	a5,a5,a4
    44e8:	00f037b3          	snez	a5,a5
    44ec:	0ff7f793          	zext.b	a5,a5
    44f0:	fef42623          	sw	a5,-20(s0)
    44f4:	400117b7          	lui	a5,0x40011
    44f8:	80078793          	addi	a5,a5,-2048 # 40010800 <_eusrstack+0x20008800>
    44fc:	6711                	lui	a4,0x4
    44fe:	cb98                	sw	a4,16(a5)
    4500:	0001                	nop
    4502:	200067b7          	lui	a5,0x20006
    4506:	5f878793          	addi	a5,a5,1528 # 200065f8 <DAP_Data>
    450a:	43dc                	lw	a5,4(a5)
    450c:	f6f42a23          	sw	a5,-140(s0)
    4510:	f7442783          	lw	a5,-140(s0)
    4514:	f6f42823          	sw	a5,-144(s0)
    4518:	0001                	nop
    451a:	f7042783          	lw	a5,-144(s0)
    451e:	17fd                	addi	a5,a5,-1
    4520:	f6f42823          	sw	a5,-144(s0)
    4524:	f7042783          	lw	a5,-144(s0)
    4528:	fbed                	bnez	a5,451a <JTAG_TransferSlow+0x2b6>
    452a:	0001                	nop
    452c:	fec42783          	lw	a5,-20(s0)
    4530:	0786                	slli	a5,a5,0x1
    4532:	fef42023          	sw	a5,-32(s0)
    4536:	e6c42783          	lw	a5,-404(s0)
    453a:	8389                	srli	a5,a5,0x2
    453c:	f6f42c23          	sw	a5,-136(s0)
    4540:	f7842783          	lw	a5,-136(s0)
    4544:	8b85                	andi	a5,a5,1
    4546:	cb81                	beqz	a5,4556 <JTAG_TransferSlow+0x2f2>
    4548:	400117b7          	lui	a5,0x40011
    454c:	c0078793          	addi	a5,a5,-1024 # 40010c00 <_eusrstack+0x20008c00>
    4550:	6721                	lui	a4,0x8
    4552:	cb98                	sw	a4,16(a5)
    4554:	a039                	j	4562 <JTAG_TransferSlow+0x2fe>
    4556:	400117b7          	lui	a5,0x40011
    455a:	c0078793          	addi	a5,a5,-1024 # 40010c00 <_eusrstack+0x20008c00>
    455e:	6721                	lui	a4,0x8
    4560:	cbd8                	sw	a4,20(a5)
    4562:	0001                	nop
    4564:	400117b7          	lui	a5,0x40011
    4568:	80078793          	addi	a5,a5,-2048 # 40010800 <_eusrstack+0x20008800>
    456c:	6711                	lui	a4,0x4
    456e:	cbd8                	sw	a4,20(a5)
    4570:	0001                	nop
    4572:	200067b7          	lui	a5,0x20006
    4576:	5f878793          	addi	a5,a5,1528 # 200065f8 <DAP_Data>
    457a:	43dc                	lw	a5,4(a5)
    457c:	f8f42023          	sw	a5,-128(s0)
    4580:	f8042783          	lw	a5,-128(s0)
    4584:	f6f42e23          	sw	a5,-132(s0)
    4588:	0001                	nop
    458a:	f7c42783          	lw	a5,-132(s0)
    458e:	17fd                	addi	a5,a5,-1
    4590:	f6f42e23          	sw	a5,-132(s0)
    4594:	f7c42783          	lw	a5,-132(s0)
    4598:	fbed                	bnez	a5,458a <JTAG_TransferSlow+0x326>
    459a:	0001                	nop
    459c:	400117b7          	lui	a5,0x40011
    45a0:	c0078793          	addi	a5,a5,-1024 # 40010c00 <_eusrstack+0x20008c00>
    45a4:	4798                	lw	a4,8(a5)
    45a6:	6791                	lui	a5,0x4
    45a8:	8ff9                	and	a5,a5,a4
    45aa:	00f037b3          	snez	a5,a5
    45ae:	0ff7f793          	zext.b	a5,a5
    45b2:	fef42623          	sw	a5,-20(s0)
    45b6:	400117b7          	lui	a5,0x40011
    45ba:	80078793          	addi	a5,a5,-2048 # 40010800 <_eusrstack+0x20008800>
    45be:	6711                	lui	a4,0x4
    45c0:	cb98                	sw	a4,16(a5)
    45c2:	0001                	nop
    45c4:	200067b7          	lui	a5,0x20006
    45c8:	5f878793          	addi	a5,a5,1528 # 200065f8 <DAP_Data>
    45cc:	43dc                	lw	a5,4(a5)
    45ce:	f8f42423          	sw	a5,-120(s0)
    45d2:	f8842783          	lw	a5,-120(s0)
    45d6:	f8f42223          	sw	a5,-124(s0)
    45da:	0001                	nop
    45dc:	f8442783          	lw	a5,-124(s0)
    45e0:	17fd                	addi	a5,a5,-1
    45e2:	f8f42223          	sw	a5,-124(s0)
    45e6:	f8442783          	lw	a5,-124(s0)
    45ea:	fbed                	bnez	a5,45dc <JTAG_TransferSlow+0x378>
    45ec:	0001                	nop
    45ee:	fe042703          	lw	a4,-32(s0)
    45f2:	fec42783          	lw	a5,-20(s0)
    45f6:	8fd9                	or	a5,a5,a4
    45f8:	fef42023          	sw	a5,-32(s0)
    45fc:	e6c42783          	lw	a5,-404(s0)
    4600:	838d                	srli	a5,a5,0x3
    4602:	f8f42623          	sw	a5,-116(s0)
    4606:	f8c42783          	lw	a5,-116(s0)
    460a:	8b85                	andi	a5,a5,1
    460c:	cb81                	beqz	a5,461c <JTAG_TransferSlow+0x3b8>
    460e:	400117b7          	lui	a5,0x40011
    4612:	c0078793          	addi	a5,a5,-1024 # 40010c00 <_eusrstack+0x20008c00>
    4616:	6721                	lui	a4,0x8
    4618:	cb98                	sw	a4,16(a5)
    461a:	a039                	j	4628 <JTAG_TransferSlow+0x3c4>
    461c:	400117b7          	lui	a5,0x40011
    4620:	c0078793          	addi	a5,a5,-1024 # 40010c00 <_eusrstack+0x20008c00>
    4624:	6721                	lui	a4,0x8
    4626:	cbd8                	sw	a4,20(a5)
    4628:	0001                	nop
    462a:	400117b7          	lui	a5,0x40011
    462e:	80078793          	addi	a5,a5,-2048 # 40010800 <_eusrstack+0x20008800>
    4632:	6711                	lui	a4,0x4
    4634:	cbd8                	sw	a4,20(a5)
    4636:	0001                	nop
    4638:	200067b7          	lui	a5,0x20006
    463c:	5f878793          	addi	a5,a5,1528 # 200065f8 <DAP_Data>
    4640:	43dc                	lw	a5,4(a5)
    4642:	f8f42a23          	sw	a5,-108(s0)
    4646:	f9442783          	lw	a5,-108(s0)
    464a:	f8f42823          	sw	a5,-112(s0)
    464e:	0001                	nop
    4650:	f9042783          	lw	a5,-112(s0)
    4654:	17fd                	addi	a5,a5,-1
    4656:	f8f42823          	sw	a5,-112(s0)
    465a:	f9042783          	lw	a5,-112(s0)
    465e:	fbed                	bnez	a5,4650 <JTAG_TransferSlow+0x3ec>
    4660:	0001                	nop
    4662:	400117b7          	lui	a5,0x40011
    4666:	c0078793          	addi	a5,a5,-1024 # 40010c00 <_eusrstack+0x20008c00>
    466a:	4798                	lw	a4,8(a5)
    466c:	6791                	lui	a5,0x4
    466e:	8ff9                	and	a5,a5,a4
    4670:	00f037b3          	snez	a5,a5
    4674:	0ff7f793          	zext.b	a5,a5
    4678:	fef42623          	sw	a5,-20(s0)
    467c:	400117b7          	lui	a5,0x40011
    4680:	80078793          	addi	a5,a5,-2048 # 40010800 <_eusrstack+0x20008800>
    4684:	6711                	lui	a4,0x4
    4686:	cb98                	sw	a4,16(a5)
    4688:	0001                	nop
    468a:	200067b7          	lui	a5,0x20006
    468e:	5f878793          	addi	a5,a5,1528 # 200065f8 <DAP_Data>
    4692:	43dc                	lw	a5,4(a5)
    4694:	f8f42e23          	sw	a5,-100(s0)
    4698:	f9c42783          	lw	a5,-100(s0)
    469c:	f8f42c23          	sw	a5,-104(s0)
    46a0:	0001                	nop
    46a2:	f9842783          	lw	a5,-104(s0)
    46a6:	17fd                	addi	a5,a5,-1
    46a8:	f8f42c23          	sw	a5,-104(s0)
    46ac:	f9842783          	lw	a5,-104(s0)
    46b0:	fbed                	bnez	a5,46a2 <JTAG_TransferSlow+0x43e>
    46b2:	0001                	nop
    46b4:	fec42783          	lw	a5,-20(s0)
    46b8:	078a                	slli	a5,a5,0x2
    46ba:	fe042703          	lw	a4,-32(s0)
    46be:	8fd9                	or	a5,a5,a4
    46c0:	fef42023          	sw	a5,-32(s0)
    46c4:	fe042703          	lw	a4,-32(s0)
    46c8:	4785                	li	a5,1
    46ca:	08f70263          	beq	a4,a5,474e <JTAG_TransferSlow+0x4ea>
    46ce:	400117b7          	lui	a5,0x40011
    46d2:	80078793          	addi	a5,a5,-2048 # 40010800 <_eusrstack+0x20008800>
    46d6:	6709                	lui	a4,0x2
    46d8:	cb98                	sw	a4,16(a5)
    46da:	0001                	nop
    46dc:	400117b7          	lui	a5,0x40011
    46e0:	80078793          	addi	a5,a5,-2048 # 40010800 <_eusrstack+0x20008800>
    46e4:	6711                	lui	a4,0x4
    46e6:	cbd8                	sw	a4,20(a5)
    46e8:	0001                	nop
    46ea:	200067b7          	lui	a5,0x20006
    46ee:	5f878793          	addi	a5,a5,1528 # 200065f8 <DAP_Data>
    46f2:	43dc                	lw	a5,4(a5)
    46f4:	f4f42c23          	sw	a5,-168(s0)
    46f8:	f5842783          	lw	a5,-168(s0)
    46fc:	f4f42a23          	sw	a5,-172(s0)
    4700:	0001                	nop
    4702:	f5442783          	lw	a5,-172(s0)
    4706:	17fd                	addi	a5,a5,-1
    4708:	f4f42a23          	sw	a5,-172(s0)
    470c:	f5442783          	lw	a5,-172(s0)
    4710:	fbed                	bnez	a5,4702 <JTAG_TransferSlow+0x49e>
    4712:	0001                	nop
    4714:	400117b7          	lui	a5,0x40011
    4718:	80078793          	addi	a5,a5,-2048 # 40010800 <_eusrstack+0x20008800>
    471c:	6711                	lui	a4,0x4
    471e:	cb98                	sw	a4,16(a5)
    4720:	0001                	nop
    4722:	200067b7          	lui	a5,0x20006
    4726:	5f878793          	addi	a5,a5,1528 # 200065f8 <DAP_Data>
    472a:	43dc                	lw	a5,4(a5)
    472c:	f6f42023          	sw	a5,-160(s0)
    4730:	f6042783          	lw	a5,-160(s0)
    4734:	f4f42e23          	sw	a5,-164(s0)
    4738:	0001                	nop
    473a:	f5c42783          	lw	a5,-164(s0)
    473e:	17fd                	addi	a5,a5,-1
    4740:	f4f42e23          	sw	a5,-164(s0)
    4744:	f5c42783          	lw	a5,-164(s0)
    4748:	fbed                	bnez	a5,473a <JTAG_TransferSlow+0x4d6>
    474a:	0001                	nop
    474c:	a551                	j	4dd0 <JTAG_TransferSlow+0xb6c>
    474e:	e6c42783          	lw	a5,-404(s0)
    4752:	8b89                	andi	a5,a5,2
    4754:	32078e63          	beqz	a5,4a90 <JTAG_TransferSlow+0x82c>
    4758:	fe042423          	sw	zero,-24(s0)
    475c:	47fd                	li	a5,31
    475e:	fef42223          	sw	a5,-28(s0)
    4762:	a845                	j	4812 <JTAG_TransferSlow+0x5ae>
    4764:	400117b7          	lui	a5,0x40011
    4768:	80078793          	addi	a5,a5,-2048 # 40010800 <_eusrstack+0x20008800>
    476c:	6711                	lui	a4,0x4
    476e:	cbd8                	sw	a4,20(a5)
    4770:	0001                	nop
    4772:	200067b7          	lui	a5,0x20006
    4776:	5f878793          	addi	a5,a5,1528 # 200065f8 <DAP_Data>
    477a:	43dc                	lw	a5,4(a5)
    477c:	f4f42423          	sw	a5,-184(s0)
    4780:	f4842783          	lw	a5,-184(s0)
    4784:	f4f42223          	sw	a5,-188(s0)
    4788:	0001                	nop
    478a:	f4442783          	lw	a5,-188(s0)
    478e:	17fd                	addi	a5,a5,-1
    4790:	f4f42223          	sw	a5,-188(s0)
    4794:	f4442783          	lw	a5,-188(s0)
    4798:	fbed                	bnez	a5,478a <JTAG_TransferSlow+0x526>
    479a:	0001                	nop
    479c:	400117b7          	lui	a5,0x40011
    47a0:	c0078793          	addi	a5,a5,-1024 # 40010c00 <_eusrstack+0x20008c00>
    47a4:	4798                	lw	a4,8(a5)
    47a6:	6791                	lui	a5,0x4
    47a8:	8ff9                	and	a5,a5,a4
    47aa:	00f037b3          	snez	a5,a5
    47ae:	0ff7f793          	zext.b	a5,a5
    47b2:	fef42623          	sw	a5,-20(s0)
    47b6:	400117b7          	lui	a5,0x40011
    47ba:	80078793          	addi	a5,a5,-2048 # 40010800 <_eusrstack+0x20008800>
    47be:	6711                	lui	a4,0x4
    47c0:	cb98                	sw	a4,16(a5)
    47c2:	0001                	nop
    47c4:	200067b7          	lui	a5,0x20006
    47c8:	5f878793          	addi	a5,a5,1528 # 200065f8 <DAP_Data>
    47cc:	43dc                	lw	a5,4(a5)
    47ce:	f4f42823          	sw	a5,-176(s0)
    47d2:	f5042783          	lw	a5,-176(s0)
    47d6:	f4f42623          	sw	a5,-180(s0)
    47da:	0001                	nop
    47dc:	f4c42783          	lw	a5,-180(s0)
    47e0:	17fd                	addi	a5,a5,-1
    47e2:	f4f42623          	sw	a5,-180(s0)
    47e6:	f4c42783          	lw	a5,-180(s0)
    47ea:	fbed                	bnez	a5,47dc <JTAG_TransferSlow+0x578>
    47ec:	0001                	nop
    47ee:	fec42783          	lw	a5,-20(s0)
    47f2:	07fe                	slli	a5,a5,0x1f
    47f4:	fe842703          	lw	a4,-24(s0)
    47f8:	8fd9                	or	a5,a5,a4
    47fa:	fef42423          	sw	a5,-24(s0)
    47fe:	fe842783          	lw	a5,-24(s0)
    4802:	8385                	srli	a5,a5,0x1
    4804:	fef42423          	sw	a5,-24(s0)
    4808:	fe442783          	lw	a5,-28(s0)
    480c:	17fd                	addi	a5,a5,-1
    480e:	fef42223          	sw	a5,-28(s0)
    4812:	fe442783          	lw	a5,-28(s0)
    4816:	f7b9                	bnez	a5,4764 <JTAG_TransferSlow+0x500>
    4818:	200067b7          	lui	a5,0x20006
    481c:	5f878793          	addi	a5,a5,1528 # 200065f8 <DAP_Data>
    4820:	2fbc                	.2byte	0x2fbc
    4822:	873e                	mv	a4,a5
    4824:	200067b7          	lui	a5,0x20006
    4828:	5f878793          	addi	a5,a5,1528 # 200065f8 <DAP_Data>
    482c:	3fbc                	.2byte	0x3fbc
    482e:	40f707b3          	sub	a5,a4,a5
    4832:	17fd                	addi	a5,a5,-1
    4834:	fef42223          	sw	a5,-28(s0)
    4838:	fe442783          	lw	a5,-28(s0)
    483c:	18078c63          	beqz	a5,49d4 <JTAG_TransferSlow+0x770>
    4840:	400117b7          	lui	a5,0x40011
    4844:	80078793          	addi	a5,a5,-2048 # 40010800 <_eusrstack+0x20008800>
    4848:	6711                	lui	a4,0x4
    484a:	cbd8                	sw	a4,20(a5)
    484c:	0001                	nop
    484e:	200067b7          	lui	a5,0x20006
    4852:	5f878793          	addi	a5,a5,1528 # 200065f8 <DAP_Data>
    4856:	43dc                	lw	a5,4(a5)
    4858:	f2f42c23          	sw	a5,-200(s0)
    485c:	f3842783          	lw	a5,-200(s0)
    4860:	f2f42a23          	sw	a5,-204(s0)
    4864:	0001                	nop
    4866:	f3442783          	lw	a5,-204(s0)
    486a:	17fd                	addi	a5,a5,-1
    486c:	f2f42a23          	sw	a5,-204(s0)
    4870:	f3442783          	lw	a5,-204(s0)
    4874:	fbed                	bnez	a5,4866 <JTAG_TransferSlow+0x602>
    4876:	0001                	nop
    4878:	400117b7          	lui	a5,0x40011
    487c:	c0078793          	addi	a5,a5,-1024 # 40010c00 <_eusrstack+0x20008c00>
    4880:	4798                	lw	a4,8(a5)
    4882:	6791                	lui	a5,0x4
    4884:	8ff9                	and	a5,a5,a4
    4886:	00f037b3          	snez	a5,a5
    488a:	0ff7f793          	zext.b	a5,a5
    488e:	fef42623          	sw	a5,-20(s0)
    4892:	400117b7          	lui	a5,0x40011
    4896:	80078793          	addi	a5,a5,-2048 # 40010800 <_eusrstack+0x20008800>
    489a:	6711                	lui	a4,0x4
    489c:	cb98                	sw	a4,16(a5)
    489e:	0001                	nop
    48a0:	200067b7          	lui	a5,0x20006
    48a4:	5f878793          	addi	a5,a5,1528 # 200065f8 <DAP_Data>
    48a8:	43dc                	lw	a5,4(a5)
    48aa:	f4f42023          	sw	a5,-192(s0)
    48ae:	f4042783          	lw	a5,-192(s0)
    48b2:	f2f42e23          	sw	a5,-196(s0)
    48b6:	0001                	nop
    48b8:	f3c42783          	lw	a5,-196(s0)
    48bc:	17fd                	addi	a5,a5,-1
    48be:	f2f42e23          	sw	a5,-196(s0)
    48c2:	f3c42783          	lw	a5,-196(s0)
    48c6:	fbed                	bnez	a5,48b8 <JTAG_TransferSlow+0x654>
    48c8:	0001                	nop
    48ca:	fe442783          	lw	a5,-28(s0)
    48ce:	17fd                	addi	a5,a5,-1
    48d0:	fef42223          	sw	a5,-28(s0)
    48d4:	a8b5                	j	4950 <JTAG_TransferSlow+0x6ec>
    48d6:	400117b7          	lui	a5,0x40011
    48da:	80078793          	addi	a5,a5,-2048 # 40010800 <_eusrstack+0x20008800>
    48de:	6711                	lui	a4,0x4
    48e0:	cbd8                	sw	a4,20(a5)
    48e2:	0001                	nop
    48e4:	200067b7          	lui	a5,0x20006
    48e8:	5f878793          	addi	a5,a5,1528 # 200065f8 <DAP_Data>
    48ec:	43dc                	lw	a5,4(a5)
    48ee:	f2f42423          	sw	a5,-216(s0)
    48f2:	f2842783          	lw	a5,-216(s0)
    48f6:	f2f42223          	sw	a5,-220(s0)
    48fa:	0001                	nop
    48fc:	f2442783          	lw	a5,-220(s0)
    4900:	17fd                	addi	a5,a5,-1
    4902:	f2f42223          	sw	a5,-220(s0)
    4906:	f2442783          	lw	a5,-220(s0)
    490a:	fbed                	bnez	a5,48fc <JTAG_TransferSlow+0x698>
    490c:	0001                	nop
    490e:	400117b7          	lui	a5,0x40011
    4912:	80078793          	addi	a5,a5,-2048 # 40010800 <_eusrstack+0x20008800>
    4916:	6711                	lui	a4,0x4
    4918:	cb98                	sw	a4,16(a5)
    491a:	0001                	nop
    491c:	200067b7          	lui	a5,0x20006
    4920:	5f878793          	addi	a5,a5,1528 # 200065f8 <DAP_Data>
    4924:	43dc                	lw	a5,4(a5)
    4926:	f2f42823          	sw	a5,-208(s0)
    492a:	f3042783          	lw	a5,-208(s0)
    492e:	f2f42623          	sw	a5,-212(s0)
    4932:	0001                	nop
    4934:	f2c42783          	lw	a5,-212(s0)
    4938:	17fd                	addi	a5,a5,-1
    493a:	f2f42623          	sw	a5,-212(s0)
    493e:	f2c42783          	lw	a5,-212(s0)
    4942:	fbed                	bnez	a5,4934 <JTAG_TransferSlow+0x6d0>
    4944:	0001                	nop
    4946:	fe442783          	lw	a5,-28(s0)
    494a:	17fd                	addi	a5,a5,-1
    494c:	fef42223          	sw	a5,-28(s0)
    4950:	fe442783          	lw	a5,-28(s0)
    4954:	f3c9                	bnez	a5,48d6 <JTAG_TransferSlow+0x672>
    4956:	400117b7          	lui	a5,0x40011
    495a:	80078793          	addi	a5,a5,-2048 # 40010800 <_eusrstack+0x20008800>
    495e:	6709                	lui	a4,0x2
    4960:	cb98                	sw	a4,16(a5)
    4962:	0001                	nop
    4964:	400117b7          	lui	a5,0x40011
    4968:	80078793          	addi	a5,a5,-2048 # 40010800 <_eusrstack+0x20008800>
    496c:	6711                	lui	a4,0x4
    496e:	cbd8                	sw	a4,20(a5)
    4970:	0001                	nop
    4972:	200067b7          	lui	a5,0x20006
    4976:	5f878793          	addi	a5,a5,1528 # 200065f8 <DAP_Data>
    497a:	43dc                	lw	a5,4(a5)
    497c:	f0f42c23          	sw	a5,-232(s0)
    4980:	f1842783          	lw	a5,-232(s0)
    4984:	f0f42a23          	sw	a5,-236(s0)
    4988:	0001                	nop
    498a:	f1442783          	lw	a5,-236(s0)
    498e:	17fd                	addi	a5,a5,-1
    4990:	f0f42a23          	sw	a5,-236(s0)
    4994:	f1442783          	lw	a5,-236(s0)
    4998:	fbed                	bnez	a5,498a <JTAG_TransferSlow+0x726>
    499a:	0001                	nop
    499c:	400117b7          	lui	a5,0x40011
    49a0:	80078793          	addi	a5,a5,-2048 # 40010800 <_eusrstack+0x20008800>
    49a4:	6711                	lui	a4,0x4
    49a6:	cb98                	sw	a4,16(a5)
    49a8:	0001                	nop
    49aa:	200067b7          	lui	a5,0x20006
    49ae:	5f878793          	addi	a5,a5,1528 # 200065f8 <DAP_Data>
    49b2:	43dc                	lw	a5,4(a5)
    49b4:	f2f42023          	sw	a5,-224(s0)
    49b8:	f2042783          	lw	a5,-224(s0)
    49bc:	f0f42e23          	sw	a5,-228(s0)
    49c0:	0001                	nop
    49c2:	f1c42783          	lw	a5,-228(s0)
    49c6:	17fd                	addi	a5,a5,-1
    49c8:	f0f42e23          	sw	a5,-228(s0)
    49cc:	f1c42783          	lw	a5,-228(s0)
    49d0:	fbed                	bnez	a5,49c2 <JTAG_TransferSlow+0x75e>
    49d2:	a869                	j	4a6c <JTAG_TransferSlow+0x808>
    49d4:	400117b7          	lui	a5,0x40011
    49d8:	80078793          	addi	a5,a5,-2048 # 40010800 <_eusrstack+0x20008800>
    49dc:	6709                	lui	a4,0x2
    49de:	cb98                	sw	a4,16(a5)
    49e0:	0001                	nop
    49e2:	400117b7          	lui	a5,0x40011
    49e6:	80078793          	addi	a5,a5,-2048 # 40010800 <_eusrstack+0x20008800>
    49ea:	6711                	lui	a4,0x4
    49ec:	cbd8                	sw	a4,20(a5)
    49ee:	0001                	nop
    49f0:	200067b7          	lui	a5,0x20006
    49f4:	5f878793          	addi	a5,a5,1528 # 200065f8 <DAP_Data>
    49f8:	43dc                	lw	a5,4(a5)
    49fa:	f0f42423          	sw	a5,-248(s0)
    49fe:	f0842783          	lw	a5,-248(s0)
    4a02:	f0f42223          	sw	a5,-252(s0)
    4a06:	0001                	nop
    4a08:	f0442783          	lw	a5,-252(s0)
    4a0c:	17fd                	addi	a5,a5,-1
    4a0e:	f0f42223          	sw	a5,-252(s0)
    4a12:	f0442783          	lw	a5,-252(s0)
    4a16:	fbed                	bnez	a5,4a08 <JTAG_TransferSlow+0x7a4>
    4a18:	0001                	nop
    4a1a:	400117b7          	lui	a5,0x40011
    4a1e:	c0078793          	addi	a5,a5,-1024 # 40010c00 <_eusrstack+0x20008c00>
    4a22:	4798                	lw	a4,8(a5)
    4a24:	6791                	lui	a5,0x4
    4a26:	8ff9                	and	a5,a5,a4
    4a28:	00f037b3          	snez	a5,a5
    4a2c:	0ff7f793          	zext.b	a5,a5
    4a30:	fef42623          	sw	a5,-20(s0)
    4a34:	400117b7          	lui	a5,0x40011
    4a38:	80078793          	addi	a5,a5,-2048 # 40010800 <_eusrstack+0x20008800>
    4a3c:	6711                	lui	a4,0x4
    4a3e:	cb98                	sw	a4,16(a5)
    4a40:	0001                	nop
    4a42:	200067b7          	lui	a5,0x20006
    4a46:	5f878793          	addi	a5,a5,1528 # 200065f8 <DAP_Data>
    4a4a:	43dc                	lw	a5,4(a5)
    4a4c:	f0f42823          	sw	a5,-240(s0)
    4a50:	f1042783          	lw	a5,-240(s0)
    4a54:	f0f42623          	sw	a5,-244(s0)
    4a58:	0001                	nop
    4a5a:	f0c42783          	lw	a5,-244(s0)
    4a5e:	17fd                	addi	a5,a5,-1
    4a60:	f0f42623          	sw	a5,-244(s0)
    4a64:	f0c42783          	lw	a5,-244(s0)
    4a68:	fbed                	bnez	a5,4a5a <JTAG_TransferSlow+0x7f6>
    4a6a:	0001                	nop
    4a6c:	fec42783          	lw	a5,-20(s0)
    4a70:	07fe                	slli	a5,a5,0x1f
    4a72:	fe842703          	lw	a4,-24(s0)
    4a76:	8fd9                	or	a5,a5,a4
    4a78:	fef42423          	sw	a5,-24(s0)
    4a7c:	e6842783          	lw	a5,-408(s0)
    4a80:	34078863          	beqz	a5,4dd0 <JTAG_TransferSlow+0xb6c>
    4a84:	e6842783          	lw	a5,-408(s0)
    4a88:	fe842703          	lw	a4,-24(s0)
    4a8c:	c398                	sw	a4,0(a5)
    4a8e:	a689                	j	4dd0 <JTAG_TransferSlow+0xb6c>
    4a90:	e6842783          	lw	a5,-408(s0)
    4a94:	439c                	lw	a5,0(a5)
    4a96:	fef42423          	sw	a5,-24(s0)
    4a9a:	47fd                	li	a5,31
    4a9c:	fef42223          	sw	a5,-28(s0)
    4aa0:	a84d                	j	4b52 <JTAG_TransferSlow+0x8ee>
    4aa2:	fe842783          	lw	a5,-24(s0)
    4aa6:	eef42823          	sw	a5,-272(s0)
    4aaa:	ef042783          	lw	a5,-272(s0)
    4aae:	8b85                	andi	a5,a5,1
    4ab0:	cb81                	beqz	a5,4ac0 <JTAG_TransferSlow+0x85c>
    4ab2:	400117b7          	lui	a5,0x40011
    4ab6:	c0078793          	addi	a5,a5,-1024 # 40010c00 <_eusrstack+0x20008c00>
    4aba:	6721                	lui	a4,0x8
    4abc:	cb98                	sw	a4,16(a5)
    4abe:	a039                	j	4acc <JTAG_TransferSlow+0x868>
    4ac0:	400117b7          	lui	a5,0x40011
    4ac4:	c0078793          	addi	a5,a5,-1024 # 40010c00 <_eusrstack+0x20008c00>
    4ac8:	6721                	lui	a4,0x8
    4aca:	cbd8                	sw	a4,20(a5)
    4acc:	0001                	nop
    4ace:	400117b7          	lui	a5,0x40011
    4ad2:	80078793          	addi	a5,a5,-2048 # 40010800 <_eusrstack+0x20008800>
    4ad6:	6711                	lui	a4,0x4
    4ad8:	cbd8                	sw	a4,20(a5)
    4ada:	0001                	nop
    4adc:	200067b7          	lui	a5,0x20006
    4ae0:	5f878793          	addi	a5,a5,1528 # 200065f8 <DAP_Data>
    4ae4:	43dc                	lw	a5,4(a5)
    4ae6:	eef42c23          	sw	a5,-264(s0)
    4aea:	ef842783          	lw	a5,-264(s0)
    4aee:	eef42a23          	sw	a5,-268(s0)
    4af2:	0001                	nop
    4af4:	ef442783          	lw	a5,-268(s0)
    4af8:	17fd                	addi	a5,a5,-1
    4afa:	eef42a23          	sw	a5,-268(s0)
    4afe:	ef442783          	lw	a5,-268(s0)
    4b02:	fbed                	bnez	a5,4af4 <JTAG_TransferSlow+0x890>
    4b04:	0001                	nop
    4b06:	400117b7          	lui	a5,0x40011
    4b0a:	80078793          	addi	a5,a5,-2048 # 40010800 <_eusrstack+0x20008800>
    4b0e:	6711                	lui	a4,0x4
    4b10:	cb98                	sw	a4,16(a5)
    4b12:	0001                	nop
    4b14:	200067b7          	lui	a5,0x20006
    4b18:	5f878793          	addi	a5,a5,1528 # 200065f8 <DAP_Data>
    4b1c:	43dc                	lw	a5,4(a5)
    4b1e:	f0f42023          	sw	a5,-256(s0)
    4b22:	f0042783          	lw	a5,-256(s0)
    4b26:	eef42e23          	sw	a5,-260(s0)
    4b2a:	0001                	nop
    4b2c:	efc42783          	lw	a5,-260(s0)
    4b30:	17fd                	addi	a5,a5,-1
    4b32:	eef42e23          	sw	a5,-260(s0)
    4b36:	efc42783          	lw	a5,-260(s0)
    4b3a:	fbed                	bnez	a5,4b2c <JTAG_TransferSlow+0x8c8>
    4b3c:	0001                	nop
    4b3e:	fe842783          	lw	a5,-24(s0)
    4b42:	8385                	srli	a5,a5,0x1
    4b44:	fef42423          	sw	a5,-24(s0)
    4b48:	fe442783          	lw	a5,-28(s0)
    4b4c:	17fd                	addi	a5,a5,-1
    4b4e:	fef42223          	sw	a5,-28(s0)
    4b52:	fe442783          	lw	a5,-28(s0)
    4b56:	f7b1                	bnez	a5,4aa2 <JTAG_TransferSlow+0x83e>
    4b58:	200067b7          	lui	a5,0x20006
    4b5c:	5f878793          	addi	a5,a5,1528 # 200065f8 <DAP_Data>
    4b60:	2fbc                	.2byte	0x2fbc
    4b62:	873e                	mv	a4,a5
    4b64:	200067b7          	lui	a5,0x20006
    4b68:	5f878793          	addi	a5,a5,1528 # 200065f8 <DAP_Data>
    4b6c:	3fbc                	.2byte	0x3fbc
    4b6e:	40f707b3          	sub	a5,a4,a5
    4b72:	17fd                	addi	a5,a5,-1
    4b74:	fef42223          	sw	a5,-28(s0)
    4b78:	fe442783          	lw	a5,-28(s0)
    4b7c:	1a078563          	beqz	a5,4d26 <JTAG_TransferSlow+0xac2>
    4b80:	fe842783          	lw	a5,-24(s0)
    4b84:	ecf42e23          	sw	a5,-292(s0)
    4b88:	edc42783          	lw	a5,-292(s0)
    4b8c:	8b85                	andi	a5,a5,1
    4b8e:	cb81                	beqz	a5,4b9e <JTAG_TransferSlow+0x93a>
    4b90:	400117b7          	lui	a5,0x40011
    4b94:	c0078793          	addi	a5,a5,-1024 # 40010c00 <_eusrstack+0x20008c00>
    4b98:	6721                	lui	a4,0x8
    4b9a:	cb98                	sw	a4,16(a5)
    4b9c:	a039                	j	4baa <JTAG_TransferSlow+0x946>
    4b9e:	400117b7          	lui	a5,0x40011
    4ba2:	c0078793          	addi	a5,a5,-1024 # 40010c00 <_eusrstack+0x20008c00>
    4ba6:	6721                	lui	a4,0x8
    4ba8:	cbd8                	sw	a4,20(a5)
    4baa:	0001                	nop
    4bac:	400117b7          	lui	a5,0x40011
    4bb0:	80078793          	addi	a5,a5,-2048 # 40010800 <_eusrstack+0x20008800>
    4bb4:	6711                	lui	a4,0x4
    4bb6:	cbd8                	sw	a4,20(a5)
    4bb8:	0001                	nop
    4bba:	200067b7          	lui	a5,0x20006
    4bbe:	5f878793          	addi	a5,a5,1528 # 200065f8 <DAP_Data>
    4bc2:	43dc                	lw	a5,4(a5)
    4bc4:	eef42223          	sw	a5,-284(s0)
    4bc8:	ee442783          	lw	a5,-284(s0)
    4bcc:	eef42023          	sw	a5,-288(s0)
    4bd0:	0001                	nop
    4bd2:	ee042783          	lw	a5,-288(s0)
    4bd6:	17fd                	addi	a5,a5,-1
    4bd8:	eef42023          	sw	a5,-288(s0)
    4bdc:	ee042783          	lw	a5,-288(s0)
    4be0:	fbed                	bnez	a5,4bd2 <JTAG_TransferSlow+0x96e>
    4be2:	0001                	nop
    4be4:	400117b7          	lui	a5,0x40011
    4be8:	80078793          	addi	a5,a5,-2048 # 40010800 <_eusrstack+0x20008800>
    4bec:	6711                	lui	a4,0x4
    4bee:	cb98                	sw	a4,16(a5)
    4bf0:	0001                	nop
    4bf2:	200067b7          	lui	a5,0x20006
    4bf6:	5f878793          	addi	a5,a5,1528 # 200065f8 <DAP_Data>
    4bfa:	43dc                	lw	a5,4(a5)
    4bfc:	eef42623          	sw	a5,-276(s0)
    4c00:	eec42783          	lw	a5,-276(s0)
    4c04:	eef42423          	sw	a5,-280(s0)
    4c08:	0001                	nop
    4c0a:	ee842783          	lw	a5,-280(s0)
    4c0e:	17fd                	addi	a5,a5,-1
    4c10:	eef42423          	sw	a5,-280(s0)
    4c14:	ee842783          	lw	a5,-280(s0)
    4c18:	fbed                	bnez	a5,4c0a <JTAG_TransferSlow+0x9a6>
    4c1a:	0001                	nop
    4c1c:	fe442783          	lw	a5,-28(s0)
    4c20:	17fd                	addi	a5,a5,-1
    4c22:	fef42223          	sw	a5,-28(s0)
    4c26:	a8b5                	j	4ca2 <JTAG_TransferSlow+0xa3e>
    4c28:	400117b7          	lui	a5,0x40011
    4c2c:	80078793          	addi	a5,a5,-2048 # 40010800 <_eusrstack+0x20008800>
    4c30:	6711                	lui	a4,0x4
    4c32:	cbd8                	sw	a4,20(a5)
    4c34:	0001                	nop
    4c36:	200067b7          	lui	a5,0x20006
    4c3a:	5f878793          	addi	a5,a5,1528 # 200065f8 <DAP_Data>
    4c3e:	43dc                	lw	a5,4(a5)
    4c40:	ecf42823          	sw	a5,-304(s0)
    4c44:	ed042783          	lw	a5,-304(s0)
    4c48:	ecf42623          	sw	a5,-308(s0)
    4c4c:	0001                	nop
    4c4e:	ecc42783          	lw	a5,-308(s0)
    4c52:	17fd                	addi	a5,a5,-1
    4c54:	ecf42623          	sw	a5,-308(s0)
    4c58:	ecc42783          	lw	a5,-308(s0)
    4c5c:	fbed                	bnez	a5,4c4e <JTAG_TransferSlow+0x9ea>
    4c5e:	0001                	nop
    4c60:	400117b7          	lui	a5,0x40011
    4c64:	80078793          	addi	a5,a5,-2048 # 40010800 <_eusrstack+0x20008800>
    4c68:	6711                	lui	a4,0x4
    4c6a:	cb98                	sw	a4,16(a5)
    4c6c:	0001                	nop
    4c6e:	200067b7          	lui	a5,0x20006
    4c72:	5f878793          	addi	a5,a5,1528 # 200065f8 <DAP_Data>
    4c76:	43dc                	lw	a5,4(a5)
    4c78:	ecf42c23          	sw	a5,-296(s0)
    4c7c:	ed842783          	lw	a5,-296(s0)
    4c80:	ecf42a23          	sw	a5,-300(s0)
    4c84:	0001                	nop
    4c86:	ed442783          	lw	a5,-300(s0)
    4c8a:	17fd                	addi	a5,a5,-1
    4c8c:	ecf42a23          	sw	a5,-300(s0)
    4c90:	ed442783          	lw	a5,-300(s0)
    4c94:	fbed                	bnez	a5,4c86 <JTAG_TransferSlow+0xa22>
    4c96:	0001                	nop
    4c98:	fe442783          	lw	a5,-28(s0)
    4c9c:	17fd                	addi	a5,a5,-1
    4c9e:	fef42223          	sw	a5,-28(s0)
    4ca2:	fe442783          	lw	a5,-28(s0)
    4ca6:	f3c9                	bnez	a5,4c28 <JTAG_TransferSlow+0x9c4>
    4ca8:	400117b7          	lui	a5,0x40011
    4cac:	80078793          	addi	a5,a5,-2048 # 40010800 <_eusrstack+0x20008800>
    4cb0:	6709                	lui	a4,0x2
    4cb2:	cb98                	sw	a4,16(a5)
    4cb4:	0001                	nop
    4cb6:	400117b7          	lui	a5,0x40011
    4cba:	80078793          	addi	a5,a5,-2048 # 40010800 <_eusrstack+0x20008800>
    4cbe:	6711                	lui	a4,0x4
    4cc0:	cbd8                	sw	a4,20(a5)
    4cc2:	0001                	nop
    4cc4:	200067b7          	lui	a5,0x20006
    4cc8:	5f878793          	addi	a5,a5,1528 # 200065f8 <DAP_Data>
    4ccc:	43dc                	lw	a5,4(a5)
    4cce:	ecf42023          	sw	a5,-320(s0)
    4cd2:	ec042783          	lw	a5,-320(s0)
    4cd6:	eaf42e23          	sw	a5,-324(s0)
    4cda:	0001                	nop
    4cdc:	ebc42783          	lw	a5,-324(s0)
    4ce0:	17fd                	addi	a5,a5,-1
    4ce2:	eaf42e23          	sw	a5,-324(s0)
    4ce6:	ebc42783          	lw	a5,-324(s0)
    4cea:	fbed                	bnez	a5,4cdc <JTAG_TransferSlow+0xa78>
    4cec:	0001                	nop
    4cee:	400117b7          	lui	a5,0x40011
    4cf2:	80078793          	addi	a5,a5,-2048 # 40010800 <_eusrstack+0x20008800>
    4cf6:	6711                	lui	a4,0x4
    4cf8:	cb98                	sw	a4,16(a5)
    4cfa:	0001                	nop
    4cfc:	200067b7          	lui	a5,0x20006
    4d00:	5f878793          	addi	a5,a5,1528 # 200065f8 <DAP_Data>
    4d04:	43dc                	lw	a5,4(a5)
    4d06:	ecf42423          	sw	a5,-312(s0)
    4d0a:	ec842783          	lw	a5,-312(s0)
    4d0e:	ecf42223          	sw	a5,-316(s0)
    4d12:	0001                	nop
    4d14:	ec442783          	lw	a5,-316(s0)
    4d18:	17fd                	addi	a5,a5,-1
    4d1a:	ecf42223          	sw	a5,-316(s0)
    4d1e:	ec442783          	lw	a5,-316(s0)
    4d22:	fbed                	bnez	a5,4d14 <JTAG_TransferSlow+0xab0>
    4d24:	a075                	j	4dd0 <JTAG_TransferSlow+0xb6c>
    4d26:	400117b7          	lui	a5,0x40011
    4d2a:	80078793          	addi	a5,a5,-2048 # 40010800 <_eusrstack+0x20008800>
    4d2e:	6709                	lui	a4,0x2
    4d30:	cb98                	sw	a4,16(a5)
    4d32:	0001                	nop
    4d34:	fe842783          	lw	a5,-24(s0)
    4d38:	eaf42423          	sw	a5,-344(s0)
    4d3c:	ea842783          	lw	a5,-344(s0)
    4d40:	8b85                	andi	a5,a5,1
    4d42:	cb81                	beqz	a5,4d52 <JTAG_TransferSlow+0xaee>
    4d44:	400117b7          	lui	a5,0x40011
    4d48:	c0078793          	addi	a5,a5,-1024 # 40010c00 <_eusrstack+0x20008c00>
    4d4c:	6721                	lui	a4,0x8
    4d4e:	cb98                	sw	a4,16(a5)
    4d50:	a039                	j	4d5e <JTAG_TransferSlow+0xafa>
    4d52:	400117b7          	lui	a5,0x40011
    4d56:	c0078793          	addi	a5,a5,-1024 # 40010c00 <_eusrstack+0x20008c00>
    4d5a:	6721                	lui	a4,0x8
    4d5c:	cbd8                	sw	a4,20(a5)
    4d5e:	0001                	nop
    4d60:	400117b7          	lui	a5,0x40011
    4d64:	80078793          	addi	a5,a5,-2048 # 40010800 <_eusrstack+0x20008800>
    4d68:	6711                	lui	a4,0x4
    4d6a:	cbd8                	sw	a4,20(a5)
    4d6c:	0001                	nop
    4d6e:	200067b7          	lui	a5,0x20006
    4d72:	5f878793          	addi	a5,a5,1528 # 200065f8 <DAP_Data>
    4d76:	43dc                	lw	a5,4(a5)
    4d78:	eaf42823          	sw	a5,-336(s0)
    4d7c:	eb042783          	lw	a5,-336(s0)
    4d80:	eaf42623          	sw	a5,-340(s0)
    4d84:	0001                	nop
    4d86:	eac42783          	lw	a5,-340(s0)
    4d8a:	17fd                	addi	a5,a5,-1
    4d8c:	eaf42623          	sw	a5,-340(s0)
    4d90:	eac42783          	lw	a5,-340(s0)
    4d94:	fbed                	bnez	a5,4d86 <JTAG_TransferSlow+0xb22>
    4d96:	0001                	nop
    4d98:	400117b7          	lui	a5,0x40011
    4d9c:	80078793          	addi	a5,a5,-2048 # 40010800 <_eusrstack+0x20008800>
    4da0:	6711                	lui	a4,0x4
    4da2:	cb98                	sw	a4,16(a5)
    4da4:	0001                	nop
    4da6:	200067b7          	lui	a5,0x20006
    4daa:	5f878793          	addi	a5,a5,1528 # 200065f8 <DAP_Data>
    4dae:	43dc                	lw	a5,4(a5)
    4db0:	eaf42c23          	sw	a5,-328(s0)
    4db4:	eb842783          	lw	a5,-328(s0)
    4db8:	eaf42a23          	sw	a5,-332(s0)
    4dbc:	0001                	nop
    4dbe:	eb442783          	lw	a5,-332(s0)
    4dc2:	17fd                	addi	a5,a5,-1
    4dc4:	eaf42a23          	sw	a5,-332(s0)
    4dc8:	eb442783          	lw	a5,-332(s0)
    4dcc:	fbed                	bnez	a5,4dbe <JTAG_TransferSlow+0xb5a>
    4dce:	0001                	nop
    4dd0:	400117b7          	lui	a5,0x40011
    4dd4:	80078793          	addi	a5,a5,-2048 # 40010800 <_eusrstack+0x20008800>
    4dd8:	6711                	lui	a4,0x4
    4dda:	cbd8                	sw	a4,20(a5)
    4ddc:	0001                	nop
    4dde:	200067b7          	lui	a5,0x20006
    4de2:	5f878793          	addi	a5,a5,1528 # 200065f8 <DAP_Data>
    4de6:	43dc                	lw	a5,4(a5)
    4de8:	e8f42423          	sw	a5,-376(s0)
    4dec:	e8842783          	lw	a5,-376(s0)
    4df0:	e8f42223          	sw	a5,-380(s0)
    4df4:	0001                	nop
    4df6:	e8442783          	lw	a5,-380(s0)
    4dfa:	17fd                	addi	a5,a5,-1
    4dfc:	e8f42223          	sw	a5,-380(s0)
    4e00:	e8442783          	lw	a5,-380(s0)
    4e04:	fbed                	bnez	a5,4df6 <JTAG_TransferSlow+0xb92>
    4e06:	0001                	nop
    4e08:	400117b7          	lui	a5,0x40011
    4e0c:	80078793          	addi	a5,a5,-2048 # 40010800 <_eusrstack+0x20008800>
    4e10:	6711                	lui	a4,0x4
    4e12:	cb98                	sw	a4,16(a5)
    4e14:	0001                	nop
    4e16:	200067b7          	lui	a5,0x20006
    4e1a:	5f878793          	addi	a5,a5,1528 # 200065f8 <DAP_Data>
    4e1e:	43dc                	lw	a5,4(a5)
    4e20:	e8f42823          	sw	a5,-368(s0)
    4e24:	e9042783          	lw	a5,-368(s0)
    4e28:	e8f42623          	sw	a5,-372(s0)
    4e2c:	0001                	nop
    4e2e:	e8c42783          	lw	a5,-372(s0)
    4e32:	17fd                	addi	a5,a5,-1
    4e34:	e8f42623          	sw	a5,-372(s0)
    4e38:	e8c42783          	lw	a5,-372(s0)
    4e3c:	fbed                	bnez	a5,4e2e <JTAG_TransferSlow+0xbca>
    4e3e:	0001                	nop
    4e40:	400117b7          	lui	a5,0x40011
    4e44:	80078793          	addi	a5,a5,-2048 # 40010800 <_eusrstack+0x20008800>
    4e48:	6709                	lui	a4,0x2
    4e4a:	cbd8                	sw	a4,20(a5)
    4e4c:	0001                	nop
    4e4e:	400117b7          	lui	a5,0x40011
    4e52:	80078793          	addi	a5,a5,-2048 # 40010800 <_eusrstack+0x20008800>
    4e56:	6711                	lui	a4,0x4
    4e58:	cbd8                	sw	a4,20(a5)
    4e5a:	0001                	nop
    4e5c:	200067b7          	lui	a5,0x20006
    4e60:	5f878793          	addi	a5,a5,1528 # 200065f8 <DAP_Data>
    4e64:	43dc                	lw	a5,4(a5)
    4e66:	e8f42c23          	sw	a5,-360(s0)
    4e6a:	e9842783          	lw	a5,-360(s0)
    4e6e:	e8f42a23          	sw	a5,-364(s0)
    4e72:	0001                	nop
    4e74:	e9442783          	lw	a5,-364(s0)
    4e78:	17fd                	addi	a5,a5,-1
    4e7a:	e8f42a23          	sw	a5,-364(s0)
    4e7e:	e9442783          	lw	a5,-364(s0)
    4e82:	fbed                	bnez	a5,4e74 <JTAG_TransferSlow+0xc10>
    4e84:	0001                	nop
    4e86:	400117b7          	lui	a5,0x40011
    4e8a:	80078793          	addi	a5,a5,-2048 # 40010800 <_eusrstack+0x20008800>
    4e8e:	6711                	lui	a4,0x4
    4e90:	cb98                	sw	a4,16(a5)
    4e92:	0001                	nop
    4e94:	200067b7          	lui	a5,0x20006
    4e98:	5f878793          	addi	a5,a5,1528 # 200065f8 <DAP_Data>
    4e9c:	43dc                	lw	a5,4(a5)
    4e9e:	eaf42023          	sw	a5,-352(s0)
    4ea2:	ea042783          	lw	a5,-352(s0)
    4ea6:	e8f42e23          	sw	a5,-356(s0)
    4eaa:	0001                	nop
    4eac:	e9c42783          	lw	a5,-356(s0)
    4eb0:	17fd                	addi	a5,a5,-1
    4eb2:	e8f42e23          	sw	a5,-356(s0)
    4eb6:	e9c42783          	lw	a5,-356(s0)
    4eba:	fbed                	bnez	a5,4eac <JTAG_TransferSlow+0xc48>
    4ebc:	0001                	nop
    4ebe:	4785                	li	a5,1
    4ec0:	eaf42223          	sw	a5,-348(s0)
    4ec4:	ea442783          	lw	a5,-348(s0)
    4ec8:	8b85                	andi	a5,a5,1
    4eca:	cb81                	beqz	a5,4eda <JTAG_TransferSlow+0xc76>
    4ecc:	400117b7          	lui	a5,0x40011
    4ed0:	c0078793          	addi	a5,a5,-1024 # 40010c00 <_eusrstack+0x20008c00>
    4ed4:	6721                	lui	a4,0x8
    4ed6:	cb98                	sw	a4,16(a5)
    4ed8:	a039                	j	4ee6 <JTAG_TransferSlow+0xc82>
    4eda:	400117b7          	lui	a5,0x40011
    4ede:	c0078793          	addi	a5,a5,-1024 # 40010c00 <_eusrstack+0x20008c00>
    4ee2:	6721                	lui	a4,0x8
    4ee4:	cbd8                	sw	a4,20(a5)
    4ee6:	0001                	nop
    4ee8:	e6c42783          	lw	a5,-404(s0)
    4eec:	0807f793          	andi	a5,a5,128
    4ef0:	cb89                	beqz	a5,4f02 <JTAG_TransferSlow+0xc9e>
    4ef2:	834fe0ef          	jal	ra,2f26 <TIMESTAMP_GET>
    4ef6:	872a                	mv	a4,a0
    4ef8:	200067b7          	lui	a5,0x20006
    4efc:	5f878793          	addi	a5,a5,1528 # 200065f8 <DAP_Data>
    4f00:	c798                	sw	a4,8(a5)
    4f02:	200067b7          	lui	a5,0x20006
    4f06:	5f878793          	addi	a5,a5,1528 # 200065f8 <DAP_Data>
    4f0a:	27dc                	.2byte	0x27dc
    4f0c:	fef42223          	sw	a5,-28(s0)
    4f10:	a88d                	j	4f82 <JTAG_TransferSlow+0xd1e>
    4f12:	400117b7          	lui	a5,0x40011
    4f16:	80078793          	addi	a5,a5,-2048 # 40010800 <_eusrstack+0x20008800>
    4f1a:	6711                	lui	a4,0x4
    4f1c:	cbd8                	sw	a4,20(a5)
    4f1e:	0001                	nop
    4f20:	200067b7          	lui	a5,0x20006
    4f24:	5f878793          	addi	a5,a5,1528 # 200065f8 <DAP_Data>
    4f28:	43dc                	lw	a5,4(a5)
    4f2a:	e6f42c23          	sw	a5,-392(s0)
    4f2e:	e7842783          	lw	a5,-392(s0)
    4f32:	e6f42a23          	sw	a5,-396(s0)
    4f36:	0001                	nop
    4f38:	e7442783          	lw	a5,-396(s0)
    4f3c:	17fd                	addi	a5,a5,-1
    4f3e:	e6f42a23          	sw	a5,-396(s0)
    4f42:	e7442783          	lw	a5,-396(s0)
    4f46:	fbed                	bnez	a5,4f38 <JTAG_TransferSlow+0xcd4>
    4f48:	0001                	nop
    4f4a:	400117b7          	lui	a5,0x40011
    4f4e:	80078793          	addi	a5,a5,-2048 # 40010800 <_eusrstack+0x20008800>
    4f52:	6711                	lui	a4,0x4
    4f54:	cb98                	sw	a4,16(a5)
    4f56:	0001                	nop
    4f58:	200067b7          	lui	a5,0x20006
    4f5c:	5f878793          	addi	a5,a5,1528 # 200065f8 <DAP_Data>
    4f60:	43dc                	lw	a5,4(a5)
    4f62:	e8f42023          	sw	a5,-384(s0)
    4f66:	e8042783          	lw	a5,-384(s0)
    4f6a:	e6f42e23          	sw	a5,-388(s0)
    4f6e:	0001                	nop
    4f70:	e7c42783          	lw	a5,-388(s0)
    4f74:	17fd                	addi	a5,a5,-1
    4f76:	e6f42e23          	sw	a5,-388(s0)
    4f7a:	e7c42783          	lw	a5,-388(s0)
    4f7e:	fbed                	bnez	a5,4f70 <JTAG_TransferSlow+0xd0c>
    4f80:	0001                	nop
    4f82:	fe442783          	lw	a5,-28(s0)
    4f86:	fff78713          	addi	a4,a5,-1
    4f8a:	fee42223          	sw	a4,-28(s0)
    4f8e:	f3d1                	bnez	a5,4f12 <JTAG_TransferSlow+0xcae>
    4f90:	fe042783          	lw	a5,-32(s0)
    4f94:	0ff7f793          	zext.b	a5,a5
    4f98:	853e                	mv	a0,a5
    4f9a:	19c12083          	lw	ra,412(sp)
    4f9e:	19812403          	lw	s0,408(sp)
    4fa2:	611d                	addi	sp,sp,416
    4fa4:	8082                	ret

00004fa6 <JTAG_ReadIDCode>:
    4fa6:	7135                	addi	sp,sp,-160
    4fa8:	cf22                	sw	s0,156(sp)
    4faa:	1100                	addi	s0,sp,160
    4fac:	400117b7          	lui	a5,0x40011
    4fb0:	80078793          	addi	a5,a5,-2048 # 40010800 <_eusrstack+0x20008800>
    4fb4:	6709                	lui	a4,0x2
    4fb6:	cb98                	sw	a4,16(a5)
    4fb8:	0001                	nop
    4fba:	400117b7          	lui	a5,0x40011
    4fbe:	80078793          	addi	a5,a5,-2048 # 40010800 <_eusrstack+0x20008800>
    4fc2:	6711                	lui	a4,0x4
    4fc4:	cbd8                	sw	a4,20(a5)
    4fc6:	0001                	nop
    4fc8:	200067b7          	lui	a5,0x20006
    4fcc:	5f878793          	addi	a5,a5,1528 # 200065f8 <DAP_Data>
    4fd0:	43dc                	lw	a5,4(a5)
    4fd2:	faf42c23          	sw	a5,-72(s0)
    4fd6:	fb842783          	lw	a5,-72(s0)
    4fda:	faf42a23          	sw	a5,-76(s0)
    4fde:	0001                	nop
    4fe0:	fb442783          	lw	a5,-76(s0)
    4fe4:	17fd                	addi	a5,a5,-1
    4fe6:	faf42a23          	sw	a5,-76(s0)
    4fea:	fb442783          	lw	a5,-76(s0)
    4fee:	fbed                	bnez	a5,4fe0 <JTAG_ReadIDCode+0x3a>
    4ff0:	0001                	nop
    4ff2:	400117b7          	lui	a5,0x40011
    4ff6:	80078793          	addi	a5,a5,-2048 # 40010800 <_eusrstack+0x20008800>
    4ffa:	6711                	lui	a4,0x4
    4ffc:	cb98                	sw	a4,16(a5)
    4ffe:	0001                	nop
    5000:	200067b7          	lui	a5,0x20006
    5004:	5f878793          	addi	a5,a5,1528 # 200065f8 <DAP_Data>
    5008:	43dc                	lw	a5,4(a5)
    500a:	fcf42023          	sw	a5,-64(s0)
    500e:	fc042783          	lw	a5,-64(s0)
    5012:	faf42e23          	sw	a5,-68(s0)
    5016:	0001                	nop
    5018:	fbc42783          	lw	a5,-68(s0)
    501c:	17fd                	addi	a5,a5,-1
    501e:	faf42e23          	sw	a5,-68(s0)
    5022:	fbc42783          	lw	a5,-68(s0)
    5026:	fbed                	bnez	a5,5018 <JTAG_ReadIDCode+0x72>
    5028:	0001                	nop
    502a:	400117b7          	lui	a5,0x40011
    502e:	80078793          	addi	a5,a5,-2048 # 40010800 <_eusrstack+0x20008800>
    5032:	6709                	lui	a4,0x2
    5034:	cbd8                	sw	a4,20(a5)
    5036:	0001                	nop
    5038:	400117b7          	lui	a5,0x40011
    503c:	80078793          	addi	a5,a5,-2048 # 40010800 <_eusrstack+0x20008800>
    5040:	6711                	lui	a4,0x4
    5042:	cbd8                	sw	a4,20(a5)
    5044:	0001                	nop
    5046:	200067b7          	lui	a5,0x20006
    504a:	5f878793          	addi	a5,a5,1528 # 200065f8 <DAP_Data>
    504e:	43dc                	lw	a5,4(a5)
    5050:	fcf42423          	sw	a5,-56(s0)
    5054:	fc842783          	lw	a5,-56(s0)
    5058:	fcf42223          	sw	a5,-60(s0)
    505c:	0001                	nop
    505e:	fc442783          	lw	a5,-60(s0)
    5062:	17fd                	addi	a5,a5,-1
    5064:	fcf42223          	sw	a5,-60(s0)
    5068:	fc442783          	lw	a5,-60(s0)
    506c:	fbed                	bnez	a5,505e <JTAG_ReadIDCode+0xb8>
    506e:	0001                	nop
    5070:	400117b7          	lui	a5,0x40011
    5074:	80078793          	addi	a5,a5,-2048 # 40010800 <_eusrstack+0x20008800>
    5078:	6711                	lui	a4,0x4
    507a:	cb98                	sw	a4,16(a5)
    507c:	0001                	nop
    507e:	200067b7          	lui	a5,0x20006
    5082:	5f878793          	addi	a5,a5,1528 # 200065f8 <DAP_Data>
    5086:	43dc                	lw	a5,4(a5)
    5088:	fcf42823          	sw	a5,-48(s0)
    508c:	fd042783          	lw	a5,-48(s0)
    5090:	fcf42623          	sw	a5,-52(s0)
    5094:	0001                	nop
    5096:	fcc42783          	lw	a5,-52(s0)
    509a:	17fd                	addi	a5,a5,-1
    509c:	fcf42623          	sw	a5,-52(s0)
    50a0:	fcc42783          	lw	a5,-52(s0)
    50a4:	fbed                	bnez	a5,5096 <JTAG_ReadIDCode+0xf0>
    50a6:	0001                	nop
    50a8:	400117b7          	lui	a5,0x40011
    50ac:	80078793          	addi	a5,a5,-2048 # 40010800 <_eusrstack+0x20008800>
    50b0:	6711                	lui	a4,0x4
    50b2:	cbd8                	sw	a4,20(a5)
    50b4:	0001                	nop
    50b6:	200067b7          	lui	a5,0x20006
    50ba:	5f878793          	addi	a5,a5,1528 # 200065f8 <DAP_Data>
    50be:	43dc                	lw	a5,4(a5)
    50c0:	fcf42c23          	sw	a5,-40(s0)
    50c4:	fd842783          	lw	a5,-40(s0)
    50c8:	fcf42a23          	sw	a5,-44(s0)
    50cc:	0001                	nop
    50ce:	fd442783          	lw	a5,-44(s0)
    50d2:	17fd                	addi	a5,a5,-1
    50d4:	fcf42a23          	sw	a5,-44(s0)
    50d8:	fd442783          	lw	a5,-44(s0)
    50dc:	fbed                	bnez	a5,50ce <JTAG_ReadIDCode+0x128>
    50de:	0001                	nop
    50e0:	400117b7          	lui	a5,0x40011
    50e4:	80078793          	addi	a5,a5,-2048 # 40010800 <_eusrstack+0x20008800>
    50e8:	6711                	lui	a4,0x4
    50ea:	cb98                	sw	a4,16(a5)
    50ec:	0001                	nop
    50ee:	200067b7          	lui	a5,0x20006
    50f2:	5f878793          	addi	a5,a5,1528 # 200065f8 <DAP_Data>
    50f6:	43dc                	lw	a5,4(a5)
    50f8:	fef42023          	sw	a5,-32(s0)
    50fc:	fe042783          	lw	a5,-32(s0)
    5100:	fcf42e23          	sw	a5,-36(s0)
    5104:	0001                	nop
    5106:	fdc42783          	lw	a5,-36(s0)
    510a:	17fd                	addi	a5,a5,-1
    510c:	fcf42e23          	sw	a5,-36(s0)
    5110:	fdc42783          	lw	a5,-36(s0)
    5114:	fbed                	bnez	a5,5106 <JTAG_ReadIDCode+0x160>
    5116:	0001                	nop
    5118:	200067b7          	lui	a5,0x20006
    511c:	5f878793          	addi	a5,a5,1528 # 200065f8 <DAP_Data>
    5120:	3fbc                	.2byte	0x3fbc
    5122:	fef42423          	sw	a5,-24(s0)
    5126:	a8b5                	j	51a2 <JTAG_ReadIDCode+0x1fc>
    5128:	400117b7          	lui	a5,0x40011
    512c:	80078793          	addi	a5,a5,-2048 # 40010800 <_eusrstack+0x20008800>
    5130:	6711                	lui	a4,0x4
    5132:	cbd8                	sw	a4,20(a5)
    5134:	0001                	nop
    5136:	200067b7          	lui	a5,0x20006
    513a:	5f878793          	addi	a5,a5,1528 # 200065f8 <DAP_Data>
    513e:	43dc                	lw	a5,4(a5)
    5140:	faf42423          	sw	a5,-88(s0)
    5144:	fa842783          	lw	a5,-88(s0)
    5148:	faf42223          	sw	a5,-92(s0)
    514c:	0001                	nop
    514e:	fa442783          	lw	a5,-92(s0)
    5152:	17fd                	addi	a5,a5,-1
    5154:	faf42223          	sw	a5,-92(s0)
    5158:	fa442783          	lw	a5,-92(s0)
    515c:	fbed                	bnez	a5,514e <JTAG_ReadIDCode+0x1a8>
    515e:	0001                	nop
    5160:	400117b7          	lui	a5,0x40011
    5164:	80078793          	addi	a5,a5,-2048 # 40010800 <_eusrstack+0x20008800>
    5168:	6711                	lui	a4,0x4
    516a:	cb98                	sw	a4,16(a5)
    516c:	0001                	nop
    516e:	200067b7          	lui	a5,0x20006
    5172:	5f878793          	addi	a5,a5,1528 # 200065f8 <DAP_Data>
    5176:	43dc                	lw	a5,4(a5)
    5178:	faf42823          	sw	a5,-80(s0)
    517c:	fb042783          	lw	a5,-80(s0)
    5180:	faf42623          	sw	a5,-84(s0)
    5184:	0001                	nop
    5186:	fac42783          	lw	a5,-84(s0)
    518a:	17fd                	addi	a5,a5,-1
    518c:	faf42623          	sw	a5,-84(s0)
    5190:	fac42783          	lw	a5,-84(s0)
    5194:	fbed                	bnez	a5,5186 <JTAG_ReadIDCode+0x1e0>
    5196:	0001                	nop
    5198:	fe842783          	lw	a5,-24(s0)
    519c:	17fd                	addi	a5,a5,-1
    519e:	fef42423          	sw	a5,-24(s0)
    51a2:	fe842783          	lw	a5,-24(s0)
    51a6:	f3c9                	bnez	a5,5128 <JTAG_ReadIDCode+0x182>
    51a8:	fe042623          	sw	zero,-20(s0)
    51ac:	47fd                	li	a5,31
    51ae:	fef42423          	sw	a5,-24(s0)
    51b2:	a845                	j	5262 <JTAG_ReadIDCode+0x2bc>
    51b4:	400117b7          	lui	a5,0x40011
    51b8:	80078793          	addi	a5,a5,-2048 # 40010800 <_eusrstack+0x20008800>
    51bc:	6711                	lui	a4,0x4
    51be:	cbd8                	sw	a4,20(a5)
    51c0:	0001                	nop
    51c2:	200067b7          	lui	a5,0x20006
    51c6:	5f878793          	addi	a5,a5,1528 # 200065f8 <DAP_Data>
    51ca:	43dc                	lw	a5,4(a5)
    51cc:	f8f42c23          	sw	a5,-104(s0)
    51d0:	f9842783          	lw	a5,-104(s0)
    51d4:	f8f42a23          	sw	a5,-108(s0)
    51d8:	0001                	nop
    51da:	f9442783          	lw	a5,-108(s0)
    51de:	17fd                	addi	a5,a5,-1
    51e0:	f8f42a23          	sw	a5,-108(s0)
    51e4:	f9442783          	lw	a5,-108(s0)
    51e8:	fbed                	bnez	a5,51da <JTAG_ReadIDCode+0x234>
    51ea:	0001                	nop
    51ec:	400117b7          	lui	a5,0x40011
    51f0:	c0078793          	addi	a5,a5,-1024 # 40010c00 <_eusrstack+0x20008c00>
    51f4:	4798                	lw	a4,8(a5)
    51f6:	6791                	lui	a5,0x4
    51f8:	8ff9                	and	a5,a5,a4
    51fa:	00f037b3          	snez	a5,a5
    51fe:	0ff7f793          	zext.b	a5,a5
    5202:	fef42223          	sw	a5,-28(s0)
    5206:	400117b7          	lui	a5,0x40011
    520a:	80078793          	addi	a5,a5,-2048 # 40010800 <_eusrstack+0x20008800>
    520e:	6711                	lui	a4,0x4
    5210:	cb98                	sw	a4,16(a5)
    5212:	0001                	nop
    5214:	200067b7          	lui	a5,0x20006
    5218:	5f878793          	addi	a5,a5,1528 # 200065f8 <DAP_Data>
    521c:	43dc                	lw	a5,4(a5)
    521e:	faf42023          	sw	a5,-96(s0)
    5222:	fa042783          	lw	a5,-96(s0)
    5226:	f8f42e23          	sw	a5,-100(s0)
    522a:	0001                	nop
    522c:	f9c42783          	lw	a5,-100(s0)
    5230:	17fd                	addi	a5,a5,-1
    5232:	f8f42e23          	sw	a5,-100(s0)
    5236:	f9c42783          	lw	a5,-100(s0)
    523a:	fbed                	bnez	a5,522c <JTAG_ReadIDCode+0x286>
    523c:	0001                	nop
    523e:	fe442783          	lw	a5,-28(s0)
    5242:	07fe                	slli	a5,a5,0x1f
    5244:	fec42703          	lw	a4,-20(s0)
    5248:	8fd9                	or	a5,a5,a4
    524a:	fef42623          	sw	a5,-20(s0)
    524e:	fec42783          	lw	a5,-20(s0)
    5252:	8385                	srli	a5,a5,0x1
    5254:	fef42623          	sw	a5,-20(s0)
    5258:	fe842783          	lw	a5,-24(s0)
    525c:	17fd                	addi	a5,a5,-1
    525e:	fef42423          	sw	a5,-24(s0)
    5262:	fe842783          	lw	a5,-24(s0)
    5266:	f7b9                	bnez	a5,51b4 <JTAG_ReadIDCode+0x20e>
    5268:	400117b7          	lui	a5,0x40011
    526c:	80078793          	addi	a5,a5,-2048 # 40010800 <_eusrstack+0x20008800>
    5270:	6709                	lui	a4,0x2
    5272:	cb98                	sw	a4,16(a5)
    5274:	0001                	nop
    5276:	400117b7          	lui	a5,0x40011
    527a:	80078793          	addi	a5,a5,-2048 # 40010800 <_eusrstack+0x20008800>
    527e:	6711                	lui	a4,0x4
    5280:	cbd8                	sw	a4,20(a5)
    5282:	0001                	nop
    5284:	200067b7          	lui	a5,0x20006
    5288:	5f878793          	addi	a5,a5,1528 # 200065f8 <DAP_Data>
    528c:	43dc                	lw	a5,4(a5)
    528e:	f6f42423          	sw	a5,-152(s0)
    5292:	f6842783          	lw	a5,-152(s0)
    5296:	f6f42223          	sw	a5,-156(s0)
    529a:	0001                	nop
    529c:	f6442783          	lw	a5,-156(s0)
    52a0:	17fd                	addi	a5,a5,-1
    52a2:	f6f42223          	sw	a5,-156(s0)
    52a6:	f6442783          	lw	a5,-156(s0)
    52aa:	fbed                	bnez	a5,529c <JTAG_ReadIDCode+0x2f6>
    52ac:	0001                	nop
    52ae:	400117b7          	lui	a5,0x40011
    52b2:	c0078793          	addi	a5,a5,-1024 # 40010c00 <_eusrstack+0x20008c00>
    52b6:	4798                	lw	a4,8(a5)
    52b8:	6791                	lui	a5,0x4
    52ba:	8ff9                	and	a5,a5,a4
    52bc:	00f037b3          	snez	a5,a5
    52c0:	0ff7f793          	zext.b	a5,a5
    52c4:	fef42223          	sw	a5,-28(s0)
    52c8:	400117b7          	lui	a5,0x40011
    52cc:	80078793          	addi	a5,a5,-2048 # 40010800 <_eusrstack+0x20008800>
    52d0:	6711                	lui	a4,0x4
    52d2:	cb98                	sw	a4,16(a5)
    52d4:	0001                	nop
    52d6:	200067b7          	lui	a5,0x20006
    52da:	5f878793          	addi	a5,a5,1528 # 200065f8 <DAP_Data>
    52de:	43dc                	lw	a5,4(a5)
    52e0:	f6f42823          	sw	a5,-144(s0)
    52e4:	f7042783          	lw	a5,-144(s0)
    52e8:	f6f42623          	sw	a5,-148(s0)
    52ec:	0001                	nop
    52ee:	f6c42783          	lw	a5,-148(s0)
    52f2:	17fd                	addi	a5,a5,-1
    52f4:	f6f42623          	sw	a5,-148(s0)
    52f8:	f6c42783          	lw	a5,-148(s0)
    52fc:	fbed                	bnez	a5,52ee <JTAG_ReadIDCode+0x348>
    52fe:	0001                	nop
    5300:	fe442783          	lw	a5,-28(s0)
    5304:	07fe                	slli	a5,a5,0x1f
    5306:	fec42703          	lw	a4,-20(s0)
    530a:	8fd9                	or	a5,a5,a4
    530c:	fef42623          	sw	a5,-20(s0)
    5310:	400117b7          	lui	a5,0x40011
    5314:	80078793          	addi	a5,a5,-2048 # 40010800 <_eusrstack+0x20008800>
    5318:	6711                	lui	a4,0x4
    531a:	cbd8                	sw	a4,20(a5)
    531c:	0001                	nop
    531e:	200067b7          	lui	a5,0x20006
    5322:	5f878793          	addi	a5,a5,1528 # 200065f8 <DAP_Data>
    5326:	43dc                	lw	a5,4(a5)
    5328:	f6f42c23          	sw	a5,-136(s0)
    532c:	f7842783          	lw	a5,-136(s0)
    5330:	f6f42a23          	sw	a5,-140(s0)
    5334:	0001                	nop
    5336:	f7442783          	lw	a5,-140(s0)
    533a:	17fd                	addi	a5,a5,-1
    533c:	f6f42a23          	sw	a5,-140(s0)
    5340:	f7442783          	lw	a5,-140(s0)
    5344:	fbed                	bnez	a5,5336 <JTAG_ReadIDCode+0x390>
    5346:	0001                	nop
    5348:	400117b7          	lui	a5,0x40011
    534c:	80078793          	addi	a5,a5,-2048 # 40010800 <_eusrstack+0x20008800>
    5350:	6711                	lui	a4,0x4
    5352:	cb98                	sw	a4,16(a5)
    5354:	0001                	nop
    5356:	200067b7          	lui	a5,0x20006
    535a:	5f878793          	addi	a5,a5,1528 # 200065f8 <DAP_Data>
    535e:	43dc                	lw	a5,4(a5)
    5360:	f8f42023          	sw	a5,-128(s0)
    5364:	f8042783          	lw	a5,-128(s0)
    5368:	f6f42e23          	sw	a5,-132(s0)
    536c:	0001                	nop
    536e:	f7c42783          	lw	a5,-132(s0)
    5372:	17fd                	addi	a5,a5,-1
    5374:	f6f42e23          	sw	a5,-132(s0)
    5378:	f7c42783          	lw	a5,-132(s0)
    537c:	fbed                	bnez	a5,536e <JTAG_ReadIDCode+0x3c8>
    537e:	0001                	nop
    5380:	400117b7          	lui	a5,0x40011
    5384:	80078793          	addi	a5,a5,-2048 # 40010800 <_eusrstack+0x20008800>
    5388:	6709                	lui	a4,0x2
    538a:	cbd8                	sw	a4,20(a5)
    538c:	0001                	nop
    538e:	400117b7          	lui	a5,0x40011
    5392:	80078793          	addi	a5,a5,-2048 # 40010800 <_eusrstack+0x20008800>
    5396:	6711                	lui	a4,0x4
    5398:	cbd8                	sw	a4,20(a5)
    539a:	0001                	nop
    539c:	200067b7          	lui	a5,0x20006
    53a0:	5f878793          	addi	a5,a5,1528 # 200065f8 <DAP_Data>
    53a4:	43dc                	lw	a5,4(a5)
    53a6:	f8f42423          	sw	a5,-120(s0)
    53aa:	f8842783          	lw	a5,-120(s0)
    53ae:	f8f42223          	sw	a5,-124(s0)
    53b2:	0001                	nop
    53b4:	f8442783          	lw	a5,-124(s0)
    53b8:	17fd                	addi	a5,a5,-1
    53ba:	f8f42223          	sw	a5,-124(s0)
    53be:	f8442783          	lw	a5,-124(s0)
    53c2:	fbed                	bnez	a5,53b4 <JTAG_ReadIDCode+0x40e>
    53c4:	0001                	nop
    53c6:	400117b7          	lui	a5,0x40011
    53ca:	80078793          	addi	a5,a5,-2048 # 40010800 <_eusrstack+0x20008800>
    53ce:	6711                	lui	a4,0x4
    53d0:	cb98                	sw	a4,16(a5)
    53d2:	0001                	nop
    53d4:	200067b7          	lui	a5,0x20006
    53d8:	5f878793          	addi	a5,a5,1528 # 200065f8 <DAP_Data>
    53dc:	43dc                	lw	a5,4(a5)
    53de:	f8f42823          	sw	a5,-112(s0)
    53e2:	f9042783          	lw	a5,-112(s0)
    53e6:	f8f42623          	sw	a5,-116(s0)
    53ea:	0001                	nop
    53ec:	f8c42783          	lw	a5,-116(s0)
    53f0:	17fd                	addi	a5,a5,-1
    53f2:	f8f42623          	sw	a5,-116(s0)
    53f6:	f8c42783          	lw	a5,-116(s0)
    53fa:	fbed                	bnez	a5,53ec <JTAG_ReadIDCode+0x446>
    53fc:	0001                	nop
    53fe:	fec42783          	lw	a5,-20(s0)
    5402:	853e                	mv	a0,a5
    5404:	447a                	lw	s0,156(sp)
    5406:	610d                	addi	sp,sp,160
    5408:	8082                	ret

0000540a <JTAG_WriteAbort>:
    540a:	712d                	addi	sp,sp,-288
    540c:	10812e23          	sw	s0,284(sp)
    5410:	1200                	addi	s0,sp,288
    5412:	eea42623          	sw	a0,-276(s0)
    5416:	400117b7          	lui	a5,0x40011
    541a:	80078793          	addi	a5,a5,-2048 # 40010800 <_eusrstack+0x20008800>
    541e:	6709                	lui	a4,0x2
    5420:	cb98                	sw	a4,16(a5)
    5422:	0001                	nop
    5424:	400117b7          	lui	a5,0x40011
    5428:	80078793          	addi	a5,a5,-2048 # 40010800 <_eusrstack+0x20008800>
    542c:	6711                	lui	a4,0x4
    542e:	cbd8                	sw	a4,20(a5)
    5430:	0001                	nop
    5432:	200067b7          	lui	a5,0x20006
    5436:	5f878793          	addi	a5,a5,1528 # 200065f8 <DAP_Data>
    543a:	43dc                	lw	a5,4(a5)
    543c:	fcf42023          	sw	a5,-64(s0)
    5440:	fc042783          	lw	a5,-64(s0)
    5444:	faf42e23          	sw	a5,-68(s0)
    5448:	0001                	nop
    544a:	fbc42783          	lw	a5,-68(s0)
    544e:	17fd                	addi	a5,a5,-1
    5450:	faf42e23          	sw	a5,-68(s0)
    5454:	fbc42783          	lw	a5,-68(s0)
    5458:	fbed                	bnez	a5,544a <JTAG_WriteAbort+0x40>
    545a:	0001                	nop
    545c:	400117b7          	lui	a5,0x40011
    5460:	80078793          	addi	a5,a5,-2048 # 40010800 <_eusrstack+0x20008800>
    5464:	6711                	lui	a4,0x4
    5466:	cb98                	sw	a4,16(a5)
    5468:	0001                	nop
    546a:	200067b7          	lui	a5,0x20006
    546e:	5f878793          	addi	a5,a5,1528 # 200065f8 <DAP_Data>
    5472:	43dc                	lw	a5,4(a5)
    5474:	fcf42423          	sw	a5,-56(s0)
    5478:	fc842783          	lw	a5,-56(s0)
    547c:	fcf42223          	sw	a5,-60(s0)
    5480:	0001                	nop
    5482:	fc442783          	lw	a5,-60(s0)
    5486:	17fd                	addi	a5,a5,-1
    5488:	fcf42223          	sw	a5,-60(s0)
    548c:	fc442783          	lw	a5,-60(s0)
    5490:	fbed                	bnez	a5,5482 <JTAG_WriteAbort+0x78>
    5492:	0001                	nop
    5494:	400117b7          	lui	a5,0x40011
    5498:	80078793          	addi	a5,a5,-2048 # 40010800 <_eusrstack+0x20008800>
    549c:	6709                	lui	a4,0x2
    549e:	cbd8                	sw	a4,20(a5)
    54a0:	0001                	nop
    54a2:	400117b7          	lui	a5,0x40011
    54a6:	80078793          	addi	a5,a5,-2048 # 40010800 <_eusrstack+0x20008800>
    54aa:	6711                	lui	a4,0x4
    54ac:	cbd8                	sw	a4,20(a5)
    54ae:	0001                	nop
    54b0:	200067b7          	lui	a5,0x20006
    54b4:	5f878793          	addi	a5,a5,1528 # 200065f8 <DAP_Data>
    54b8:	43dc                	lw	a5,4(a5)
    54ba:	fcf42823          	sw	a5,-48(s0)
    54be:	fd042783          	lw	a5,-48(s0)
    54c2:	fcf42623          	sw	a5,-52(s0)
    54c6:	0001                	nop
    54c8:	fcc42783          	lw	a5,-52(s0)
    54cc:	17fd                	addi	a5,a5,-1
    54ce:	fcf42623          	sw	a5,-52(s0)
    54d2:	fcc42783          	lw	a5,-52(s0)
    54d6:	fbed                	bnez	a5,54c8 <JTAG_WriteAbort+0xbe>
    54d8:	0001                	nop
    54da:	400117b7          	lui	a5,0x40011
    54de:	80078793          	addi	a5,a5,-2048 # 40010800 <_eusrstack+0x20008800>
    54e2:	6711                	lui	a4,0x4
    54e4:	cb98                	sw	a4,16(a5)
    54e6:	0001                	nop
    54e8:	200067b7          	lui	a5,0x20006
    54ec:	5f878793          	addi	a5,a5,1528 # 200065f8 <DAP_Data>
    54f0:	43dc                	lw	a5,4(a5)
    54f2:	fcf42c23          	sw	a5,-40(s0)
    54f6:	fd842783          	lw	a5,-40(s0)
    54fa:	fcf42a23          	sw	a5,-44(s0)
    54fe:	0001                	nop
    5500:	fd442783          	lw	a5,-44(s0)
    5504:	17fd                	addi	a5,a5,-1
    5506:	fcf42a23          	sw	a5,-44(s0)
    550a:	fd442783          	lw	a5,-44(s0)
    550e:	fbed                	bnez	a5,5500 <JTAG_WriteAbort+0xf6>
    5510:	0001                	nop
    5512:	400117b7          	lui	a5,0x40011
    5516:	80078793          	addi	a5,a5,-2048 # 40010800 <_eusrstack+0x20008800>
    551a:	6711                	lui	a4,0x4
    551c:	cbd8                	sw	a4,20(a5)
    551e:	0001                	nop
    5520:	200067b7          	lui	a5,0x20006
    5524:	5f878793          	addi	a5,a5,1528 # 200065f8 <DAP_Data>
    5528:	43dc                	lw	a5,4(a5)
    552a:	fef42023          	sw	a5,-32(s0)
    552e:	fe042783          	lw	a5,-32(s0)
    5532:	fcf42e23          	sw	a5,-36(s0)
    5536:	0001                	nop
    5538:	fdc42783          	lw	a5,-36(s0)
    553c:	17fd                	addi	a5,a5,-1
    553e:	fcf42e23          	sw	a5,-36(s0)
    5542:	fdc42783          	lw	a5,-36(s0)
    5546:	fbed                	bnez	a5,5538 <JTAG_WriteAbort+0x12e>
    5548:	0001                	nop
    554a:	400117b7          	lui	a5,0x40011
    554e:	80078793          	addi	a5,a5,-2048 # 40010800 <_eusrstack+0x20008800>
    5552:	6711                	lui	a4,0x4
    5554:	cb98                	sw	a4,16(a5)
    5556:	0001                	nop
    5558:	200067b7          	lui	a5,0x20006
    555c:	5f878793          	addi	a5,a5,1528 # 200065f8 <DAP_Data>
    5560:	43dc                	lw	a5,4(a5)
    5562:	fef42423          	sw	a5,-24(s0)
    5566:	fe842783          	lw	a5,-24(s0)
    556a:	fef42223          	sw	a5,-28(s0)
    556e:	0001                	nop
    5570:	fe442783          	lw	a5,-28(s0)
    5574:	17fd                	addi	a5,a5,-1
    5576:	fef42223          	sw	a5,-28(s0)
    557a:	fe442783          	lw	a5,-28(s0)
    557e:	fbed                	bnez	a5,5570 <JTAG_WriteAbort+0x166>
    5580:	0001                	nop
    5582:	200067b7          	lui	a5,0x20006
    5586:	5f878793          	addi	a5,a5,1528 # 200065f8 <DAP_Data>
    558a:	3fbc                	.2byte	0x3fbc
    558c:	fef42623          	sw	a5,-20(s0)
    5590:	a8b5                	j	560c <JTAG_WriteAbort+0x202>
    5592:	400117b7          	lui	a5,0x40011
    5596:	80078793          	addi	a5,a5,-2048 # 40010800 <_eusrstack+0x20008800>
    559a:	6711                	lui	a4,0x4
    559c:	cbd8                	sw	a4,20(a5)
    559e:	0001                	nop
    55a0:	200067b7          	lui	a5,0x20006
    55a4:	5f878793          	addi	a5,a5,1528 # 200065f8 <DAP_Data>
    55a8:	43dc                	lw	a5,4(a5)
    55aa:	faf42823          	sw	a5,-80(s0)
    55ae:	fb042783          	lw	a5,-80(s0)
    55b2:	faf42623          	sw	a5,-84(s0)
    55b6:	0001                	nop
    55b8:	fac42783          	lw	a5,-84(s0)
    55bc:	17fd                	addi	a5,a5,-1
    55be:	faf42623          	sw	a5,-84(s0)
    55c2:	fac42783          	lw	a5,-84(s0)
    55c6:	fbed                	bnez	a5,55b8 <JTAG_WriteAbort+0x1ae>
    55c8:	0001                	nop
    55ca:	400117b7          	lui	a5,0x40011
    55ce:	80078793          	addi	a5,a5,-2048 # 40010800 <_eusrstack+0x20008800>
    55d2:	6711                	lui	a4,0x4
    55d4:	cb98                	sw	a4,16(a5)
    55d6:	0001                	nop
    55d8:	200067b7          	lui	a5,0x20006
    55dc:	5f878793          	addi	a5,a5,1528 # 200065f8 <DAP_Data>
    55e0:	43dc                	lw	a5,4(a5)
    55e2:	faf42c23          	sw	a5,-72(s0)
    55e6:	fb842783          	lw	a5,-72(s0)
    55ea:	faf42a23          	sw	a5,-76(s0)
    55ee:	0001                	nop
    55f0:	fb442783          	lw	a5,-76(s0)
    55f4:	17fd                	addi	a5,a5,-1
    55f6:	faf42a23          	sw	a5,-76(s0)
    55fa:	fb442783          	lw	a5,-76(s0)
    55fe:	fbed                	bnez	a5,55f0 <JTAG_WriteAbort+0x1e6>
    5600:	0001                	nop
    5602:	fec42783          	lw	a5,-20(s0)
    5606:	17fd                	addi	a5,a5,-1
    5608:	fef42623          	sw	a5,-20(s0)
    560c:	fec42783          	lw	a5,-20(s0)
    5610:	f3c9                	bnez	a5,5592 <JTAG_WriteAbort+0x188>
    5612:	f6042c23          	sw	zero,-136(s0)
    5616:	f7842783          	lw	a5,-136(s0)
    561a:	8b85                	andi	a5,a5,1
    561c:	cb81                	beqz	a5,562c <JTAG_WriteAbort+0x222>
    561e:	400117b7          	lui	a5,0x40011
    5622:	c0078793          	addi	a5,a5,-1024 # 40010c00 <_eusrstack+0x20008c00>
    5626:	6721                	lui	a4,0x8
    5628:	cb98                	sw	a4,16(a5)
    562a:	a039                	j	5638 <JTAG_WriteAbort+0x22e>
    562c:	400117b7          	lui	a5,0x40011
    5630:	c0078793          	addi	a5,a5,-1024 # 40010c00 <_eusrstack+0x20008c00>
    5634:	6721                	lui	a4,0x8
    5636:	cbd8                	sw	a4,20(a5)
    5638:	0001                	nop
    563a:	400117b7          	lui	a5,0x40011
    563e:	80078793          	addi	a5,a5,-2048 # 40010800 <_eusrstack+0x20008800>
    5642:	6711                	lui	a4,0x4
    5644:	cbd8                	sw	a4,20(a5)
    5646:	0001                	nop
    5648:	200067b7          	lui	a5,0x20006
    564c:	5f878793          	addi	a5,a5,1528 # 200065f8 <DAP_Data>
    5650:	43dc                	lw	a5,4(a5)
    5652:	f8f42023          	sw	a5,-128(s0)
    5656:	f8042783          	lw	a5,-128(s0)
    565a:	f6f42e23          	sw	a5,-132(s0)
    565e:	0001                	nop
    5660:	f7c42783          	lw	a5,-132(s0)
    5664:	17fd                	addi	a5,a5,-1
    5666:	f6f42e23          	sw	a5,-132(s0)
    566a:	f7c42783          	lw	a5,-132(s0)
    566e:	fbed                	bnez	a5,5660 <JTAG_WriteAbort+0x256>
    5670:	0001                	nop
    5672:	400117b7          	lui	a5,0x40011
    5676:	80078793          	addi	a5,a5,-2048 # 40010800 <_eusrstack+0x20008800>
    567a:	6711                	lui	a4,0x4
    567c:	cb98                	sw	a4,16(a5)
    567e:	0001                	nop
    5680:	200067b7          	lui	a5,0x20006
    5684:	5f878793          	addi	a5,a5,1528 # 200065f8 <DAP_Data>
    5688:	43dc                	lw	a5,4(a5)
    568a:	f8f42423          	sw	a5,-120(s0)
    568e:	f8842783          	lw	a5,-120(s0)
    5692:	f8f42223          	sw	a5,-124(s0)
    5696:	0001                	nop
    5698:	f8442783          	lw	a5,-124(s0)
    569c:	17fd                	addi	a5,a5,-1
    569e:	f8f42223          	sw	a5,-124(s0)
    56a2:	f8442783          	lw	a5,-124(s0)
    56a6:	fbed                	bnez	a5,5698 <JTAG_WriteAbort+0x28e>
    56a8:	0001                	nop
    56aa:	400117b7          	lui	a5,0x40011
    56ae:	80078793          	addi	a5,a5,-2048 # 40010800 <_eusrstack+0x20008800>
    56b2:	6711                	lui	a4,0x4
    56b4:	cbd8                	sw	a4,20(a5)
    56b6:	0001                	nop
    56b8:	200067b7          	lui	a5,0x20006
    56bc:	5f878793          	addi	a5,a5,1528 # 200065f8 <DAP_Data>
    56c0:	43dc                	lw	a5,4(a5)
    56c2:	f8f42823          	sw	a5,-112(s0)
    56c6:	f9042783          	lw	a5,-112(s0)
    56ca:	f8f42623          	sw	a5,-116(s0)
    56ce:	0001                	nop
    56d0:	f8c42783          	lw	a5,-116(s0)
    56d4:	17fd                	addi	a5,a5,-1
    56d6:	f8f42623          	sw	a5,-116(s0)
    56da:	f8c42783          	lw	a5,-116(s0)
    56de:	fbed                	bnez	a5,56d0 <JTAG_WriteAbort+0x2c6>
    56e0:	0001                	nop
    56e2:	400117b7          	lui	a5,0x40011
    56e6:	80078793          	addi	a5,a5,-2048 # 40010800 <_eusrstack+0x20008800>
    56ea:	6711                	lui	a4,0x4
    56ec:	cb98                	sw	a4,16(a5)
    56ee:	0001                	nop
    56f0:	200067b7          	lui	a5,0x20006
    56f4:	5f878793          	addi	a5,a5,1528 # 200065f8 <DAP_Data>
    56f8:	43dc                	lw	a5,4(a5)
    56fa:	f8f42c23          	sw	a5,-104(s0)
    56fe:	f9842783          	lw	a5,-104(s0)
    5702:	f8f42a23          	sw	a5,-108(s0)
    5706:	0001                	nop
    5708:	f9442783          	lw	a5,-108(s0)
    570c:	17fd                	addi	a5,a5,-1
    570e:	f8f42a23          	sw	a5,-108(s0)
    5712:	f9442783          	lw	a5,-108(s0)
    5716:	fbed                	bnez	a5,5708 <JTAG_WriteAbort+0x2fe>
    5718:	0001                	nop
    571a:	400117b7          	lui	a5,0x40011
    571e:	80078793          	addi	a5,a5,-2048 # 40010800 <_eusrstack+0x20008800>
    5722:	6711                	lui	a4,0x4
    5724:	cbd8                	sw	a4,20(a5)
    5726:	0001                	nop
    5728:	200067b7          	lui	a5,0x20006
    572c:	5f878793          	addi	a5,a5,1528 # 200065f8 <DAP_Data>
    5730:	43dc                	lw	a5,4(a5)
    5732:	faf42023          	sw	a5,-96(s0)
    5736:	fa042783          	lw	a5,-96(s0)
    573a:	f8f42e23          	sw	a5,-100(s0)
    573e:	0001                	nop
    5740:	f9c42783          	lw	a5,-100(s0)
    5744:	17fd                	addi	a5,a5,-1
    5746:	f8f42e23          	sw	a5,-100(s0)
    574a:	f9c42783          	lw	a5,-100(s0)
    574e:	fbed                	bnez	a5,5740 <JTAG_WriteAbort+0x336>
    5750:	0001                	nop
    5752:	400117b7          	lui	a5,0x40011
    5756:	80078793          	addi	a5,a5,-2048 # 40010800 <_eusrstack+0x20008800>
    575a:	6711                	lui	a4,0x4
    575c:	cb98                	sw	a4,16(a5)
    575e:	0001                	nop
    5760:	200067b7          	lui	a5,0x20006
    5764:	5f878793          	addi	a5,a5,1528 # 200065f8 <DAP_Data>
    5768:	43dc                	lw	a5,4(a5)
    576a:	faf42423          	sw	a5,-88(s0)
    576e:	fa842783          	lw	a5,-88(s0)
    5772:	faf42223          	sw	a5,-92(s0)
    5776:	0001                	nop
    5778:	fa442783          	lw	a5,-92(s0)
    577c:	17fd                	addi	a5,a5,-1
    577e:	faf42223          	sw	a5,-92(s0)
    5782:	fa442783          	lw	a5,-92(s0)
    5786:	fbed                	bnez	a5,5778 <JTAG_WriteAbort+0x36e>
    5788:	0001                	nop
    578a:	47fd                	li	a5,31
    578c:	fef42623          	sw	a5,-20(s0)
    5790:	a84d                	j	5842 <JTAG_WriteAbort+0x438>
    5792:	eec42783          	lw	a5,-276(s0)
    5796:	f6f42223          	sw	a5,-156(s0)
    579a:	f6442783          	lw	a5,-156(s0)
    579e:	8b85                	andi	a5,a5,1
    57a0:	cb81                	beqz	a5,57b0 <JTAG_WriteAbort+0x3a6>
    57a2:	400117b7          	lui	a5,0x40011
    57a6:	c0078793          	addi	a5,a5,-1024 # 40010c00 <_eusrstack+0x20008c00>
    57aa:	6721                	lui	a4,0x8
    57ac:	cb98                	sw	a4,16(a5)
    57ae:	a039                	j	57bc <JTAG_WriteAbort+0x3b2>
    57b0:	400117b7          	lui	a5,0x40011
    57b4:	c0078793          	addi	a5,a5,-1024 # 40010c00 <_eusrstack+0x20008c00>
    57b8:	6721                	lui	a4,0x8
    57ba:	cbd8                	sw	a4,20(a5)
    57bc:	0001                	nop
    57be:	400117b7          	lui	a5,0x40011
    57c2:	80078793          	addi	a5,a5,-2048 # 40010800 <_eusrstack+0x20008800>
    57c6:	6711                	lui	a4,0x4
    57c8:	cbd8                	sw	a4,20(a5)
    57ca:	0001                	nop
    57cc:	200067b7          	lui	a5,0x20006
    57d0:	5f878793          	addi	a5,a5,1528 # 200065f8 <DAP_Data>
    57d4:	43dc                	lw	a5,4(a5)
    57d6:	f6f42623          	sw	a5,-148(s0)
    57da:	f6c42783          	lw	a5,-148(s0)
    57de:	f6f42423          	sw	a5,-152(s0)
    57e2:	0001                	nop
    57e4:	f6842783          	lw	a5,-152(s0)
    57e8:	17fd                	addi	a5,a5,-1
    57ea:	f6f42423          	sw	a5,-152(s0)
    57ee:	f6842783          	lw	a5,-152(s0)
    57f2:	fbed                	bnez	a5,57e4 <JTAG_WriteAbort+0x3da>
    57f4:	0001                	nop
    57f6:	400117b7          	lui	a5,0x40011
    57fa:	80078793          	addi	a5,a5,-2048 # 40010800 <_eusrstack+0x20008800>
    57fe:	6711                	lui	a4,0x4
    5800:	cb98                	sw	a4,16(a5)
    5802:	0001                	nop
    5804:	200067b7          	lui	a5,0x20006
    5808:	5f878793          	addi	a5,a5,1528 # 200065f8 <DAP_Data>
    580c:	43dc                	lw	a5,4(a5)
    580e:	f6f42a23          	sw	a5,-140(s0)
    5812:	f7442783          	lw	a5,-140(s0)
    5816:	f6f42823          	sw	a5,-144(s0)
    581a:	0001                	nop
    581c:	f7042783          	lw	a5,-144(s0)
    5820:	17fd                	addi	a5,a5,-1
    5822:	f6f42823          	sw	a5,-144(s0)
    5826:	f7042783          	lw	a5,-144(s0)
    582a:	fbed                	bnez	a5,581c <JTAG_WriteAbort+0x412>
    582c:	0001                	nop
    582e:	eec42783          	lw	a5,-276(s0)
    5832:	8385                	srli	a5,a5,0x1
    5834:	eef42623          	sw	a5,-276(s0)
    5838:	fec42783          	lw	a5,-20(s0)
    583c:	17fd                	addi	a5,a5,-1
    583e:	fef42623          	sw	a5,-20(s0)
    5842:	fec42783          	lw	a5,-20(s0)
    5846:	f7b1                	bnez	a5,5792 <JTAG_WriteAbort+0x388>
    5848:	200067b7          	lui	a5,0x20006
    584c:	5f878793          	addi	a5,a5,1528 # 200065f8 <DAP_Data>
    5850:	2fbc                	.2byte	0x2fbc
    5852:	873e                	mv	a4,a5
    5854:	200067b7          	lui	a5,0x20006
    5858:	5f878793          	addi	a5,a5,1528 # 200065f8 <DAP_Data>
    585c:	3fbc                	.2byte	0x3fbc
    585e:	40f707b3          	sub	a5,a4,a5
    5862:	17fd                	addi	a5,a5,-1
    5864:	fef42623          	sw	a5,-20(s0)
    5868:	fec42783          	lw	a5,-20(s0)
    586c:	1a078563          	beqz	a5,5a16 <JTAG_WriteAbort+0x60c>
    5870:	eec42783          	lw	a5,-276(s0)
    5874:	f4f42823          	sw	a5,-176(s0)
    5878:	f5042783          	lw	a5,-176(s0)
    587c:	8b85                	andi	a5,a5,1
    587e:	cb81                	beqz	a5,588e <JTAG_WriteAbort+0x484>
    5880:	400117b7          	lui	a5,0x40011
    5884:	c0078793          	addi	a5,a5,-1024 # 40010c00 <_eusrstack+0x20008c00>
    5888:	6721                	lui	a4,0x8
    588a:	cb98                	sw	a4,16(a5)
    588c:	a039                	j	589a <JTAG_WriteAbort+0x490>
    588e:	400117b7          	lui	a5,0x40011
    5892:	c0078793          	addi	a5,a5,-1024 # 40010c00 <_eusrstack+0x20008c00>
    5896:	6721                	lui	a4,0x8
    5898:	cbd8                	sw	a4,20(a5)
    589a:	0001                	nop
    589c:	400117b7          	lui	a5,0x40011
    58a0:	80078793          	addi	a5,a5,-2048 # 40010800 <_eusrstack+0x20008800>
    58a4:	6711                	lui	a4,0x4
    58a6:	cbd8                	sw	a4,20(a5)
    58a8:	0001                	nop
    58aa:	200067b7          	lui	a5,0x20006
    58ae:	5f878793          	addi	a5,a5,1528 # 200065f8 <DAP_Data>
    58b2:	43dc                	lw	a5,4(a5)
    58b4:	f4f42c23          	sw	a5,-168(s0)
    58b8:	f5842783          	lw	a5,-168(s0)
    58bc:	f4f42a23          	sw	a5,-172(s0)
    58c0:	0001                	nop
    58c2:	f5442783          	lw	a5,-172(s0)
    58c6:	17fd                	addi	a5,a5,-1
    58c8:	f4f42a23          	sw	a5,-172(s0)
    58cc:	f5442783          	lw	a5,-172(s0)
    58d0:	fbed                	bnez	a5,58c2 <JTAG_WriteAbort+0x4b8>
    58d2:	0001                	nop
    58d4:	400117b7          	lui	a5,0x40011
    58d8:	80078793          	addi	a5,a5,-2048 # 40010800 <_eusrstack+0x20008800>
    58dc:	6711                	lui	a4,0x4
    58de:	cb98                	sw	a4,16(a5)
    58e0:	0001                	nop
    58e2:	200067b7          	lui	a5,0x20006
    58e6:	5f878793          	addi	a5,a5,1528 # 200065f8 <DAP_Data>
    58ea:	43dc                	lw	a5,4(a5)
    58ec:	f6f42023          	sw	a5,-160(s0)
    58f0:	f6042783          	lw	a5,-160(s0)
    58f4:	f4f42e23          	sw	a5,-164(s0)
    58f8:	0001                	nop
    58fa:	f5c42783          	lw	a5,-164(s0)
    58fe:	17fd                	addi	a5,a5,-1
    5900:	f4f42e23          	sw	a5,-164(s0)
    5904:	f5c42783          	lw	a5,-164(s0)
    5908:	fbed                	bnez	a5,58fa <JTAG_WriteAbort+0x4f0>
    590a:	0001                	nop
    590c:	fec42783          	lw	a5,-20(s0)
    5910:	17fd                	addi	a5,a5,-1
    5912:	fef42623          	sw	a5,-20(s0)
    5916:	a8b5                	j	5992 <JTAG_WriteAbort+0x588>
    5918:	400117b7          	lui	a5,0x40011
    591c:	80078793          	addi	a5,a5,-2048 # 40010800 <_eusrstack+0x20008800>
    5920:	6711                	lui	a4,0x4
    5922:	cbd8                	sw	a4,20(a5)
    5924:	0001                	nop
    5926:	200067b7          	lui	a5,0x20006
    592a:	5f878793          	addi	a5,a5,1528 # 200065f8 <DAP_Data>
    592e:	43dc                	lw	a5,4(a5)
    5930:	f4f42223          	sw	a5,-188(s0)
    5934:	f4442783          	lw	a5,-188(s0)
    5938:	f4f42023          	sw	a5,-192(s0)
    593c:	0001                	nop
    593e:	f4042783          	lw	a5,-192(s0)
    5942:	17fd                	addi	a5,a5,-1
    5944:	f4f42023          	sw	a5,-192(s0)
    5948:	f4042783          	lw	a5,-192(s0)
    594c:	fbed                	bnez	a5,593e <JTAG_WriteAbort+0x534>
    594e:	0001                	nop
    5950:	400117b7          	lui	a5,0x40011
    5954:	80078793          	addi	a5,a5,-2048 # 40010800 <_eusrstack+0x20008800>
    5958:	6711                	lui	a4,0x4
    595a:	cb98                	sw	a4,16(a5)
    595c:	0001                	nop
    595e:	200067b7          	lui	a5,0x20006
    5962:	5f878793          	addi	a5,a5,1528 # 200065f8 <DAP_Data>
    5966:	43dc                	lw	a5,4(a5)
    5968:	f4f42623          	sw	a5,-180(s0)
    596c:	f4c42783          	lw	a5,-180(s0)
    5970:	f4f42423          	sw	a5,-184(s0)
    5974:	0001                	nop
    5976:	f4842783          	lw	a5,-184(s0)
    597a:	17fd                	addi	a5,a5,-1
    597c:	f4f42423          	sw	a5,-184(s0)
    5980:	f4842783          	lw	a5,-184(s0)
    5984:	fbed                	bnez	a5,5976 <JTAG_WriteAbort+0x56c>
    5986:	0001                	nop
    5988:	fec42783          	lw	a5,-20(s0)
    598c:	17fd                	addi	a5,a5,-1
    598e:	fef42623          	sw	a5,-20(s0)
    5992:	fec42783          	lw	a5,-20(s0)
    5996:	f3c9                	bnez	a5,5918 <JTAG_WriteAbort+0x50e>
    5998:	400117b7          	lui	a5,0x40011
    599c:	80078793          	addi	a5,a5,-2048 # 40010800 <_eusrstack+0x20008800>
    59a0:	6709                	lui	a4,0x2
    59a2:	cb98                	sw	a4,16(a5)
    59a4:	0001                	nop
    59a6:	400117b7          	lui	a5,0x40011
    59aa:	80078793          	addi	a5,a5,-2048 # 40010800 <_eusrstack+0x20008800>
    59ae:	6711                	lui	a4,0x4
    59b0:	cbd8                	sw	a4,20(a5)
    59b2:	0001                	nop
    59b4:	200067b7          	lui	a5,0x20006
    59b8:	5f878793          	addi	a5,a5,1528 # 200065f8 <DAP_Data>
    59bc:	43dc                	lw	a5,4(a5)
    59be:	f2f42a23          	sw	a5,-204(s0)
    59c2:	f3442783          	lw	a5,-204(s0)
    59c6:	f2f42823          	sw	a5,-208(s0)
    59ca:	0001                	nop
    59cc:	f3042783          	lw	a5,-208(s0)
    59d0:	17fd                	addi	a5,a5,-1
    59d2:	f2f42823          	sw	a5,-208(s0)
    59d6:	f3042783          	lw	a5,-208(s0)
    59da:	fbed                	bnez	a5,59cc <JTAG_WriteAbort+0x5c2>
    59dc:	0001                	nop
    59de:	400117b7          	lui	a5,0x40011
    59e2:	80078793          	addi	a5,a5,-2048 # 40010800 <_eusrstack+0x20008800>
    59e6:	6711                	lui	a4,0x4
    59e8:	cb98                	sw	a4,16(a5)
    59ea:	0001                	nop
    59ec:	200067b7          	lui	a5,0x20006
    59f0:	5f878793          	addi	a5,a5,1528 # 200065f8 <DAP_Data>
    59f4:	43dc                	lw	a5,4(a5)
    59f6:	f2f42e23          	sw	a5,-196(s0)
    59fa:	f3c42783          	lw	a5,-196(s0)
    59fe:	f2f42c23          	sw	a5,-200(s0)
    5a02:	0001                	nop
    5a04:	f3842783          	lw	a5,-200(s0)
    5a08:	17fd                	addi	a5,a5,-1
    5a0a:	f2f42c23          	sw	a5,-200(s0)
    5a0e:	f3842783          	lw	a5,-200(s0)
    5a12:	fbed                	bnez	a5,5a04 <JTAG_WriteAbort+0x5fa>
    5a14:	a075                	j	5ac0 <JTAG_WriteAbort+0x6b6>
    5a16:	400117b7          	lui	a5,0x40011
    5a1a:	80078793          	addi	a5,a5,-2048 # 40010800 <_eusrstack+0x20008800>
    5a1e:	6709                	lui	a4,0x2
    5a20:	cb98                	sw	a4,16(a5)
    5a22:	0001                	nop
    5a24:	eec42783          	lw	a5,-276(s0)
    5a28:	f0f42e23          	sw	a5,-228(s0)
    5a2c:	f1c42783          	lw	a5,-228(s0)
    5a30:	8b85                	andi	a5,a5,1
    5a32:	cb81                	beqz	a5,5a42 <JTAG_WriteAbort+0x638>
    5a34:	400117b7          	lui	a5,0x40011
    5a38:	c0078793          	addi	a5,a5,-1024 # 40010c00 <_eusrstack+0x20008c00>
    5a3c:	6721                	lui	a4,0x8
    5a3e:	cb98                	sw	a4,16(a5)
    5a40:	a039                	j	5a4e <JTAG_WriteAbort+0x644>
    5a42:	400117b7          	lui	a5,0x40011
    5a46:	c0078793          	addi	a5,a5,-1024 # 40010c00 <_eusrstack+0x20008c00>
    5a4a:	6721                	lui	a4,0x8
    5a4c:	cbd8                	sw	a4,20(a5)
    5a4e:	0001                	nop
    5a50:	400117b7          	lui	a5,0x40011
    5a54:	80078793          	addi	a5,a5,-2048 # 40010800 <_eusrstack+0x20008800>
    5a58:	6711                	lui	a4,0x4
    5a5a:	cbd8                	sw	a4,20(a5)
    5a5c:	0001                	nop
    5a5e:	200067b7          	lui	a5,0x20006
    5a62:	5f878793          	addi	a5,a5,1528 # 200065f8 <DAP_Data>
    5a66:	43dc                	lw	a5,4(a5)
    5a68:	f2f42223          	sw	a5,-220(s0)
    5a6c:	f2442783          	lw	a5,-220(s0)
    5a70:	f2f42023          	sw	a5,-224(s0)
    5a74:	0001                	nop
    5a76:	f2042783          	lw	a5,-224(s0)
    5a7a:	17fd                	addi	a5,a5,-1
    5a7c:	f2f42023          	sw	a5,-224(s0)
    5a80:	f2042783          	lw	a5,-224(s0)
    5a84:	fbed                	bnez	a5,5a76 <JTAG_WriteAbort+0x66c>
    5a86:	0001                	nop
    5a88:	400117b7          	lui	a5,0x40011
    5a8c:	80078793          	addi	a5,a5,-2048 # 40010800 <_eusrstack+0x20008800>
    5a90:	6711                	lui	a4,0x4
    5a92:	cb98                	sw	a4,16(a5)
    5a94:	0001                	nop
    5a96:	200067b7          	lui	a5,0x20006
    5a9a:	5f878793          	addi	a5,a5,1528 # 200065f8 <DAP_Data>
    5a9e:	43dc                	lw	a5,4(a5)
    5aa0:	f2f42623          	sw	a5,-212(s0)
    5aa4:	f2c42783          	lw	a5,-212(s0)
    5aa8:	f2f42423          	sw	a5,-216(s0)
    5aac:	0001                	nop
    5aae:	f2842783          	lw	a5,-216(s0)
    5ab2:	17fd                	addi	a5,a5,-1
    5ab4:	f2f42423          	sw	a5,-216(s0)
    5ab8:	f2842783          	lw	a5,-216(s0)
    5abc:	fbed                	bnez	a5,5aae <JTAG_WriteAbort+0x6a4>
    5abe:	0001                	nop
    5ac0:	400117b7          	lui	a5,0x40011
    5ac4:	80078793          	addi	a5,a5,-2048 # 40010800 <_eusrstack+0x20008800>
    5ac8:	6711                	lui	a4,0x4
    5aca:	cbd8                	sw	a4,20(a5)
    5acc:	0001                	nop
    5ace:	200067b7          	lui	a5,0x20006
    5ad2:	5f878793          	addi	a5,a5,1528 # 200065f8 <DAP_Data>
    5ad6:	43dc                	lw	a5,4(a5)
    5ad8:	eef42e23          	sw	a5,-260(s0)
    5adc:	efc42783          	lw	a5,-260(s0)
    5ae0:	eef42c23          	sw	a5,-264(s0)
    5ae4:	0001                	nop
    5ae6:	ef842783          	lw	a5,-264(s0)
    5aea:	17fd                	addi	a5,a5,-1
    5aec:	eef42c23          	sw	a5,-264(s0)
    5af0:	ef842783          	lw	a5,-264(s0)
    5af4:	fbed                	bnez	a5,5ae6 <JTAG_WriteAbort+0x6dc>
    5af6:	0001                	nop
    5af8:	400117b7          	lui	a5,0x40011
    5afc:	80078793          	addi	a5,a5,-2048 # 40010800 <_eusrstack+0x20008800>
    5b00:	6711                	lui	a4,0x4
    5b02:	cb98                	sw	a4,16(a5)
    5b04:	0001                	nop
    5b06:	200067b7          	lui	a5,0x20006
    5b0a:	5f878793          	addi	a5,a5,1528 # 200065f8 <DAP_Data>
    5b0e:	43dc                	lw	a5,4(a5)
    5b10:	f0f42223          	sw	a5,-252(s0)
    5b14:	f0442783          	lw	a5,-252(s0)
    5b18:	f0f42023          	sw	a5,-256(s0)
    5b1c:	0001                	nop
    5b1e:	f0042783          	lw	a5,-256(s0)
    5b22:	17fd                	addi	a5,a5,-1
    5b24:	f0f42023          	sw	a5,-256(s0)
    5b28:	f0042783          	lw	a5,-256(s0)
    5b2c:	fbed                	bnez	a5,5b1e <JTAG_WriteAbort+0x714>
    5b2e:	0001                	nop
    5b30:	400117b7          	lui	a5,0x40011
    5b34:	80078793          	addi	a5,a5,-2048 # 40010800 <_eusrstack+0x20008800>
    5b38:	6709                	lui	a4,0x2
    5b3a:	cbd8                	sw	a4,20(a5)
    5b3c:	0001                	nop
    5b3e:	400117b7          	lui	a5,0x40011
    5b42:	80078793          	addi	a5,a5,-2048 # 40010800 <_eusrstack+0x20008800>
    5b46:	6711                	lui	a4,0x4
    5b48:	cbd8                	sw	a4,20(a5)
    5b4a:	0001                	nop
    5b4c:	200067b7          	lui	a5,0x20006
    5b50:	5f878793          	addi	a5,a5,1528 # 200065f8 <DAP_Data>
    5b54:	43dc                	lw	a5,4(a5)
    5b56:	f0f42623          	sw	a5,-244(s0)
    5b5a:	f0c42783          	lw	a5,-244(s0)
    5b5e:	f0f42423          	sw	a5,-248(s0)
    5b62:	0001                	nop
    5b64:	f0842783          	lw	a5,-248(s0)
    5b68:	17fd                	addi	a5,a5,-1
    5b6a:	f0f42423          	sw	a5,-248(s0)
    5b6e:	f0842783          	lw	a5,-248(s0)
    5b72:	fbed                	bnez	a5,5b64 <JTAG_WriteAbort+0x75a>
    5b74:	0001                	nop
    5b76:	400117b7          	lui	a5,0x40011
    5b7a:	80078793          	addi	a5,a5,-2048 # 40010800 <_eusrstack+0x20008800>
    5b7e:	6711                	lui	a4,0x4
    5b80:	cb98                	sw	a4,16(a5)
    5b82:	0001                	nop
    5b84:	200067b7          	lui	a5,0x20006
    5b88:	5f878793          	addi	a5,a5,1528 # 200065f8 <DAP_Data>
    5b8c:	43dc                	lw	a5,4(a5)
    5b8e:	f0f42a23          	sw	a5,-236(s0)
    5b92:	f1442783          	lw	a5,-236(s0)
    5b96:	f0f42823          	sw	a5,-240(s0)
    5b9a:	0001                	nop
    5b9c:	f1042783          	lw	a5,-240(s0)
    5ba0:	17fd                	addi	a5,a5,-1
    5ba2:	f0f42823          	sw	a5,-240(s0)
    5ba6:	f1042783          	lw	a5,-240(s0)
    5baa:	fbed                	bnez	a5,5b9c <JTAG_WriteAbort+0x792>
    5bac:	0001                	nop
    5bae:	4785                	li	a5,1
    5bb0:	f0f42c23          	sw	a5,-232(s0)
    5bb4:	f1842783          	lw	a5,-232(s0)
    5bb8:	8b85                	andi	a5,a5,1
    5bba:	cb81                	beqz	a5,5bca <JTAG_WriteAbort+0x7c0>
    5bbc:	400117b7          	lui	a5,0x40011
    5bc0:	c0078793          	addi	a5,a5,-1024 # 40010c00 <_eusrstack+0x20008c00>
    5bc4:	6721                	lui	a4,0x8
    5bc6:	cb98                	sw	a4,16(a5)
    5bc8:	a039                	j	5bd6 <JTAG_WriteAbort+0x7cc>
    5bca:	400117b7          	lui	a5,0x40011
    5bce:	c0078793          	addi	a5,a5,-1024 # 40010c00 <_eusrstack+0x20008c00>
    5bd2:	6721                	lui	a4,0x8
    5bd4:	cbd8                	sw	a4,20(a5)
    5bd6:	0001                	nop
    5bd8:	0001                	nop
    5bda:	11c12403          	lw	s0,284(sp)
    5bde:	6115                	addi	sp,sp,288
    5be0:	8082                	ret

00005be2 <JTAG_IR>:
    5be2:	1101                	addi	sp,sp,-32
    5be4:	ce06                	sw	ra,28(sp)
    5be6:	cc22                	sw	s0,24(sp)
    5be8:	1000                	addi	s0,sp,32
    5bea:	fea42623          	sw	a0,-20(s0)
    5bee:	200067b7          	lui	a5,0x20006
    5bf2:	5f878793          	addi	a5,a5,1528 # 200065f8 <DAP_Data>
    5bf6:	339c                	.2byte	0x339c
    5bf8:	c791                	beqz	a5,5c04 <JTAG_IR+0x22>
    5bfa:	fec42503          	lw	a0,-20(s0)
    5bfe:	ce6fd0ef          	jal	ra,30e4 <JTAG_IR_Fast>
    5c02:	a029                	j	5c0c <JTAG_IR+0x2a>
    5c04:	fec42503          	lw	a0,-20(s0)
    5c08:	f0ffd0ef          	jal	ra,3b16 <JTAG_IR_Slow>
    5c0c:	0001                	nop
    5c0e:	40f2                	lw	ra,28(sp)
    5c10:	4462                	lw	s0,24(sp)
    5c12:	6105                	addi	sp,sp,32
    5c14:	8082                	ret

00005c16 <JTAG_Transfer>:
    5c16:	1101                	addi	sp,sp,-32
    5c18:	ce06                	sw	ra,28(sp)
    5c1a:	cc22                	sw	s0,24(sp)
    5c1c:	1000                	addi	s0,sp,32
    5c1e:	fea42623          	sw	a0,-20(s0)
    5c22:	feb42423          	sw	a1,-24(s0)
    5c26:	200067b7          	lui	a5,0x20006
    5c2a:	5f878793          	addi	a5,a5,1528 # 200065f8 <DAP_Data>
    5c2e:	339c                	.2byte	0x339c
    5c30:	cb89                	beqz	a5,5c42 <JTAG_Transfer+0x2c>
    5c32:	fe842583          	lw	a1,-24(s0)
    5c36:	fec42503          	lw	a0,-20(s0)
    5c3a:	837fd0ef          	jal	ra,3470 <JTAG_TransferFast>
    5c3e:	87aa                	mv	a5,a0
    5c40:	a801                	j	5c50 <JTAG_Transfer+0x3a>
    5c42:	fe842583          	lw	a1,-24(s0)
    5c46:	fec42503          	lw	a0,-20(s0)
    5c4a:	e1afe0ef          	jal	ra,4264 <JTAG_TransferSlow>
    5c4e:	87aa                	mv	a5,a0
    5c50:	853e                	mv	a0,a5
    5c52:	40f2                	lw	ra,28(sp)
    5c54:	4462                	lw	s0,24(sp)
    5c56:	6105                	addi	sp,sp,32
    5c58:	8082                	ret

00005c5a <TIMESTAMP_GET>:
    5c5a:	1141                	addi	sp,sp,-16
    5c5c:	c622                	sw	s0,12(sp)
    5c5e:	0800                	addi	s0,sp,16
    5c60:	4781                	li	a5,0
    5c62:	853e                	mv	a0,a5
    5c64:	4432                	lw	s0,12(sp)
    5c66:	0141                	addi	sp,sp,16
    5c68:	8082                	ret

00005c6a <SWJ_Sequence>:
    5c6a:	7139                	addi	sp,sp,-64
    5c6c:	de22                	sw	s0,60(sp)
    5c6e:	0080                	addi	s0,sp,64
    5c70:	fca42623          	sw	a0,-52(s0)
    5c74:	fcb42423          	sw	a1,-56(s0)
    5c78:	fe042623          	sw	zero,-20(s0)
    5c7c:	fe042423          	sw	zero,-24(s0)
    5c80:	a0e1                	j	5d48 <SWJ_Sequence+0xde>
    5c82:	fe842783          	lw	a5,-24(s0)
    5c86:	ef89                	bnez	a5,5ca0 <SWJ_Sequence+0x36>
    5c88:	fc842783          	lw	a5,-56(s0)
    5c8c:	00178713          	addi	a4,a5,1
    5c90:	fce42423          	sw	a4,-56(s0)
    5c94:	239c                	.2byte	0x239c
    5c96:	fef42623          	sw	a5,-20(s0)
    5c9a:	47a1                	li	a5,8
    5c9c:	fef42423          	sw	a5,-24(s0)
    5ca0:	fec42783          	lw	a5,-20(s0)
    5ca4:	8b85                	andi	a5,a5,1
    5ca6:	cb81                	beqz	a5,5cb6 <SWJ_Sequence+0x4c>
    5ca8:	400117b7          	lui	a5,0x40011
    5cac:	80078793          	addi	a5,a5,-2048 # 40010800 <_eusrstack+0x20008800>
    5cb0:	6709                	lui	a4,0x2
    5cb2:	cb98                	sw	a4,16(a5)
    5cb4:	a801                	j	5cc4 <SWJ_Sequence+0x5a>
    5cb6:	400117b7          	lui	a5,0x40011
    5cba:	80078793          	addi	a5,a5,-2048 # 40010800 <_eusrstack+0x20008800>
    5cbe:	6709                	lui	a4,0x2
    5cc0:	cbd8                	sw	a4,20(a5)
    5cc2:	0001                	nop
    5cc4:	400117b7          	lui	a5,0x40011
    5cc8:	80078793          	addi	a5,a5,-2048 # 40010800 <_eusrstack+0x20008800>
    5ccc:	6711                	lui	a4,0x4
    5cce:	cbd8                	sw	a4,20(a5)
    5cd0:	0001                	nop
    5cd2:	200067b7          	lui	a5,0x20006
    5cd6:	5f878793          	addi	a5,a5,1528 # 200065f8 <DAP_Data>
    5cda:	43dc                	lw	a5,4(a5)
    5cdc:	fcf42e23          	sw	a5,-36(s0)
    5ce0:	fdc42783          	lw	a5,-36(s0)
    5ce4:	fcf42c23          	sw	a5,-40(s0)
    5ce8:	0001                	nop
    5cea:	fd842783          	lw	a5,-40(s0)
    5cee:	17fd                	addi	a5,a5,-1
    5cf0:	fcf42c23          	sw	a5,-40(s0)
    5cf4:	fd842783          	lw	a5,-40(s0)
    5cf8:	fbed                	bnez	a5,5cea <SWJ_Sequence+0x80>
    5cfa:	0001                	nop
    5cfc:	400117b7          	lui	a5,0x40011
    5d00:	80078793          	addi	a5,a5,-2048 # 40010800 <_eusrstack+0x20008800>
    5d04:	6711                	lui	a4,0x4
    5d06:	cb98                	sw	a4,16(a5)
    5d08:	0001                	nop
    5d0a:	200067b7          	lui	a5,0x20006
    5d0e:	5f878793          	addi	a5,a5,1528 # 200065f8 <DAP_Data>
    5d12:	43dc                	lw	a5,4(a5)
    5d14:	fef42223          	sw	a5,-28(s0)
    5d18:	fe442783          	lw	a5,-28(s0)
    5d1c:	fef42023          	sw	a5,-32(s0)
    5d20:	0001                	nop
    5d22:	fe042783          	lw	a5,-32(s0)
    5d26:	17fd                	addi	a5,a5,-1
    5d28:	fef42023          	sw	a5,-32(s0)
    5d2c:	fe042783          	lw	a5,-32(s0)
    5d30:	fbed                	bnez	a5,5d22 <SWJ_Sequence+0xb8>
    5d32:	0001                	nop
    5d34:	fec42783          	lw	a5,-20(s0)
    5d38:	8385                	srli	a5,a5,0x1
    5d3a:	fef42623          	sw	a5,-20(s0)
    5d3e:	fe842783          	lw	a5,-24(s0)
    5d42:	17fd                	addi	a5,a5,-1
    5d44:	fef42423          	sw	a5,-24(s0)
    5d48:	fcc42783          	lw	a5,-52(s0)
    5d4c:	fff78713          	addi	a4,a5,-1
    5d50:	fce42623          	sw	a4,-52(s0)
    5d54:	f79d                	bnez	a5,5c82 <SWJ_Sequence+0x18>
    5d56:	0001                	nop
    5d58:	0001                	nop
    5d5a:	5472                	lw	s0,60(sp)
    5d5c:	6121                	addi	sp,sp,64
    5d5e:	8082                	ret

00005d60 <SWD_Sequence>:
    5d60:	711d                	addi	sp,sp,-96
    5d62:	cea2                	sw	s0,92(sp)
    5d64:	1080                	addi	s0,sp,96
    5d66:	faa42623          	sw	a0,-84(s0)
    5d6a:	fab42423          	sw	a1,-88(s0)
    5d6e:	fac42223          	sw	a2,-92(s0)
    5d72:	fac42783          	lw	a5,-84(s0)
    5d76:	03f7f793          	andi	a5,a5,63
    5d7a:	fef42423          	sw	a5,-24(s0)
    5d7e:	fe842783          	lw	a5,-24(s0)
    5d82:	e789                	bnez	a5,5d8c <SWD_Sequence+0x2c>
    5d84:	04000793          	li	a5,64
    5d88:	fef42423          	sw	a5,-24(s0)
    5d8c:	fac42783          	lw	a5,-84(s0)
    5d90:	0807f793          	andi	a5,a5,128
    5d94:	1e078263          	beqz	a5,5f78 <SWD_Sequence+0x218>
    5d98:	a8e5                	j	5e90 <SWD_Sequence+0x130>
    5d9a:	fe042623          	sw	zero,-20(s0)
    5d9e:	47a1                	li	a5,8
    5da0:	fef42223          	sw	a5,-28(s0)
    5da4:	a86d                	j	5e5e <SWD_Sequence+0xfe>
    5da6:	400117b7          	lui	a5,0x40011
    5daa:	80078793          	addi	a5,a5,-2048 # 40010800 <_eusrstack+0x20008800>
    5dae:	6711                	lui	a4,0x4
    5db0:	cbd8                	sw	a4,20(a5)
    5db2:	0001                	nop
    5db4:	200067b7          	lui	a5,0x20006
    5db8:	5f878793          	addi	a5,a5,1528 # 200065f8 <DAP_Data>
    5dbc:	43dc                	lw	a5,4(a5)
    5dbe:	fcf42a23          	sw	a5,-44(s0)
    5dc2:	fd442783          	lw	a5,-44(s0)
    5dc6:	fcf42823          	sw	a5,-48(s0)
    5dca:	0001                	nop
    5dcc:	fd042783          	lw	a5,-48(s0)
    5dd0:	17fd                	addi	a5,a5,-1
    5dd2:	fcf42823          	sw	a5,-48(s0)
    5dd6:	fd042783          	lw	a5,-48(s0)
    5dda:	fbed                	bnez	a5,5dcc <SWD_Sequence+0x6c>
    5ddc:	0001                	nop
    5dde:	400117b7          	lui	a5,0x40011
    5de2:	80078793          	addi	a5,a5,-2048 # 40010800 <_eusrstack+0x20008800>
    5de6:	4798                	lw	a4,8(a5)
    5de8:	6789                	lui	a5,0x2
    5dea:	8ff9                	and	a5,a5,a4
    5dec:	00f037b3          	snez	a5,a5
    5df0:	0ff7f793          	zext.b	a5,a5
    5df4:	fef42023          	sw	a5,-32(s0)
    5df8:	400117b7          	lui	a5,0x40011
    5dfc:	80078793          	addi	a5,a5,-2048 # 40010800 <_eusrstack+0x20008800>
    5e00:	6711                	lui	a4,0x4
    5e02:	cb98                	sw	a4,16(a5)
    5e04:	0001                	nop
    5e06:	200067b7          	lui	a5,0x20006
    5e0a:	5f878793          	addi	a5,a5,1528 # 200065f8 <DAP_Data>
    5e0e:	43dc                	lw	a5,4(a5)
    5e10:	fcf42e23          	sw	a5,-36(s0)
    5e14:	fdc42783          	lw	a5,-36(s0)
    5e18:	fcf42c23          	sw	a5,-40(s0)
    5e1c:	0001                	nop
    5e1e:	fd842783          	lw	a5,-40(s0)
    5e22:	17fd                	addi	a5,a5,-1
    5e24:	fcf42c23          	sw	a5,-40(s0)
    5e28:	fd842783          	lw	a5,-40(s0)
    5e2c:	fbed                	bnez	a5,5e1e <SWD_Sequence+0xbe>
    5e2e:	0001                	nop
    5e30:	fec42783          	lw	a5,-20(s0)
    5e34:	8385                	srli	a5,a5,0x1
    5e36:	fef42623          	sw	a5,-20(s0)
    5e3a:	fe042783          	lw	a5,-32(s0)
    5e3e:	079e                	slli	a5,a5,0x7
    5e40:	fec42703          	lw	a4,-20(s0)
    5e44:	8fd9                	or	a5,a5,a4
    5e46:	fef42623          	sw	a5,-20(s0)
    5e4a:	fe442783          	lw	a5,-28(s0)
    5e4e:	17fd                	addi	a5,a5,-1
    5e50:	fef42223          	sw	a5,-28(s0)
    5e54:	fe842783          	lw	a5,-24(s0)
    5e58:	17fd                	addi	a5,a5,-1
    5e5a:	fef42423          	sw	a5,-24(s0)
    5e5e:	fe442783          	lw	a5,-28(s0)
    5e62:	c781                	beqz	a5,5e6a <SWD_Sequence+0x10a>
    5e64:	fe842783          	lw	a5,-24(s0)
    5e68:	ff9d                	bnez	a5,5da6 <SWD_Sequence+0x46>
    5e6a:	fe442783          	lw	a5,-28(s0)
    5e6e:	fec42703          	lw	a4,-20(s0)
    5e72:	00f757b3          	srl	a5,a4,a5
    5e76:	fef42623          	sw	a5,-20(s0)
    5e7a:	fa442783          	lw	a5,-92(s0)
    5e7e:	00178713          	addi	a4,a5,1
    5e82:	fae42223          	sw	a4,-92(s0)
    5e86:	fec42703          	lw	a4,-20(s0)
    5e8a:	0ff77713          	zext.b	a4,a4
    5e8e:	a398                	.2byte	0xa398
    5e90:	fe842783          	lw	a5,-24(s0)
    5e94:	f399                	bnez	a5,5d9a <SWD_Sequence+0x3a>
    5e96:	a0e5                	j	5f7e <SWD_Sequence+0x21e>
    5e98:	fa842783          	lw	a5,-88(s0)
    5e9c:	00178713          	addi	a4,a5,1
    5ea0:	fae42423          	sw	a4,-88(s0)
    5ea4:	239c                	.2byte	0x239c
    5ea6:	fef42623          	sw	a5,-20(s0)
    5eaa:	47a1                	li	a5,8
    5eac:	fef42223          	sw	a5,-28(s0)
    5eb0:	a875                	j	5f6c <SWD_Sequence+0x20c>
    5eb2:	fec42783          	lw	a5,-20(s0)
    5eb6:	faf42e23          	sw	a5,-68(s0)
    5eba:	fbc42783          	lw	a5,-68(s0)
    5ebe:	8b85                	andi	a5,a5,1
    5ec0:	cb81                	beqz	a5,5ed0 <SWD_Sequence+0x170>
    5ec2:	400117b7          	lui	a5,0x40011
    5ec6:	80078793          	addi	a5,a5,-2048 # 40010800 <_eusrstack+0x20008800>
    5eca:	6709                	lui	a4,0x2
    5ecc:	cb98                	sw	a4,16(a5)
    5ece:	a039                	j	5edc <SWD_Sequence+0x17c>
    5ed0:	400117b7          	lui	a5,0x40011
    5ed4:	80078793          	addi	a5,a5,-2048 # 40010800 <_eusrstack+0x20008800>
    5ed8:	6709                	lui	a4,0x2
    5eda:	cbd8                	sw	a4,20(a5)
    5edc:	0001                	nop
    5ede:	400117b7          	lui	a5,0x40011
    5ee2:	80078793          	addi	a5,a5,-2048 # 40010800 <_eusrstack+0x20008800>
    5ee6:	6711                	lui	a4,0x4
    5ee8:	cbd8                	sw	a4,20(a5)
    5eea:	0001                	nop
    5eec:	200067b7          	lui	a5,0x20006
    5ef0:	5f878793          	addi	a5,a5,1528 # 200065f8 <DAP_Data>
    5ef4:	43dc                	lw	a5,4(a5)
    5ef6:	fcf42223          	sw	a5,-60(s0)
    5efa:	fc442783          	lw	a5,-60(s0)
    5efe:	fcf42023          	sw	a5,-64(s0)
    5f02:	0001                	nop
    5f04:	fc042783          	lw	a5,-64(s0)
    5f08:	17fd                	addi	a5,a5,-1
    5f0a:	fcf42023          	sw	a5,-64(s0)
    5f0e:	fc042783          	lw	a5,-64(s0)
    5f12:	fbed                	bnez	a5,5f04 <SWD_Sequence+0x1a4>
    5f14:	0001                	nop
    5f16:	400117b7          	lui	a5,0x40011
    5f1a:	80078793          	addi	a5,a5,-2048 # 40010800 <_eusrstack+0x20008800>
    5f1e:	6711                	lui	a4,0x4
    5f20:	cb98                	sw	a4,16(a5)
    5f22:	0001                	nop
    5f24:	200067b7          	lui	a5,0x20006
    5f28:	5f878793          	addi	a5,a5,1528 # 200065f8 <DAP_Data>
    5f2c:	43dc                	lw	a5,4(a5)
    5f2e:	fcf42623          	sw	a5,-52(s0)
    5f32:	fcc42783          	lw	a5,-52(s0)
    5f36:	fcf42423          	sw	a5,-56(s0)
    5f3a:	0001                	nop
    5f3c:	fc842783          	lw	a5,-56(s0)
    5f40:	17fd                	addi	a5,a5,-1
    5f42:	fcf42423          	sw	a5,-56(s0)
    5f46:	fc842783          	lw	a5,-56(s0)
    5f4a:	fbed                	bnez	a5,5f3c <SWD_Sequence+0x1dc>
    5f4c:	0001                	nop
    5f4e:	fec42783          	lw	a5,-20(s0)
    5f52:	8385                	srli	a5,a5,0x1
    5f54:	fef42623          	sw	a5,-20(s0)
    5f58:	fe442783          	lw	a5,-28(s0)
    5f5c:	17fd                	addi	a5,a5,-1
    5f5e:	fef42223          	sw	a5,-28(s0)
    5f62:	fe842783          	lw	a5,-24(s0)
    5f66:	17fd                	addi	a5,a5,-1
    5f68:	fef42423          	sw	a5,-24(s0)
    5f6c:	fe442783          	lw	a5,-28(s0)
    5f70:	c781                	beqz	a5,5f78 <SWD_Sequence+0x218>
    5f72:	fe842783          	lw	a5,-24(s0)
    5f76:	ff95                	bnez	a5,5eb2 <SWD_Sequence+0x152>
    5f78:	fe842783          	lw	a5,-24(s0)
    5f7c:	ff91                	bnez	a5,5e98 <SWD_Sequence+0x138>
    5f7e:	0001                	nop
    5f80:	4476                	lw	s0,92(sp)
    5f82:	6125                	addi	sp,sp,96
    5f84:	8082                	ret

00005f86 <SWD_TransferFast>:
    5f86:	7159                	addi	sp,sp,-112
    5f88:	d686                	sw	ra,108(sp)
    5f8a:	d4a2                	sw	s0,104(sp)
    5f8c:	1880                	addi	s0,sp,112
    5f8e:	f8a42e23          	sw	a0,-100(s0)
    5f92:	f8b42c23          	sw	a1,-104(s0)
    5f96:	fe042223          	sw	zero,-28(s0)
    5f9a:	4785                	li	a5,1
    5f9c:	faf42e23          	sw	a5,-68(s0)
    5fa0:	fbc42783          	lw	a5,-68(s0)
    5fa4:	8b85                	andi	a5,a5,1
    5fa6:	cb81                	beqz	a5,5fb6 <SWD_TransferFast+0x30>
    5fa8:	400117b7          	lui	a5,0x40011
    5fac:	80078793          	addi	a5,a5,-2048 # 40010800 <_eusrstack+0x20008800>
    5fb0:	6709                	lui	a4,0x2
    5fb2:	cb98                	sw	a4,16(a5)
    5fb4:	a039                	j	5fc2 <SWD_TransferFast+0x3c>
    5fb6:	400117b7          	lui	a5,0x40011
    5fba:	80078793          	addi	a5,a5,-2048 # 40010800 <_eusrstack+0x20008800>
    5fbe:	6709                	lui	a4,0x2
    5fc0:	cbd8                	sw	a4,20(a5)
    5fc2:	0001                	nop
    5fc4:	400117b7          	lui	a5,0x40011
    5fc8:	80078793          	addi	a5,a5,-2048 # 40010800 <_eusrstack+0x20008800>
    5fcc:	6711                	lui	a4,0x4
    5fce:	cbd8                	sw	a4,20(a5)
    5fd0:	0001                	nop
    5fd2:	0001                	nop
    5fd4:	400117b7          	lui	a5,0x40011
    5fd8:	80078793          	addi	a5,a5,-2048 # 40010800 <_eusrstack+0x20008800>
    5fdc:	6711                	lui	a4,0x4
    5fde:	cb98                	sw	a4,16(a5)
    5fe0:	0001                	nop
    5fe2:	0001                	nop
    5fe4:	f9c42783          	lw	a5,-100(s0)
    5fe8:	fcf42e23          	sw	a5,-36(s0)
    5fec:	fdc42783          	lw	a5,-36(s0)
    5ff0:	fcf42023          	sw	a5,-64(s0)
    5ff4:	fc042783          	lw	a5,-64(s0)
    5ff8:	8b85                	andi	a5,a5,1
    5ffa:	cb81                	beqz	a5,600a <SWD_TransferFast+0x84>
    5ffc:	400117b7          	lui	a5,0x40011
    6000:	80078793          	addi	a5,a5,-2048 # 40010800 <_eusrstack+0x20008800>
    6004:	6709                	lui	a4,0x2
    6006:	cb98                	sw	a4,16(a5)
    6008:	a039                	j	6016 <SWD_TransferFast+0x90>
    600a:	400117b7          	lui	a5,0x40011
    600e:	80078793          	addi	a5,a5,-2048 # 40010800 <_eusrstack+0x20008800>
    6012:	6709                	lui	a4,0x2
    6014:	cbd8                	sw	a4,20(a5)
    6016:	0001                	nop
    6018:	400117b7          	lui	a5,0x40011
    601c:	80078793          	addi	a5,a5,-2048 # 40010800 <_eusrstack+0x20008800>
    6020:	6711                	lui	a4,0x4
    6022:	cbd8                	sw	a4,20(a5)
    6024:	0001                	nop
    6026:	0001                	nop
    6028:	400117b7          	lui	a5,0x40011
    602c:	80078793          	addi	a5,a5,-2048 # 40010800 <_eusrstack+0x20008800>
    6030:	6711                	lui	a4,0x4
    6032:	cb98                	sw	a4,16(a5)
    6034:	0001                	nop
    6036:	0001                	nop
    6038:	fe442703          	lw	a4,-28(s0)
    603c:	fdc42783          	lw	a5,-36(s0)
    6040:	97ba                	add	a5,a5,a4
    6042:	fef42223          	sw	a5,-28(s0)
    6046:	f9c42783          	lw	a5,-100(s0)
    604a:	8385                	srli	a5,a5,0x1
    604c:	fcf42e23          	sw	a5,-36(s0)
    6050:	fdc42783          	lw	a5,-36(s0)
    6054:	fcf42223          	sw	a5,-60(s0)
    6058:	fc442783          	lw	a5,-60(s0)
    605c:	8b85                	andi	a5,a5,1
    605e:	cb81                	beqz	a5,606e <SWD_TransferFast+0xe8>
    6060:	400117b7          	lui	a5,0x40011
    6064:	80078793          	addi	a5,a5,-2048 # 40010800 <_eusrstack+0x20008800>
    6068:	6709                	lui	a4,0x2
    606a:	cb98                	sw	a4,16(a5)
    606c:	a039                	j	607a <SWD_TransferFast+0xf4>
    606e:	400117b7          	lui	a5,0x40011
    6072:	80078793          	addi	a5,a5,-2048 # 40010800 <_eusrstack+0x20008800>
    6076:	6709                	lui	a4,0x2
    6078:	cbd8                	sw	a4,20(a5)
    607a:	0001                	nop
    607c:	400117b7          	lui	a5,0x40011
    6080:	80078793          	addi	a5,a5,-2048 # 40010800 <_eusrstack+0x20008800>
    6084:	6711                	lui	a4,0x4
    6086:	cbd8                	sw	a4,20(a5)
    6088:	0001                	nop
    608a:	0001                	nop
    608c:	400117b7          	lui	a5,0x40011
    6090:	80078793          	addi	a5,a5,-2048 # 40010800 <_eusrstack+0x20008800>
    6094:	6711                	lui	a4,0x4
    6096:	cb98                	sw	a4,16(a5)
    6098:	0001                	nop
    609a:	0001                	nop
    609c:	fe442703          	lw	a4,-28(s0)
    60a0:	fdc42783          	lw	a5,-36(s0)
    60a4:	97ba                	add	a5,a5,a4
    60a6:	fef42223          	sw	a5,-28(s0)
    60aa:	f9c42783          	lw	a5,-100(s0)
    60ae:	8389                	srli	a5,a5,0x2
    60b0:	fcf42e23          	sw	a5,-36(s0)
    60b4:	fdc42783          	lw	a5,-36(s0)
    60b8:	fcf42423          	sw	a5,-56(s0)
    60bc:	fc842783          	lw	a5,-56(s0)
    60c0:	8b85                	andi	a5,a5,1
    60c2:	cb81                	beqz	a5,60d2 <SWD_TransferFast+0x14c>
    60c4:	400117b7          	lui	a5,0x40011
    60c8:	80078793          	addi	a5,a5,-2048 # 40010800 <_eusrstack+0x20008800>
    60cc:	6709                	lui	a4,0x2
    60ce:	cb98                	sw	a4,16(a5)
    60d0:	a039                	j	60de <SWD_TransferFast+0x158>
    60d2:	400117b7          	lui	a5,0x40011
    60d6:	80078793          	addi	a5,a5,-2048 # 40010800 <_eusrstack+0x20008800>
    60da:	6709                	lui	a4,0x2
    60dc:	cbd8                	sw	a4,20(a5)
    60de:	0001                	nop
    60e0:	400117b7          	lui	a5,0x40011
    60e4:	80078793          	addi	a5,a5,-2048 # 40010800 <_eusrstack+0x20008800>
    60e8:	6711                	lui	a4,0x4
    60ea:	cbd8                	sw	a4,20(a5)
    60ec:	0001                	nop
    60ee:	0001                	nop
    60f0:	400117b7          	lui	a5,0x40011
    60f4:	80078793          	addi	a5,a5,-2048 # 40010800 <_eusrstack+0x20008800>
    60f8:	6711                	lui	a4,0x4
    60fa:	cb98                	sw	a4,16(a5)
    60fc:	0001                	nop
    60fe:	0001                	nop
    6100:	fe442703          	lw	a4,-28(s0)
    6104:	fdc42783          	lw	a5,-36(s0)
    6108:	97ba                	add	a5,a5,a4
    610a:	fef42223          	sw	a5,-28(s0)
    610e:	f9c42783          	lw	a5,-100(s0)
    6112:	838d                	srli	a5,a5,0x3
    6114:	fcf42e23          	sw	a5,-36(s0)
    6118:	fdc42783          	lw	a5,-36(s0)
    611c:	fcf42623          	sw	a5,-52(s0)
    6120:	fcc42783          	lw	a5,-52(s0)
    6124:	8b85                	andi	a5,a5,1
    6126:	cb81                	beqz	a5,6136 <SWD_TransferFast+0x1b0>
    6128:	400117b7          	lui	a5,0x40011
    612c:	80078793          	addi	a5,a5,-2048 # 40010800 <_eusrstack+0x20008800>
    6130:	6709                	lui	a4,0x2
    6132:	cb98                	sw	a4,16(a5)
    6134:	a039                	j	6142 <SWD_TransferFast+0x1bc>
    6136:	400117b7          	lui	a5,0x40011
    613a:	80078793          	addi	a5,a5,-2048 # 40010800 <_eusrstack+0x20008800>
    613e:	6709                	lui	a4,0x2
    6140:	cbd8                	sw	a4,20(a5)
    6142:	0001                	nop
    6144:	400117b7          	lui	a5,0x40011
    6148:	80078793          	addi	a5,a5,-2048 # 40010800 <_eusrstack+0x20008800>
    614c:	6711                	lui	a4,0x4
    614e:	cbd8                	sw	a4,20(a5)
    6150:	0001                	nop
    6152:	0001                	nop
    6154:	400117b7          	lui	a5,0x40011
    6158:	80078793          	addi	a5,a5,-2048 # 40010800 <_eusrstack+0x20008800>
    615c:	6711                	lui	a4,0x4
    615e:	cb98                	sw	a4,16(a5)
    6160:	0001                	nop
    6162:	0001                	nop
    6164:	fe442703          	lw	a4,-28(s0)
    6168:	fdc42783          	lw	a5,-36(s0)
    616c:	97ba                	add	a5,a5,a4
    616e:	fef42223          	sw	a5,-28(s0)
    6172:	fe442783          	lw	a5,-28(s0)
    6176:	fcf42823          	sw	a5,-48(s0)
    617a:	fd042783          	lw	a5,-48(s0)
    617e:	8b85                	andi	a5,a5,1
    6180:	cb81                	beqz	a5,6190 <SWD_TransferFast+0x20a>
    6182:	400117b7          	lui	a5,0x40011
    6186:	80078793          	addi	a5,a5,-2048 # 40010800 <_eusrstack+0x20008800>
    618a:	6709                	lui	a4,0x2
    618c:	cb98                	sw	a4,16(a5)
    618e:	a039                	j	619c <SWD_TransferFast+0x216>
    6190:	400117b7          	lui	a5,0x40011
    6194:	80078793          	addi	a5,a5,-2048 # 40010800 <_eusrstack+0x20008800>
    6198:	6709                	lui	a4,0x2
    619a:	cbd8                	sw	a4,20(a5)
    619c:	0001                	nop
    619e:	400117b7          	lui	a5,0x40011
    61a2:	80078793          	addi	a5,a5,-2048 # 40010800 <_eusrstack+0x20008800>
    61a6:	6711                	lui	a4,0x4
    61a8:	cbd8                	sw	a4,20(a5)
    61aa:	0001                	nop
    61ac:	0001                	nop
    61ae:	400117b7          	lui	a5,0x40011
    61b2:	80078793          	addi	a5,a5,-2048 # 40010800 <_eusrstack+0x20008800>
    61b6:	6711                	lui	a4,0x4
    61b8:	cb98                	sw	a4,16(a5)
    61ba:	0001                	nop
    61bc:	0001                	nop
    61be:	fc042a23          	sw	zero,-44(s0)
    61c2:	fd442783          	lw	a5,-44(s0)
    61c6:	8b85                	andi	a5,a5,1
    61c8:	cb81                	beqz	a5,61d8 <SWD_TransferFast+0x252>
    61ca:	400117b7          	lui	a5,0x40011
    61ce:	80078793          	addi	a5,a5,-2048 # 40010800 <_eusrstack+0x20008800>
    61d2:	6709                	lui	a4,0x2
    61d4:	cb98                	sw	a4,16(a5)
    61d6:	a039                	j	61e4 <SWD_TransferFast+0x25e>
    61d8:	400117b7          	lui	a5,0x40011
    61dc:	80078793          	addi	a5,a5,-2048 # 40010800 <_eusrstack+0x20008800>
    61e0:	6709                	lui	a4,0x2
    61e2:	cbd8                	sw	a4,20(a5)
    61e4:	0001                	nop
    61e6:	400117b7          	lui	a5,0x40011
    61ea:	80078793          	addi	a5,a5,-2048 # 40010800 <_eusrstack+0x20008800>
    61ee:	6711                	lui	a4,0x4
    61f0:	cbd8                	sw	a4,20(a5)
    61f2:	0001                	nop
    61f4:	0001                	nop
    61f6:	400117b7          	lui	a5,0x40011
    61fa:	80078793          	addi	a5,a5,-2048 # 40010800 <_eusrstack+0x20008800>
    61fe:	6711                	lui	a4,0x4
    6200:	cb98                	sw	a4,16(a5)
    6202:	0001                	nop
    6204:	0001                	nop
    6206:	4785                	li	a5,1
    6208:	fcf42c23          	sw	a5,-40(s0)
    620c:	fd842783          	lw	a5,-40(s0)
    6210:	8b85                	andi	a5,a5,1
    6212:	cb81                	beqz	a5,6222 <SWD_TransferFast+0x29c>
    6214:	400117b7          	lui	a5,0x40011
    6218:	80078793          	addi	a5,a5,-2048 # 40010800 <_eusrstack+0x20008800>
    621c:	6709                	lui	a4,0x2
    621e:	cb98                	sw	a4,16(a5)
    6220:	a039                	j	622e <SWD_TransferFast+0x2a8>
    6222:	400117b7          	lui	a5,0x40011
    6226:	80078793          	addi	a5,a5,-2048 # 40010800 <_eusrstack+0x20008800>
    622a:	6709                	lui	a4,0x2
    622c:	cbd8                	sw	a4,20(a5)
    622e:	0001                	nop
    6230:	400117b7          	lui	a5,0x40011
    6234:	80078793          	addi	a5,a5,-2048 # 40010800 <_eusrstack+0x20008800>
    6238:	6711                	lui	a4,0x4
    623a:	cbd8                	sw	a4,20(a5)
    623c:	0001                	nop
    623e:	0001                	nop
    6240:	400117b7          	lui	a5,0x40011
    6244:	80078793          	addi	a5,a5,-2048 # 40010800 <_eusrstack+0x20008800>
    6248:	6711                	lui	a4,0x4
    624a:	cb98                	sw	a4,16(a5)
    624c:	0001                	nop
    624e:	0001                	nop
    6250:	400117b7          	lui	a5,0x40011
    6254:	80078793          	addi	a5,a5,-2048 # 40010800 <_eusrstack+0x20008800>
    6258:	43d4                	lw	a3,4(a5)
    625a:	400117b7          	lui	a5,0x40011
    625e:	80078793          	addi	a5,a5,-2048 # 40010800 <_eusrstack+0x20008800>
    6262:	ff000737          	lui	a4,0xff000
    6266:	8f75                	and	a4,a4,a3
    6268:	c3d8                	sw	a4,4(a5)
    626a:	400117b7          	lui	a5,0x40011
    626e:	80078793          	addi	a5,a5,-2048 # 40010800 <_eusrstack+0x20008800>
    6272:	43d4                	lw	a3,4(a5)
    6274:	400117b7          	lui	a5,0x40011
    6278:	80078793          	addi	a5,a5,-2048 # 40010800 <_eusrstack+0x20008800>
    627c:	00400737          	lui	a4,0x400
    6280:	8f55                	or	a4,a4,a3
    6282:	c3d8                	sw	a4,4(a5)
    6284:	0001                	nop
    6286:	200067b7          	lui	a5,0x20006
    628a:	5f878793          	addi	a5,a5,1528 # 200065f8 <DAP_Data>
    628e:	2f9c                	.2byte	0x2f9c
    6290:	fef42023          	sw	a5,-32(s0)
    6294:	a035                	j	62c0 <SWD_TransferFast+0x33a>
    6296:	400117b7          	lui	a5,0x40011
    629a:	80078793          	addi	a5,a5,-2048 # 40010800 <_eusrstack+0x20008800>
    629e:	6711                	lui	a4,0x4
    62a0:	cbd8                	sw	a4,20(a5)
    62a2:	0001                	nop
    62a4:	0001                	nop
    62a6:	400117b7          	lui	a5,0x40011
    62aa:	80078793          	addi	a5,a5,-2048 # 40010800 <_eusrstack+0x20008800>
    62ae:	6711                	lui	a4,0x4
    62b0:	cb98                	sw	a4,16(a5)
    62b2:	0001                	nop
    62b4:	0001                	nop
    62b6:	fe042783          	lw	a5,-32(s0)
    62ba:	17fd                	addi	a5,a5,-1
    62bc:	fef42023          	sw	a5,-32(s0)
    62c0:	fe042783          	lw	a5,-32(s0)
    62c4:	fbe9                	bnez	a5,6296 <SWD_TransferFast+0x310>
    62c6:	400117b7          	lui	a5,0x40011
    62ca:	80078793          	addi	a5,a5,-2048 # 40010800 <_eusrstack+0x20008800>
    62ce:	6711                	lui	a4,0x4
    62d0:	cbd8                	sw	a4,20(a5)
    62d2:	0001                	nop
    62d4:	0001                	nop
    62d6:	400117b7          	lui	a5,0x40011
    62da:	80078793          	addi	a5,a5,-2048 # 40010800 <_eusrstack+0x20008800>
    62de:	4798                	lw	a4,8(a5)
    62e0:	6789                	lui	a5,0x2
    62e2:	8ff9                	and	a5,a5,a4
    62e4:	00f037b3          	snez	a5,a5
    62e8:	0ff7f793          	zext.b	a5,a5
    62ec:	fcf42e23          	sw	a5,-36(s0)
    62f0:	400117b7          	lui	a5,0x40011
    62f4:	80078793          	addi	a5,a5,-2048 # 40010800 <_eusrstack+0x20008800>
    62f8:	6711                	lui	a4,0x4
    62fa:	cb98                	sw	a4,16(a5)
    62fc:	0001                	nop
    62fe:	0001                	nop
    6300:	fdc42783          	lw	a5,-36(s0)
    6304:	fef42623          	sw	a5,-20(s0)
    6308:	400117b7          	lui	a5,0x40011
    630c:	80078793          	addi	a5,a5,-2048 # 40010800 <_eusrstack+0x20008800>
    6310:	6711                	lui	a4,0x4
    6312:	cbd8                	sw	a4,20(a5)
    6314:	0001                	nop
    6316:	0001                	nop
    6318:	400117b7          	lui	a5,0x40011
    631c:	80078793          	addi	a5,a5,-2048 # 40010800 <_eusrstack+0x20008800>
    6320:	4798                	lw	a4,8(a5)
    6322:	6789                	lui	a5,0x2
    6324:	8ff9                	and	a5,a5,a4
    6326:	00f037b3          	snez	a5,a5
    632a:	0ff7f793          	zext.b	a5,a5
    632e:	fcf42e23          	sw	a5,-36(s0)
    6332:	400117b7          	lui	a5,0x40011
    6336:	80078793          	addi	a5,a5,-2048 # 40010800 <_eusrstack+0x20008800>
    633a:	6711                	lui	a4,0x4
    633c:	cb98                	sw	a4,16(a5)
    633e:	0001                	nop
    6340:	0001                	nop
    6342:	fdc42783          	lw	a5,-36(s0)
    6346:	0786                	slli	a5,a5,0x1
    6348:	fec42703          	lw	a4,-20(s0)
    634c:	8fd9                	or	a5,a5,a4
    634e:	fef42623          	sw	a5,-20(s0)
    6352:	400117b7          	lui	a5,0x40011
    6356:	80078793          	addi	a5,a5,-2048 # 40010800 <_eusrstack+0x20008800>
    635a:	6711                	lui	a4,0x4
    635c:	cbd8                	sw	a4,20(a5)
    635e:	0001                	nop
    6360:	0001                	nop
    6362:	400117b7          	lui	a5,0x40011
    6366:	80078793          	addi	a5,a5,-2048 # 40010800 <_eusrstack+0x20008800>
    636a:	4798                	lw	a4,8(a5)
    636c:	6789                	lui	a5,0x2
    636e:	8ff9                	and	a5,a5,a4
    6370:	00f037b3          	snez	a5,a5
    6374:	0ff7f793          	zext.b	a5,a5
    6378:	fcf42e23          	sw	a5,-36(s0)
    637c:	400117b7          	lui	a5,0x40011
    6380:	80078793          	addi	a5,a5,-2048 # 40010800 <_eusrstack+0x20008800>
    6384:	6711                	lui	a4,0x4
    6386:	cb98                	sw	a4,16(a5)
    6388:	0001                	nop
    638a:	0001                	nop
    638c:	fdc42783          	lw	a5,-36(s0)
    6390:	078a                	slli	a5,a5,0x2
    6392:	fec42703          	lw	a4,-20(s0)
    6396:	8fd9                	or	a5,a5,a4
    6398:	fef42623          	sw	a5,-20(s0)
    639c:	fec42703          	lw	a4,-20(s0)
    63a0:	4785                	li	a5,1
    63a2:	36f71863          	bne	a4,a5,6712 <SWD_TransferFast+0x78c>
    63a6:	f9c42783          	lw	a5,-100(s0)
    63aa:	8b89                	andi	a5,a5,2
    63ac:	14078e63          	beqz	a5,6508 <SWD_TransferFast+0x582>
    63b0:	fe042423          	sw	zero,-24(s0)
    63b4:	fe042223          	sw	zero,-28(s0)
    63b8:	02000793          	li	a5,32
    63bc:	fef42023          	sw	a5,-32(s0)
    63c0:	a0bd                	j	642e <SWD_TransferFast+0x4a8>
    63c2:	400117b7          	lui	a5,0x40011
    63c6:	80078793          	addi	a5,a5,-2048 # 40010800 <_eusrstack+0x20008800>
    63ca:	6711                	lui	a4,0x4
    63cc:	cbd8                	sw	a4,20(a5)
    63ce:	0001                	nop
    63d0:	0001                	nop
    63d2:	400117b7          	lui	a5,0x40011
    63d6:	80078793          	addi	a5,a5,-2048 # 40010800 <_eusrstack+0x20008800>
    63da:	4798                	lw	a4,8(a5)
    63dc:	6789                	lui	a5,0x2
    63de:	8ff9                	and	a5,a5,a4
    63e0:	00f037b3          	snez	a5,a5
    63e4:	0ff7f793          	zext.b	a5,a5
    63e8:	fcf42e23          	sw	a5,-36(s0)
    63ec:	400117b7          	lui	a5,0x40011
    63f0:	80078793          	addi	a5,a5,-2048 # 40010800 <_eusrstack+0x20008800>
    63f4:	6711                	lui	a4,0x4
    63f6:	cb98                	sw	a4,16(a5)
    63f8:	0001                	nop
    63fa:	0001                	nop
    63fc:	fe442703          	lw	a4,-28(s0)
    6400:	fdc42783          	lw	a5,-36(s0)
    6404:	97ba                	add	a5,a5,a4
    6406:	fef42223          	sw	a5,-28(s0)
    640a:	fe842783          	lw	a5,-24(s0)
    640e:	8385                	srli	a5,a5,0x1
    6410:	fef42423          	sw	a5,-24(s0)
    6414:	fdc42783          	lw	a5,-36(s0)
    6418:	07fe                	slli	a5,a5,0x1f
    641a:	fe842703          	lw	a4,-24(s0)
    641e:	8fd9                	or	a5,a5,a4
    6420:	fef42423          	sw	a5,-24(s0)
    6424:	fe042783          	lw	a5,-32(s0)
    6428:	17fd                	addi	a5,a5,-1
    642a:	fef42023          	sw	a5,-32(s0)
    642e:	fe042783          	lw	a5,-32(s0)
    6432:	fbc1                	bnez	a5,63c2 <SWD_TransferFast+0x43c>
    6434:	400117b7          	lui	a5,0x40011
    6438:	80078793          	addi	a5,a5,-2048 # 40010800 <_eusrstack+0x20008800>
    643c:	6711                	lui	a4,0x4
    643e:	cbd8                	sw	a4,20(a5)
    6440:	0001                	nop
    6442:	0001                	nop
    6444:	400117b7          	lui	a5,0x40011
    6448:	80078793          	addi	a5,a5,-2048 # 40010800 <_eusrstack+0x20008800>
    644c:	4798                	lw	a4,8(a5)
    644e:	6789                	lui	a5,0x2
    6450:	8ff9                	and	a5,a5,a4
    6452:	00f037b3          	snez	a5,a5
    6456:	0ff7f793          	zext.b	a5,a5
    645a:	fcf42e23          	sw	a5,-36(s0)
    645e:	400117b7          	lui	a5,0x40011
    6462:	80078793          	addi	a5,a5,-2048 # 40010800 <_eusrstack+0x20008800>
    6466:	6711                	lui	a4,0x4
    6468:	cb98                	sw	a4,16(a5)
    646a:	0001                	nop
    646c:	0001                	nop
    646e:	fe442703          	lw	a4,-28(s0)
    6472:	fdc42783          	lw	a5,-36(s0)
    6476:	8fb9                	xor	a5,a5,a4
    6478:	8b85                	andi	a5,a5,1
    647a:	c781                	beqz	a5,6482 <SWD_TransferFast+0x4fc>
    647c:	47a1                	li	a5,8
    647e:	fef42623          	sw	a5,-20(s0)
    6482:	f9842783          	lw	a5,-104(s0)
    6486:	c791                	beqz	a5,6492 <SWD_TransferFast+0x50c>
    6488:	f9842783          	lw	a5,-104(s0)
    648c:	fe842703          	lw	a4,-24(s0)
    6490:	c398                	sw	a4,0(a5)
    6492:	200067b7          	lui	a5,0x20006
    6496:	5f878793          	addi	a5,a5,1528 # 200065f8 <DAP_Data>
    649a:	2f9c                	.2byte	0x2f9c
    649c:	fef42023          	sw	a5,-32(s0)
    64a0:	a035                	j	64cc <SWD_TransferFast+0x546>
    64a2:	400117b7          	lui	a5,0x40011
    64a6:	80078793          	addi	a5,a5,-2048 # 40010800 <_eusrstack+0x20008800>
    64aa:	6711                	lui	a4,0x4
    64ac:	cbd8                	sw	a4,20(a5)
    64ae:	0001                	nop
    64b0:	0001                	nop
    64b2:	400117b7          	lui	a5,0x40011
    64b6:	80078793          	addi	a5,a5,-2048 # 40010800 <_eusrstack+0x20008800>
    64ba:	6711                	lui	a4,0x4
    64bc:	cb98                	sw	a4,16(a5)
    64be:	0001                	nop
    64c0:	0001                	nop
    64c2:	fe042783          	lw	a5,-32(s0)
    64c6:	17fd                	addi	a5,a5,-1
    64c8:	fef42023          	sw	a5,-32(s0)
    64cc:	fe042783          	lw	a5,-32(s0)
    64d0:	fbe9                	bnez	a5,64a2 <SWD_TransferFast+0x51c>
    64d2:	400117b7          	lui	a5,0x40011
    64d6:	80078793          	addi	a5,a5,-2048 # 40010800 <_eusrstack+0x20008800>
    64da:	43d4                	lw	a3,4(a5)
    64dc:	400117b7          	lui	a5,0x40011
    64e0:	80078793          	addi	a5,a5,-2048 # 40010800 <_eusrstack+0x20008800>
    64e4:	ff000737          	lui	a4,0xff000
    64e8:	8f75                	and	a4,a4,a3
    64ea:	c3d8                	sw	a4,4(a5)
    64ec:	400117b7          	lui	a5,0x40011
    64f0:	80078793          	addi	a5,a5,-2048 # 40010800 <_eusrstack+0x20008800>
    64f4:	43d4                	lw	a3,4(a5)
    64f6:	400117b7          	lui	a5,0x40011
    64fa:	80078793          	addi	a5,a5,-2048 # 40010800 <_eusrstack+0x20008800>
    64fe:	01300737          	lui	a4,0x1300
    6502:	8f55                	or	a4,a4,a3
    6504:	c3d8                	sw	a4,4(a5)
    6506:	aa81                	j	6656 <SWD_TransferFast+0x6d0>
    6508:	200067b7          	lui	a5,0x20006
    650c:	5f878793          	addi	a5,a5,1528 # 200065f8 <DAP_Data>
    6510:	2f9c                	.2byte	0x2f9c
    6512:	fef42023          	sw	a5,-32(s0)
    6516:	a035                	j	6542 <SWD_TransferFast+0x5bc>
    6518:	400117b7          	lui	a5,0x40011
    651c:	80078793          	addi	a5,a5,-2048 # 40010800 <_eusrstack+0x20008800>
    6520:	6711                	lui	a4,0x4
    6522:	cbd8                	sw	a4,20(a5)
    6524:	0001                	nop
    6526:	0001                	nop
    6528:	400117b7          	lui	a5,0x40011
    652c:	80078793          	addi	a5,a5,-2048 # 40010800 <_eusrstack+0x20008800>
    6530:	6711                	lui	a4,0x4
    6532:	cb98                	sw	a4,16(a5)
    6534:	0001                	nop
    6536:	0001                	nop
    6538:	fe042783          	lw	a5,-32(s0)
    653c:	17fd                	addi	a5,a5,-1
    653e:	fef42023          	sw	a5,-32(s0)
    6542:	fe042783          	lw	a5,-32(s0)
    6546:	fbe9                	bnez	a5,6518 <SWD_TransferFast+0x592>
    6548:	400117b7          	lui	a5,0x40011
    654c:	80078793          	addi	a5,a5,-2048 # 40010800 <_eusrstack+0x20008800>
    6550:	43d4                	lw	a3,4(a5)
    6552:	400117b7          	lui	a5,0x40011
    6556:	80078793          	addi	a5,a5,-2048 # 40010800 <_eusrstack+0x20008800>
    655a:	ff000737          	lui	a4,0xff000
    655e:	8f75                	and	a4,a4,a3
    6560:	c3d8                	sw	a4,4(a5)
    6562:	400117b7          	lui	a5,0x40011
    6566:	80078793          	addi	a5,a5,-2048 # 40010800 <_eusrstack+0x20008800>
    656a:	43d4                	lw	a3,4(a5)
    656c:	400117b7          	lui	a5,0x40011
    6570:	80078793          	addi	a5,a5,-2048 # 40010800 <_eusrstack+0x20008800>
    6574:	01300737          	lui	a4,0x1300
    6578:	8f55                	or	a4,a4,a3
    657a:	c3d8                	sw	a4,4(a5)
    657c:	0001                	nop
    657e:	f9842783          	lw	a5,-104(s0)
    6582:	439c                	lw	a5,0(a5)
    6584:	fef42423          	sw	a5,-24(s0)
    6588:	fe042223          	sw	zero,-28(s0)
    658c:	02000793          	li	a5,32
    6590:	fef42023          	sw	a5,-32(s0)
    6594:	a885                	j	6604 <SWD_TransferFast+0x67e>
    6596:	fe842783          	lw	a5,-24(s0)
    659a:	faf42c23          	sw	a5,-72(s0)
    659e:	fb842783          	lw	a5,-72(s0)
    65a2:	8b85                	andi	a5,a5,1
    65a4:	cb81                	beqz	a5,65b4 <SWD_TransferFast+0x62e>
    65a6:	400117b7          	lui	a5,0x40011
    65aa:	80078793          	addi	a5,a5,-2048 # 40010800 <_eusrstack+0x20008800>
    65ae:	6709                	lui	a4,0x2
    65b0:	cb98                	sw	a4,16(a5)
    65b2:	a039                	j	65c0 <SWD_TransferFast+0x63a>
    65b4:	400117b7          	lui	a5,0x40011
    65b8:	80078793          	addi	a5,a5,-2048 # 40010800 <_eusrstack+0x20008800>
    65bc:	6709                	lui	a4,0x2
    65be:	cbd8                	sw	a4,20(a5)
    65c0:	0001                	nop
    65c2:	400117b7          	lui	a5,0x40011
    65c6:	80078793          	addi	a5,a5,-2048 # 40010800 <_eusrstack+0x20008800>
    65ca:	6711                	lui	a4,0x4
    65cc:	cbd8                	sw	a4,20(a5)
    65ce:	0001                	nop
    65d0:	0001                	nop
    65d2:	400117b7          	lui	a5,0x40011
    65d6:	80078793          	addi	a5,a5,-2048 # 40010800 <_eusrstack+0x20008800>
    65da:	6711                	lui	a4,0x4
    65dc:	cb98                	sw	a4,16(a5)
    65de:	0001                	nop
    65e0:	0001                	nop
    65e2:	fe442703          	lw	a4,-28(s0)
    65e6:	fe842783          	lw	a5,-24(s0)
    65ea:	97ba                	add	a5,a5,a4
    65ec:	fef42223          	sw	a5,-28(s0)
    65f0:	fe842783          	lw	a5,-24(s0)
    65f4:	8385                	srli	a5,a5,0x1
    65f6:	fef42423          	sw	a5,-24(s0)
    65fa:	fe042783          	lw	a5,-32(s0)
    65fe:	17fd                	addi	a5,a5,-1
    6600:	fef42023          	sw	a5,-32(s0)
    6604:	fe042783          	lw	a5,-32(s0)
    6608:	f7d9                	bnez	a5,6596 <SWD_TransferFast+0x610>
    660a:	fe442783          	lw	a5,-28(s0)
    660e:	faf42a23          	sw	a5,-76(s0)
    6612:	fb442783          	lw	a5,-76(s0)
    6616:	8b85                	andi	a5,a5,1
    6618:	cb81                	beqz	a5,6628 <SWD_TransferFast+0x6a2>
    661a:	400117b7          	lui	a5,0x40011
    661e:	80078793          	addi	a5,a5,-2048 # 40010800 <_eusrstack+0x20008800>
    6622:	6709                	lui	a4,0x2
    6624:	cb98                	sw	a4,16(a5)
    6626:	a039                	j	6634 <SWD_TransferFast+0x6ae>
    6628:	400117b7          	lui	a5,0x40011
    662c:	80078793          	addi	a5,a5,-2048 # 40010800 <_eusrstack+0x20008800>
    6630:	6709                	lui	a4,0x2
    6632:	cbd8                	sw	a4,20(a5)
    6634:	0001                	nop
    6636:	400117b7          	lui	a5,0x40011
    663a:	80078793          	addi	a5,a5,-2048 # 40010800 <_eusrstack+0x20008800>
    663e:	6711                	lui	a4,0x4
    6640:	cbd8                	sw	a4,20(a5)
    6642:	0001                	nop
    6644:	0001                	nop
    6646:	400117b7          	lui	a5,0x40011
    664a:	80078793          	addi	a5,a5,-2048 # 40010800 <_eusrstack+0x20008800>
    664e:	6711                	lui	a4,0x4
    6650:	cb98                	sw	a4,16(a5)
    6652:	0001                	nop
    6654:	0001                	nop
    6656:	f9c42783          	lw	a5,-100(s0)
    665a:	0807f793          	andi	a5,a5,128
    665e:	cb89                	beqz	a5,6670 <SWD_TransferFast+0x6ea>
    6660:	dfaff0ef          	jal	ra,5c5a <TIMESTAMP_GET>
    6664:	872a                	mv	a4,a0
    6666:	200067b7          	lui	a5,0x20006
    666a:	5f878793          	addi	a5,a5,1528 # 200065f8 <DAP_Data>
    666e:	c798                	sw	a4,8(a5)
    6670:	200067b7          	lui	a5,0x20006
    6674:	5f878793          	addi	a5,a5,1528 # 200065f8 <DAP_Data>
    6678:	27dc                	.2byte	0x27dc
    667a:	fef42023          	sw	a5,-32(s0)
    667e:	fe042783          	lw	a5,-32(s0)
    6682:	cfb1                	beqz	a5,66de <SWD_TransferFast+0x758>
    6684:	fa042823          	sw	zero,-80(s0)
    6688:	fb042783          	lw	a5,-80(s0)
    668c:	8b85                	andi	a5,a5,1
    668e:	cb81                	beqz	a5,669e <SWD_TransferFast+0x718>
    6690:	400117b7          	lui	a5,0x40011
    6694:	80078793          	addi	a5,a5,-2048 # 40010800 <_eusrstack+0x20008800>
    6698:	6709                	lui	a4,0x2
    669a:	cb98                	sw	a4,16(a5)
    669c:	a039                	j	66aa <SWD_TransferFast+0x724>
    669e:	400117b7          	lui	a5,0x40011
    66a2:	80078793          	addi	a5,a5,-2048 # 40010800 <_eusrstack+0x20008800>
    66a6:	6709                	lui	a4,0x2
    66a8:	cbd8                	sw	a4,20(a5)
    66aa:	0001                	nop
    66ac:	a035                	j	66d8 <SWD_TransferFast+0x752>
    66ae:	400117b7          	lui	a5,0x40011
    66b2:	80078793          	addi	a5,a5,-2048 # 40010800 <_eusrstack+0x20008800>
    66b6:	6711                	lui	a4,0x4
    66b8:	cbd8                	sw	a4,20(a5)
    66ba:	0001                	nop
    66bc:	0001                	nop
    66be:	400117b7          	lui	a5,0x40011
    66c2:	80078793          	addi	a5,a5,-2048 # 40010800 <_eusrstack+0x20008800>
    66c6:	6711                	lui	a4,0x4
    66c8:	cb98                	sw	a4,16(a5)
    66ca:	0001                	nop
    66cc:	0001                	nop
    66ce:	fe042783          	lw	a5,-32(s0)
    66d2:	17fd                	addi	a5,a5,-1
    66d4:	fef42023          	sw	a5,-32(s0)
    66d8:	fe042783          	lw	a5,-32(s0)
    66dc:	fbe9                	bnez	a5,66ae <SWD_TransferFast+0x728>
    66de:	4785                	li	a5,1
    66e0:	faf42623          	sw	a5,-84(s0)
    66e4:	fac42783          	lw	a5,-84(s0)
    66e8:	8b85                	andi	a5,a5,1
    66ea:	cb81                	beqz	a5,66fa <SWD_TransferFast+0x774>
    66ec:	400117b7          	lui	a5,0x40011
    66f0:	80078793          	addi	a5,a5,-2048 # 40010800 <_eusrstack+0x20008800>
    66f4:	6709                	lui	a4,0x2
    66f6:	cb98                	sw	a4,16(a5)
    66f8:	a039                	j	6706 <SWD_TransferFast+0x780>
    66fa:	400117b7          	lui	a5,0x40011
    66fe:	80078793          	addi	a5,a5,-2048 # 40010800 <_eusrstack+0x20008800>
    6702:	6709                	lui	a4,0x2
    6704:	cbd8                	sw	a4,20(a5)
    6706:	0001                	nop
    6708:	fec42783          	lw	a5,-20(s0)
    670c:	0ff7f793          	zext.b	a5,a5
    6710:	ac05                	j	6940 <SWD_TransferFast+0x9ba>
    6712:	fec42703          	lw	a4,-20(s0)
    6716:	4789                	li	a5,2
    6718:	00f70763          	beq	a4,a5,6726 <SWD_TransferFast+0x7a0>
    671c:	fec42703          	lw	a4,-20(s0)
    6720:	4791                	li	a5,4
    6722:	16f71963          	bne	a4,a5,6894 <SWD_TransferFast+0x90e>
    6726:	200067b7          	lui	a5,0x20006
    672a:	5f878793          	addi	a5,a5,1528 # 200065f8 <DAP_Data>
    672e:	3f9c                	.2byte	0x3f9c
    6730:	c3b1                	beqz	a5,6774 <SWD_TransferFast+0x7ee>
    6732:	f9c42783          	lw	a5,-100(s0)
    6736:	8b89                	andi	a5,a5,2
    6738:	cf95                	beqz	a5,6774 <SWD_TransferFast+0x7ee>
    673a:	02100793          	li	a5,33
    673e:	fef42023          	sw	a5,-32(s0)
    6742:	a035                	j	676e <SWD_TransferFast+0x7e8>
    6744:	400117b7          	lui	a5,0x40011
    6748:	80078793          	addi	a5,a5,-2048 # 40010800 <_eusrstack+0x20008800>
    674c:	6711                	lui	a4,0x4
    674e:	cbd8                	sw	a4,20(a5)
    6750:	0001                	nop
    6752:	0001                	nop
    6754:	400117b7          	lui	a5,0x40011
    6758:	80078793          	addi	a5,a5,-2048 # 40010800 <_eusrstack+0x20008800>
    675c:	6711                	lui	a4,0x4
    675e:	cb98                	sw	a4,16(a5)
    6760:	0001                	nop
    6762:	0001                	nop
    6764:	fe042783          	lw	a5,-32(s0)
    6768:	17fd                	addi	a5,a5,-1
    676a:	fef42023          	sw	a5,-32(s0)
    676e:	fe042783          	lw	a5,-32(s0)
    6772:	fbe9                	bnez	a5,6744 <SWD_TransferFast+0x7be>
    6774:	200067b7          	lui	a5,0x20006
    6778:	5f878793          	addi	a5,a5,1528 # 200065f8 <DAP_Data>
    677c:	2f9c                	.2byte	0x2f9c
    677e:	fef42023          	sw	a5,-32(s0)
    6782:	a035                	j	67ae <SWD_TransferFast+0x828>
    6784:	400117b7          	lui	a5,0x40011
    6788:	80078793          	addi	a5,a5,-2048 # 40010800 <_eusrstack+0x20008800>
    678c:	6711                	lui	a4,0x4
    678e:	cbd8                	sw	a4,20(a5)
    6790:	0001                	nop
    6792:	0001                	nop
    6794:	400117b7          	lui	a5,0x40011
    6798:	80078793          	addi	a5,a5,-2048 # 40010800 <_eusrstack+0x20008800>
    679c:	6711                	lui	a4,0x4
    679e:	cb98                	sw	a4,16(a5)
    67a0:	0001                	nop
    67a2:	0001                	nop
    67a4:	fe042783          	lw	a5,-32(s0)
    67a8:	17fd                	addi	a5,a5,-1
    67aa:	fef42023          	sw	a5,-32(s0)
    67ae:	fe042783          	lw	a5,-32(s0)
    67b2:	fbe9                	bnez	a5,6784 <SWD_TransferFast+0x7fe>
    67b4:	400117b7          	lui	a5,0x40011
    67b8:	80078793          	addi	a5,a5,-2048 # 40010800 <_eusrstack+0x20008800>
    67bc:	43d4                	lw	a3,4(a5)
    67be:	400117b7          	lui	a5,0x40011
    67c2:	80078793          	addi	a5,a5,-2048 # 40010800 <_eusrstack+0x20008800>
    67c6:	ff000737          	lui	a4,0xff000
    67ca:	8f75                	and	a4,a4,a3
    67cc:	c3d8                	sw	a4,4(a5)
    67ce:	400117b7          	lui	a5,0x40011
    67d2:	80078793          	addi	a5,a5,-2048 # 40010800 <_eusrstack+0x20008800>
    67d6:	43d4                	lw	a3,4(a5)
    67d8:	400117b7          	lui	a5,0x40011
    67dc:	80078793          	addi	a5,a5,-2048 # 40010800 <_eusrstack+0x20008800>
    67e0:	01300737          	lui	a4,0x1300
    67e4:	8f55                	or	a4,a4,a3
    67e6:	c3d8                	sw	a4,4(a5)
    67e8:	0001                	nop
    67ea:	200067b7          	lui	a5,0x20006
    67ee:	5f878793          	addi	a5,a5,1528 # 200065f8 <DAP_Data>
    67f2:	3f9c                	.2byte	0x3f9c
    67f4:	c7b5                	beqz	a5,6860 <SWD_TransferFast+0x8da>
    67f6:	f9c42783          	lw	a5,-100(s0)
    67fa:	8b89                	andi	a5,a5,2
    67fc:	e3b5                	bnez	a5,6860 <SWD_TransferFast+0x8da>
    67fe:	fa042423          	sw	zero,-88(s0)
    6802:	fa842783          	lw	a5,-88(s0)
    6806:	8b85                	andi	a5,a5,1
    6808:	cb81                	beqz	a5,6818 <SWD_TransferFast+0x892>
    680a:	400117b7          	lui	a5,0x40011
    680e:	80078793          	addi	a5,a5,-2048 # 40010800 <_eusrstack+0x20008800>
    6812:	6709                	lui	a4,0x2
    6814:	cb98                	sw	a4,16(a5)
    6816:	a039                	j	6824 <SWD_TransferFast+0x89e>
    6818:	400117b7          	lui	a5,0x40011
    681c:	80078793          	addi	a5,a5,-2048 # 40010800 <_eusrstack+0x20008800>
    6820:	6709                	lui	a4,0x2
    6822:	cbd8                	sw	a4,20(a5)
    6824:	0001                	nop
    6826:	02100793          	li	a5,33
    682a:	fef42023          	sw	a5,-32(s0)
    682e:	a035                	j	685a <SWD_TransferFast+0x8d4>
    6830:	400117b7          	lui	a5,0x40011
    6834:	80078793          	addi	a5,a5,-2048 # 40010800 <_eusrstack+0x20008800>
    6838:	6711                	lui	a4,0x4
    683a:	cbd8                	sw	a4,20(a5)
    683c:	0001                	nop
    683e:	0001                	nop
    6840:	400117b7          	lui	a5,0x40011
    6844:	80078793          	addi	a5,a5,-2048 # 40010800 <_eusrstack+0x20008800>
    6848:	6711                	lui	a4,0x4
    684a:	cb98                	sw	a4,16(a5)
    684c:	0001                	nop
    684e:	0001                	nop
    6850:	fe042783          	lw	a5,-32(s0)
    6854:	17fd                	addi	a5,a5,-1
    6856:	fef42023          	sw	a5,-32(s0)
    685a:	fe042783          	lw	a5,-32(s0)
    685e:	fbe9                	bnez	a5,6830 <SWD_TransferFast+0x8aa>
    6860:	4785                	li	a5,1
    6862:	faf42223          	sw	a5,-92(s0)
    6866:	fa442783          	lw	a5,-92(s0)
    686a:	8b85                	andi	a5,a5,1
    686c:	cb81                	beqz	a5,687c <SWD_TransferFast+0x8f6>
    686e:	400117b7          	lui	a5,0x40011
    6872:	80078793          	addi	a5,a5,-2048 # 40010800 <_eusrstack+0x20008800>
    6876:	6709                	lui	a4,0x2
    6878:	cb98                	sw	a4,16(a5)
    687a:	a039                	j	6888 <SWD_TransferFast+0x902>
    687c:	400117b7          	lui	a5,0x40011
    6880:	80078793          	addi	a5,a5,-2048 # 40010800 <_eusrstack+0x20008800>
    6884:	6709                	lui	a4,0x2
    6886:	cbd8                	sw	a4,20(a5)
    6888:	0001                	nop
    688a:	fec42783          	lw	a5,-20(s0)
    688e:	0ff7f793          	zext.b	a5,a5
    6892:	a07d                	j	6940 <SWD_TransferFast+0x9ba>
    6894:	200067b7          	lui	a5,0x20006
    6898:	5f878793          	addi	a5,a5,1528 # 200065f8 <DAP_Data>
    689c:	2f9c                	.2byte	0x2f9c
    689e:	02178793          	addi	a5,a5,33
    68a2:	fef42023          	sw	a5,-32(s0)
    68a6:	a035                	j	68d2 <SWD_TransferFast+0x94c>
    68a8:	400117b7          	lui	a5,0x40011
    68ac:	80078793          	addi	a5,a5,-2048 # 40010800 <_eusrstack+0x20008800>
    68b0:	6711                	lui	a4,0x4
    68b2:	cbd8                	sw	a4,20(a5)
    68b4:	0001                	nop
    68b6:	0001                	nop
    68b8:	400117b7          	lui	a5,0x40011
    68bc:	80078793          	addi	a5,a5,-2048 # 40010800 <_eusrstack+0x20008800>
    68c0:	6711                	lui	a4,0x4
    68c2:	cb98                	sw	a4,16(a5)
    68c4:	0001                	nop
    68c6:	0001                	nop
    68c8:	fe042783          	lw	a5,-32(s0)
    68cc:	17fd                	addi	a5,a5,-1
    68ce:	fef42023          	sw	a5,-32(s0)
    68d2:	fe042783          	lw	a5,-32(s0)
    68d6:	fbe9                	bnez	a5,68a8 <SWD_TransferFast+0x922>
    68d8:	400117b7          	lui	a5,0x40011
    68dc:	80078793          	addi	a5,a5,-2048 # 40010800 <_eusrstack+0x20008800>
    68e0:	43d4                	lw	a3,4(a5)
    68e2:	400117b7          	lui	a5,0x40011
    68e6:	80078793          	addi	a5,a5,-2048 # 40010800 <_eusrstack+0x20008800>
    68ea:	ff000737          	lui	a4,0xff000
    68ee:	8f75                	and	a4,a4,a3
    68f0:	c3d8                	sw	a4,4(a5)
    68f2:	400117b7          	lui	a5,0x40011
    68f6:	80078793          	addi	a5,a5,-2048 # 40010800 <_eusrstack+0x20008800>
    68fa:	43d4                	lw	a3,4(a5)
    68fc:	400117b7          	lui	a5,0x40011
    6900:	80078793          	addi	a5,a5,-2048 # 40010800 <_eusrstack+0x20008800>
    6904:	01300737          	lui	a4,0x1300
    6908:	8f55                	or	a4,a4,a3
    690a:	c3d8                	sw	a4,4(a5)
    690c:	0001                	nop
    690e:	4785                	li	a5,1
    6910:	faf42023          	sw	a5,-96(s0)
    6914:	fa042783          	lw	a5,-96(s0)
    6918:	8b85                	andi	a5,a5,1
    691a:	cb81                	beqz	a5,692a <SWD_TransferFast+0x9a4>
    691c:	400117b7          	lui	a5,0x40011
    6920:	80078793          	addi	a5,a5,-2048 # 40010800 <_eusrstack+0x20008800>
    6924:	6709                	lui	a4,0x2
    6926:	cb98                	sw	a4,16(a5)
    6928:	a039                	j	6936 <SWD_TransferFast+0x9b0>
    692a:	400117b7          	lui	a5,0x40011
    692e:	80078793          	addi	a5,a5,-2048 # 40010800 <_eusrstack+0x20008800>
    6932:	6709                	lui	a4,0x2
    6934:	cbd8                	sw	a4,20(a5)
    6936:	0001                	nop
    6938:	fec42783          	lw	a5,-20(s0)
    693c:	0ff7f793          	zext.b	a5,a5
    6940:	853e                	mv	a0,a5
    6942:	50b6                	lw	ra,108(sp)
    6944:	5426                	lw	s0,104(sp)
    6946:	6165                	addi	sp,sp,112
    6948:	8082                	ret

0000694a <SWD_TransferSlow>:
    694a:	7105                	addi	sp,sp,-480
    694c:	1c112e23          	sw	ra,476(sp)
    6950:	1c812c23          	sw	s0,472(sp)
    6954:	1380                	addi	s0,sp,480
    6956:	e2a42623          	sw	a0,-468(s0)
    695a:	e2b42423          	sw	a1,-472(s0)
    695e:	fe042223          	sw	zero,-28(s0)
    6962:	4785                	li	a5,1
    6964:	f2f42e23          	sw	a5,-196(s0)
    6968:	f3c42783          	lw	a5,-196(s0)
    696c:	8b85                	andi	a5,a5,1
    696e:	cb81                	beqz	a5,697e <SWD_TransferSlow+0x34>
    6970:	400117b7          	lui	a5,0x40011
    6974:	80078793          	addi	a5,a5,-2048 # 40010800 <_eusrstack+0x20008800>
    6978:	6709                	lui	a4,0x2
    697a:	cb98                	sw	a4,16(a5)
    697c:	a039                	j	698a <SWD_TransferSlow+0x40>
    697e:	400117b7          	lui	a5,0x40011
    6982:	80078793          	addi	a5,a5,-2048 # 40010800 <_eusrstack+0x20008800>
    6986:	6709                	lui	a4,0x2
    6988:	cbd8                	sw	a4,20(a5)
    698a:	0001                	nop
    698c:	400117b7          	lui	a5,0x40011
    6990:	80078793          	addi	a5,a5,-2048 # 40010800 <_eusrstack+0x20008800>
    6994:	6711                	lui	a4,0x4
    6996:	cbd8                	sw	a4,20(a5)
    6998:	0001                	nop
    699a:	200067b7          	lui	a5,0x20006
    699e:	5f878793          	addi	a5,a5,1528 # 200065f8 <DAP_Data>
    69a2:	43dc                	lw	a5,4(a5)
    69a4:	f4f42223          	sw	a5,-188(s0)
    69a8:	f4442783          	lw	a5,-188(s0)
    69ac:	f4f42023          	sw	a5,-192(s0)
    69b0:	0001                	nop
    69b2:	f4042783          	lw	a5,-192(s0)
    69b6:	17fd                	addi	a5,a5,-1
    69b8:	f4f42023          	sw	a5,-192(s0)
    69bc:	f4042783          	lw	a5,-192(s0)
    69c0:	fbed                	bnez	a5,69b2 <SWD_TransferSlow+0x68>
    69c2:	0001                	nop
    69c4:	400117b7          	lui	a5,0x40011
    69c8:	80078793          	addi	a5,a5,-2048 # 40010800 <_eusrstack+0x20008800>
    69cc:	6711                	lui	a4,0x4
    69ce:	cb98                	sw	a4,16(a5)
    69d0:	0001                	nop
    69d2:	200067b7          	lui	a5,0x20006
    69d6:	5f878793          	addi	a5,a5,1528 # 200065f8 <DAP_Data>
    69da:	43dc                	lw	a5,4(a5)
    69dc:	f4f42623          	sw	a5,-180(s0)
    69e0:	f4c42783          	lw	a5,-180(s0)
    69e4:	f4f42423          	sw	a5,-184(s0)
    69e8:	0001                	nop
    69ea:	f4842783          	lw	a5,-184(s0)
    69ee:	17fd                	addi	a5,a5,-1
    69f0:	f4f42423          	sw	a5,-184(s0)
    69f4:	f4842783          	lw	a5,-184(s0)
    69f8:	fbed                	bnez	a5,69ea <SWD_TransferSlow+0xa0>
    69fa:	0001                	nop
    69fc:	e2c42783          	lw	a5,-468(s0)
    6a00:	fcf42e23          	sw	a5,-36(s0)
    6a04:	fdc42783          	lw	a5,-36(s0)
    6a08:	f4f42823          	sw	a5,-176(s0)
    6a0c:	f5042783          	lw	a5,-176(s0)
    6a10:	8b85                	andi	a5,a5,1
    6a12:	cb81                	beqz	a5,6a22 <SWD_TransferSlow+0xd8>
    6a14:	400117b7          	lui	a5,0x40011
    6a18:	80078793          	addi	a5,a5,-2048 # 40010800 <_eusrstack+0x20008800>
    6a1c:	6709                	lui	a4,0x2
    6a1e:	cb98                	sw	a4,16(a5)
    6a20:	a039                	j	6a2e <SWD_TransferSlow+0xe4>
    6a22:	400117b7          	lui	a5,0x40011
    6a26:	80078793          	addi	a5,a5,-2048 # 40010800 <_eusrstack+0x20008800>
    6a2a:	6709                	lui	a4,0x2
    6a2c:	cbd8                	sw	a4,20(a5)
    6a2e:	0001                	nop
    6a30:	400117b7          	lui	a5,0x40011
    6a34:	80078793          	addi	a5,a5,-2048 # 40010800 <_eusrstack+0x20008800>
    6a38:	6711                	lui	a4,0x4
    6a3a:	cbd8                	sw	a4,20(a5)
    6a3c:	0001                	nop
    6a3e:	200067b7          	lui	a5,0x20006
    6a42:	5f878793          	addi	a5,a5,1528 # 200065f8 <DAP_Data>
    6a46:	43dc                	lw	a5,4(a5)
    6a48:	f4f42c23          	sw	a5,-168(s0)
    6a4c:	f5842783          	lw	a5,-168(s0)
    6a50:	f4f42a23          	sw	a5,-172(s0)
    6a54:	0001                	nop
    6a56:	f5442783          	lw	a5,-172(s0)
    6a5a:	17fd                	addi	a5,a5,-1
    6a5c:	f4f42a23          	sw	a5,-172(s0)
    6a60:	f5442783          	lw	a5,-172(s0)
    6a64:	fbed                	bnez	a5,6a56 <SWD_TransferSlow+0x10c>
    6a66:	0001                	nop
    6a68:	400117b7          	lui	a5,0x40011
    6a6c:	80078793          	addi	a5,a5,-2048 # 40010800 <_eusrstack+0x20008800>
    6a70:	6711                	lui	a4,0x4
    6a72:	cb98                	sw	a4,16(a5)
    6a74:	0001                	nop
    6a76:	200067b7          	lui	a5,0x20006
    6a7a:	5f878793          	addi	a5,a5,1528 # 200065f8 <DAP_Data>
    6a7e:	43dc                	lw	a5,4(a5)
    6a80:	f6f42023          	sw	a5,-160(s0)
    6a84:	f6042783          	lw	a5,-160(s0)
    6a88:	f4f42e23          	sw	a5,-164(s0)
    6a8c:	0001                	nop
    6a8e:	f5c42783          	lw	a5,-164(s0)
    6a92:	17fd                	addi	a5,a5,-1
    6a94:	f4f42e23          	sw	a5,-164(s0)
    6a98:	f5c42783          	lw	a5,-164(s0)
    6a9c:	fbed                	bnez	a5,6a8e <SWD_TransferSlow+0x144>
    6a9e:	0001                	nop
    6aa0:	fe442703          	lw	a4,-28(s0)
    6aa4:	fdc42783          	lw	a5,-36(s0)
    6aa8:	97ba                	add	a5,a5,a4
    6aaa:	fef42223          	sw	a5,-28(s0)
    6aae:	e2c42783          	lw	a5,-468(s0)
    6ab2:	8385                	srli	a5,a5,0x1
    6ab4:	fcf42e23          	sw	a5,-36(s0)
    6ab8:	fdc42783          	lw	a5,-36(s0)
    6abc:	f6f42223          	sw	a5,-156(s0)
    6ac0:	f6442783          	lw	a5,-156(s0)
    6ac4:	8b85                	andi	a5,a5,1
    6ac6:	cb81                	beqz	a5,6ad6 <SWD_TransferSlow+0x18c>
    6ac8:	400117b7          	lui	a5,0x40011
    6acc:	80078793          	addi	a5,a5,-2048 # 40010800 <_eusrstack+0x20008800>
    6ad0:	6709                	lui	a4,0x2
    6ad2:	cb98                	sw	a4,16(a5)
    6ad4:	a039                	j	6ae2 <SWD_TransferSlow+0x198>
    6ad6:	400117b7          	lui	a5,0x40011
    6ada:	80078793          	addi	a5,a5,-2048 # 40010800 <_eusrstack+0x20008800>
    6ade:	6709                	lui	a4,0x2
    6ae0:	cbd8                	sw	a4,20(a5)
    6ae2:	0001                	nop
    6ae4:	400117b7          	lui	a5,0x40011
    6ae8:	80078793          	addi	a5,a5,-2048 # 40010800 <_eusrstack+0x20008800>
    6aec:	6711                	lui	a4,0x4
    6aee:	cbd8                	sw	a4,20(a5)
    6af0:	0001                	nop
    6af2:	200067b7          	lui	a5,0x20006
    6af6:	5f878793          	addi	a5,a5,1528 # 200065f8 <DAP_Data>
    6afa:	43dc                	lw	a5,4(a5)
    6afc:	f6f42623          	sw	a5,-148(s0)
    6b00:	f6c42783          	lw	a5,-148(s0)
    6b04:	f6f42423          	sw	a5,-152(s0)
    6b08:	0001                	nop
    6b0a:	f6842783          	lw	a5,-152(s0)
    6b0e:	17fd                	addi	a5,a5,-1
    6b10:	f6f42423          	sw	a5,-152(s0)
    6b14:	f6842783          	lw	a5,-152(s0)
    6b18:	fbed                	bnez	a5,6b0a <SWD_TransferSlow+0x1c0>
    6b1a:	0001                	nop
    6b1c:	400117b7          	lui	a5,0x40011
    6b20:	80078793          	addi	a5,a5,-2048 # 40010800 <_eusrstack+0x20008800>
    6b24:	6711                	lui	a4,0x4
    6b26:	cb98                	sw	a4,16(a5)
    6b28:	0001                	nop
    6b2a:	200067b7          	lui	a5,0x20006
    6b2e:	5f878793          	addi	a5,a5,1528 # 200065f8 <DAP_Data>
    6b32:	43dc                	lw	a5,4(a5)
    6b34:	f6f42a23          	sw	a5,-140(s0)
    6b38:	f7442783          	lw	a5,-140(s0)
    6b3c:	f6f42823          	sw	a5,-144(s0)
    6b40:	0001                	nop
    6b42:	f7042783          	lw	a5,-144(s0)
    6b46:	17fd                	addi	a5,a5,-1
    6b48:	f6f42823          	sw	a5,-144(s0)
    6b4c:	f7042783          	lw	a5,-144(s0)
    6b50:	fbed                	bnez	a5,6b42 <SWD_TransferSlow+0x1f8>
    6b52:	0001                	nop
    6b54:	fe442703          	lw	a4,-28(s0)
    6b58:	fdc42783          	lw	a5,-36(s0)
    6b5c:	97ba                	add	a5,a5,a4
    6b5e:	fef42223          	sw	a5,-28(s0)
    6b62:	e2c42783          	lw	a5,-468(s0)
    6b66:	8389                	srli	a5,a5,0x2
    6b68:	fcf42e23          	sw	a5,-36(s0)
    6b6c:	fdc42783          	lw	a5,-36(s0)
    6b70:	f6f42c23          	sw	a5,-136(s0)
    6b74:	f7842783          	lw	a5,-136(s0)
    6b78:	8b85                	andi	a5,a5,1
    6b7a:	cb81                	beqz	a5,6b8a <SWD_TransferSlow+0x240>
    6b7c:	400117b7          	lui	a5,0x40011
    6b80:	80078793          	addi	a5,a5,-2048 # 40010800 <_eusrstack+0x20008800>
    6b84:	6709                	lui	a4,0x2
    6b86:	cb98                	sw	a4,16(a5)
    6b88:	a039                	j	6b96 <SWD_TransferSlow+0x24c>
    6b8a:	400117b7          	lui	a5,0x40011
    6b8e:	80078793          	addi	a5,a5,-2048 # 40010800 <_eusrstack+0x20008800>
    6b92:	6709                	lui	a4,0x2
    6b94:	cbd8                	sw	a4,20(a5)
    6b96:	0001                	nop
    6b98:	400117b7          	lui	a5,0x40011
    6b9c:	80078793          	addi	a5,a5,-2048 # 40010800 <_eusrstack+0x20008800>
    6ba0:	6711                	lui	a4,0x4
    6ba2:	cbd8                	sw	a4,20(a5)
    6ba4:	0001                	nop
    6ba6:	200067b7          	lui	a5,0x20006
    6baa:	5f878793          	addi	a5,a5,1528 # 200065f8 <DAP_Data>
    6bae:	43dc                	lw	a5,4(a5)
    6bb0:	f8f42023          	sw	a5,-128(s0)
    6bb4:	f8042783          	lw	a5,-128(s0)
    6bb8:	f6f42e23          	sw	a5,-132(s0)
    6bbc:	0001                	nop
    6bbe:	f7c42783          	lw	a5,-132(s0)
    6bc2:	17fd                	addi	a5,a5,-1
    6bc4:	f6f42e23          	sw	a5,-132(s0)
    6bc8:	f7c42783          	lw	a5,-132(s0)
    6bcc:	fbed                	bnez	a5,6bbe <SWD_TransferSlow+0x274>
    6bce:	0001                	nop
    6bd0:	400117b7          	lui	a5,0x40011
    6bd4:	80078793          	addi	a5,a5,-2048 # 40010800 <_eusrstack+0x20008800>
    6bd8:	6711                	lui	a4,0x4
    6bda:	cb98                	sw	a4,16(a5)
    6bdc:	0001                	nop
    6bde:	200067b7          	lui	a5,0x20006
    6be2:	5f878793          	addi	a5,a5,1528 # 200065f8 <DAP_Data>
    6be6:	43dc                	lw	a5,4(a5)
    6be8:	f8f42423          	sw	a5,-120(s0)
    6bec:	f8842783          	lw	a5,-120(s0)
    6bf0:	f8f42223          	sw	a5,-124(s0)
    6bf4:	0001                	nop
    6bf6:	f8442783          	lw	a5,-124(s0)
    6bfa:	17fd                	addi	a5,a5,-1
    6bfc:	f8f42223          	sw	a5,-124(s0)
    6c00:	f8442783          	lw	a5,-124(s0)
    6c04:	fbed                	bnez	a5,6bf6 <SWD_TransferSlow+0x2ac>
    6c06:	0001                	nop
    6c08:	fe442703          	lw	a4,-28(s0)
    6c0c:	fdc42783          	lw	a5,-36(s0)
    6c10:	97ba                	add	a5,a5,a4
    6c12:	fef42223          	sw	a5,-28(s0)
    6c16:	e2c42783          	lw	a5,-468(s0)
    6c1a:	838d                	srli	a5,a5,0x3
    6c1c:	fcf42e23          	sw	a5,-36(s0)
    6c20:	fdc42783          	lw	a5,-36(s0)
    6c24:	f8f42623          	sw	a5,-116(s0)
    6c28:	f8c42783          	lw	a5,-116(s0)
    6c2c:	8b85                	andi	a5,a5,1
    6c2e:	cb81                	beqz	a5,6c3e <SWD_TransferSlow+0x2f4>
    6c30:	400117b7          	lui	a5,0x40011
    6c34:	80078793          	addi	a5,a5,-2048 # 40010800 <_eusrstack+0x20008800>
    6c38:	6709                	lui	a4,0x2
    6c3a:	cb98                	sw	a4,16(a5)
    6c3c:	a039                	j	6c4a <SWD_TransferSlow+0x300>
    6c3e:	400117b7          	lui	a5,0x40011
    6c42:	80078793          	addi	a5,a5,-2048 # 40010800 <_eusrstack+0x20008800>
    6c46:	6709                	lui	a4,0x2
    6c48:	cbd8                	sw	a4,20(a5)
    6c4a:	0001                	nop
    6c4c:	400117b7          	lui	a5,0x40011
    6c50:	80078793          	addi	a5,a5,-2048 # 40010800 <_eusrstack+0x20008800>
    6c54:	6711                	lui	a4,0x4
    6c56:	cbd8                	sw	a4,20(a5)
    6c58:	0001                	nop
    6c5a:	200067b7          	lui	a5,0x20006
    6c5e:	5f878793          	addi	a5,a5,1528 # 200065f8 <DAP_Data>
    6c62:	43dc                	lw	a5,4(a5)
    6c64:	f8f42a23          	sw	a5,-108(s0)
    6c68:	f9442783          	lw	a5,-108(s0)
    6c6c:	f8f42823          	sw	a5,-112(s0)
    6c70:	0001                	nop
    6c72:	f9042783          	lw	a5,-112(s0)
    6c76:	17fd                	addi	a5,a5,-1
    6c78:	f8f42823          	sw	a5,-112(s0)
    6c7c:	f9042783          	lw	a5,-112(s0)
    6c80:	fbed                	bnez	a5,6c72 <SWD_TransferSlow+0x328>
    6c82:	0001                	nop
    6c84:	400117b7          	lui	a5,0x40011
    6c88:	80078793          	addi	a5,a5,-2048 # 40010800 <_eusrstack+0x20008800>
    6c8c:	6711                	lui	a4,0x4
    6c8e:	cb98                	sw	a4,16(a5)
    6c90:	0001                	nop
    6c92:	200067b7          	lui	a5,0x20006
    6c96:	5f878793          	addi	a5,a5,1528 # 200065f8 <DAP_Data>
    6c9a:	43dc                	lw	a5,4(a5)
    6c9c:	f8f42e23          	sw	a5,-100(s0)
    6ca0:	f9c42783          	lw	a5,-100(s0)
    6ca4:	f8f42c23          	sw	a5,-104(s0)
    6ca8:	0001                	nop
    6caa:	f9842783          	lw	a5,-104(s0)
    6cae:	17fd                	addi	a5,a5,-1
    6cb0:	f8f42c23          	sw	a5,-104(s0)
    6cb4:	f9842783          	lw	a5,-104(s0)
    6cb8:	fbed                	bnez	a5,6caa <SWD_TransferSlow+0x360>
    6cba:	0001                	nop
    6cbc:	fe442703          	lw	a4,-28(s0)
    6cc0:	fdc42783          	lw	a5,-36(s0)
    6cc4:	97ba                	add	a5,a5,a4
    6cc6:	fef42223          	sw	a5,-28(s0)
    6cca:	fe442783          	lw	a5,-28(s0)
    6cce:	faf42023          	sw	a5,-96(s0)
    6cd2:	fa042783          	lw	a5,-96(s0)
    6cd6:	8b85                	andi	a5,a5,1
    6cd8:	cb81                	beqz	a5,6ce8 <SWD_TransferSlow+0x39e>
    6cda:	400117b7          	lui	a5,0x40011
    6cde:	80078793          	addi	a5,a5,-2048 # 40010800 <_eusrstack+0x20008800>
    6ce2:	6709                	lui	a4,0x2
    6ce4:	cb98                	sw	a4,16(a5)
    6ce6:	a039                	j	6cf4 <SWD_TransferSlow+0x3aa>
    6ce8:	400117b7          	lui	a5,0x40011
    6cec:	80078793          	addi	a5,a5,-2048 # 40010800 <_eusrstack+0x20008800>
    6cf0:	6709                	lui	a4,0x2
    6cf2:	cbd8                	sw	a4,20(a5)
    6cf4:	0001                	nop
    6cf6:	400117b7          	lui	a5,0x40011
    6cfa:	80078793          	addi	a5,a5,-2048 # 40010800 <_eusrstack+0x20008800>
    6cfe:	6711                	lui	a4,0x4
    6d00:	cbd8                	sw	a4,20(a5)
    6d02:	0001                	nop
    6d04:	200067b7          	lui	a5,0x20006
    6d08:	5f878793          	addi	a5,a5,1528 # 200065f8 <DAP_Data>
    6d0c:	43dc                	lw	a5,4(a5)
    6d0e:	faf42423          	sw	a5,-88(s0)
    6d12:	fa842783          	lw	a5,-88(s0)
    6d16:	faf42223          	sw	a5,-92(s0)
    6d1a:	0001                	nop
    6d1c:	fa442783          	lw	a5,-92(s0)
    6d20:	17fd                	addi	a5,a5,-1
    6d22:	faf42223          	sw	a5,-92(s0)
    6d26:	fa442783          	lw	a5,-92(s0)
    6d2a:	fbed                	bnez	a5,6d1c <SWD_TransferSlow+0x3d2>
    6d2c:	0001                	nop
    6d2e:	400117b7          	lui	a5,0x40011
    6d32:	80078793          	addi	a5,a5,-2048 # 40010800 <_eusrstack+0x20008800>
    6d36:	6711                	lui	a4,0x4
    6d38:	cb98                	sw	a4,16(a5)
    6d3a:	0001                	nop
    6d3c:	200067b7          	lui	a5,0x20006
    6d40:	5f878793          	addi	a5,a5,1528 # 200065f8 <DAP_Data>
    6d44:	43dc                	lw	a5,4(a5)
    6d46:	faf42823          	sw	a5,-80(s0)
    6d4a:	fb042783          	lw	a5,-80(s0)
    6d4e:	faf42623          	sw	a5,-84(s0)
    6d52:	0001                	nop
    6d54:	fac42783          	lw	a5,-84(s0)
    6d58:	17fd                	addi	a5,a5,-1
    6d5a:	faf42623          	sw	a5,-84(s0)
    6d5e:	fac42783          	lw	a5,-84(s0)
    6d62:	fbed                	bnez	a5,6d54 <SWD_TransferSlow+0x40a>
    6d64:	0001                	nop
    6d66:	fa042a23          	sw	zero,-76(s0)
    6d6a:	fb442783          	lw	a5,-76(s0)
    6d6e:	8b85                	andi	a5,a5,1
    6d70:	cb81                	beqz	a5,6d80 <SWD_TransferSlow+0x436>
    6d72:	400117b7          	lui	a5,0x40011
    6d76:	80078793          	addi	a5,a5,-2048 # 40010800 <_eusrstack+0x20008800>
    6d7a:	6709                	lui	a4,0x2
    6d7c:	cb98                	sw	a4,16(a5)
    6d7e:	a039                	j	6d8c <SWD_TransferSlow+0x442>
    6d80:	400117b7          	lui	a5,0x40011
    6d84:	80078793          	addi	a5,a5,-2048 # 40010800 <_eusrstack+0x20008800>
    6d88:	6709                	lui	a4,0x2
    6d8a:	cbd8                	sw	a4,20(a5)
    6d8c:	0001                	nop
    6d8e:	400117b7          	lui	a5,0x40011
    6d92:	80078793          	addi	a5,a5,-2048 # 40010800 <_eusrstack+0x20008800>
    6d96:	6711                	lui	a4,0x4
    6d98:	cbd8                	sw	a4,20(a5)
    6d9a:	0001                	nop
    6d9c:	200067b7          	lui	a5,0x20006
    6da0:	5f878793          	addi	a5,a5,1528 # 200065f8 <DAP_Data>
    6da4:	43dc                	lw	a5,4(a5)
    6da6:	faf42e23          	sw	a5,-68(s0)
    6daa:	fbc42783          	lw	a5,-68(s0)
    6dae:	faf42c23          	sw	a5,-72(s0)
    6db2:	0001                	nop
    6db4:	fb842783          	lw	a5,-72(s0)
    6db8:	17fd                	addi	a5,a5,-1
    6dba:	faf42c23          	sw	a5,-72(s0)
    6dbe:	fb842783          	lw	a5,-72(s0)
    6dc2:	fbed                	bnez	a5,6db4 <SWD_TransferSlow+0x46a>
    6dc4:	0001                	nop
    6dc6:	400117b7          	lui	a5,0x40011
    6dca:	80078793          	addi	a5,a5,-2048 # 40010800 <_eusrstack+0x20008800>
    6dce:	6711                	lui	a4,0x4
    6dd0:	cb98                	sw	a4,16(a5)
    6dd2:	0001                	nop
    6dd4:	200067b7          	lui	a5,0x20006
    6dd8:	5f878793          	addi	a5,a5,1528 # 200065f8 <DAP_Data>
    6ddc:	43dc                	lw	a5,4(a5)
    6dde:	fcf42223          	sw	a5,-60(s0)
    6de2:	fc442783          	lw	a5,-60(s0)
    6de6:	fcf42023          	sw	a5,-64(s0)
    6dea:	0001                	nop
    6dec:	fc042783          	lw	a5,-64(s0)
    6df0:	17fd                	addi	a5,a5,-1
    6df2:	fcf42023          	sw	a5,-64(s0)
    6df6:	fc042783          	lw	a5,-64(s0)
    6dfa:	fbed                	bnez	a5,6dec <SWD_TransferSlow+0x4a2>
    6dfc:	0001                	nop
    6dfe:	4785                	li	a5,1
    6e00:	fcf42423          	sw	a5,-56(s0)
    6e04:	fc842783          	lw	a5,-56(s0)
    6e08:	8b85                	andi	a5,a5,1
    6e0a:	cb81                	beqz	a5,6e1a <SWD_TransferSlow+0x4d0>
    6e0c:	400117b7          	lui	a5,0x40011
    6e10:	80078793          	addi	a5,a5,-2048 # 40010800 <_eusrstack+0x20008800>
    6e14:	6709                	lui	a4,0x2
    6e16:	cb98                	sw	a4,16(a5)
    6e18:	a039                	j	6e26 <SWD_TransferSlow+0x4dc>
    6e1a:	400117b7          	lui	a5,0x40011
    6e1e:	80078793          	addi	a5,a5,-2048 # 40010800 <_eusrstack+0x20008800>
    6e22:	6709                	lui	a4,0x2
    6e24:	cbd8                	sw	a4,20(a5)
    6e26:	0001                	nop
    6e28:	400117b7          	lui	a5,0x40011
    6e2c:	80078793          	addi	a5,a5,-2048 # 40010800 <_eusrstack+0x20008800>
    6e30:	6711                	lui	a4,0x4
    6e32:	cbd8                	sw	a4,20(a5)
    6e34:	0001                	nop
    6e36:	200067b7          	lui	a5,0x20006
    6e3a:	5f878793          	addi	a5,a5,1528 # 200065f8 <DAP_Data>
    6e3e:	43dc                	lw	a5,4(a5)
    6e40:	fcf42823          	sw	a5,-48(s0)
    6e44:	fd042783          	lw	a5,-48(s0)
    6e48:	fcf42623          	sw	a5,-52(s0)
    6e4c:	0001                	nop
    6e4e:	fcc42783          	lw	a5,-52(s0)
    6e52:	17fd                	addi	a5,a5,-1
    6e54:	fcf42623          	sw	a5,-52(s0)
    6e58:	fcc42783          	lw	a5,-52(s0)
    6e5c:	fbed                	bnez	a5,6e4e <SWD_TransferSlow+0x504>
    6e5e:	0001                	nop
    6e60:	400117b7          	lui	a5,0x40011
    6e64:	80078793          	addi	a5,a5,-2048 # 40010800 <_eusrstack+0x20008800>
    6e68:	6711                	lui	a4,0x4
    6e6a:	cb98                	sw	a4,16(a5)
    6e6c:	0001                	nop
    6e6e:	200067b7          	lui	a5,0x20006
    6e72:	5f878793          	addi	a5,a5,1528 # 200065f8 <DAP_Data>
    6e76:	43dc                	lw	a5,4(a5)
    6e78:	fcf42c23          	sw	a5,-40(s0)
    6e7c:	fd842783          	lw	a5,-40(s0)
    6e80:	fcf42a23          	sw	a5,-44(s0)
    6e84:	0001                	nop
    6e86:	fd442783          	lw	a5,-44(s0)
    6e8a:	17fd                	addi	a5,a5,-1
    6e8c:	fcf42a23          	sw	a5,-44(s0)
    6e90:	fd442783          	lw	a5,-44(s0)
    6e94:	fbed                	bnez	a5,6e86 <SWD_TransferSlow+0x53c>
    6e96:	0001                	nop
    6e98:	400117b7          	lui	a5,0x40011
    6e9c:	80078793          	addi	a5,a5,-2048 # 40010800 <_eusrstack+0x20008800>
    6ea0:	43d4                	lw	a3,4(a5)
    6ea2:	400117b7          	lui	a5,0x40011
    6ea6:	80078793          	addi	a5,a5,-2048 # 40010800 <_eusrstack+0x20008800>
    6eaa:	ff000737          	lui	a4,0xff000
    6eae:	8f75                	and	a4,a4,a3
    6eb0:	c3d8                	sw	a4,4(a5)
    6eb2:	400117b7          	lui	a5,0x40011
    6eb6:	80078793          	addi	a5,a5,-2048 # 40010800 <_eusrstack+0x20008800>
    6eba:	43d4                	lw	a3,4(a5)
    6ebc:	400117b7          	lui	a5,0x40011
    6ec0:	80078793          	addi	a5,a5,-2048 # 40010800 <_eusrstack+0x20008800>
    6ec4:	00400737          	lui	a4,0x400
    6ec8:	8f55                	or	a4,a4,a3
    6eca:	c3d8                	sw	a4,4(a5)
    6ecc:	0001                	nop
    6ece:	200067b7          	lui	a5,0x20006
    6ed2:	5f878793          	addi	a5,a5,1528 # 200065f8 <DAP_Data>
    6ed6:	2f9c                	.2byte	0x2f9c
    6ed8:	fef42023          	sw	a5,-32(s0)
    6edc:	a8b5                	j	6f58 <SWD_TransferSlow+0x60e>
    6ede:	400117b7          	lui	a5,0x40011
    6ee2:	80078793          	addi	a5,a5,-2048 # 40010800 <_eusrstack+0x20008800>
    6ee6:	6711                	lui	a4,0x4
    6ee8:	cbd8                	sw	a4,20(a5)
    6eea:	0001                	nop
    6eec:	200067b7          	lui	a5,0x20006
    6ef0:	5f878793          	addi	a5,a5,1528 # 200065f8 <DAP_Data>
    6ef4:	43dc                	lw	a5,4(a5)
    6ef6:	f2f42823          	sw	a5,-208(s0)
    6efa:	f3042783          	lw	a5,-208(s0)
    6efe:	f2f42623          	sw	a5,-212(s0)
    6f02:	0001                	nop
    6f04:	f2c42783          	lw	a5,-212(s0)
    6f08:	17fd                	addi	a5,a5,-1
    6f0a:	f2f42623          	sw	a5,-212(s0)
    6f0e:	f2c42783          	lw	a5,-212(s0)
    6f12:	fbed                	bnez	a5,6f04 <SWD_TransferSlow+0x5ba>
    6f14:	0001                	nop
    6f16:	400117b7          	lui	a5,0x40011
    6f1a:	80078793          	addi	a5,a5,-2048 # 40010800 <_eusrstack+0x20008800>
    6f1e:	6711                	lui	a4,0x4
    6f20:	cb98                	sw	a4,16(a5)
    6f22:	0001                	nop
    6f24:	200067b7          	lui	a5,0x20006
    6f28:	5f878793          	addi	a5,a5,1528 # 200065f8 <DAP_Data>
    6f2c:	43dc                	lw	a5,4(a5)
    6f2e:	f2f42c23          	sw	a5,-200(s0)
    6f32:	f3842783          	lw	a5,-200(s0)
    6f36:	f2f42a23          	sw	a5,-204(s0)
    6f3a:	0001                	nop
    6f3c:	f3442783          	lw	a5,-204(s0)
    6f40:	17fd                	addi	a5,a5,-1
    6f42:	f2f42a23          	sw	a5,-204(s0)
    6f46:	f3442783          	lw	a5,-204(s0)
    6f4a:	fbed                	bnez	a5,6f3c <SWD_TransferSlow+0x5f2>
    6f4c:	0001                	nop
    6f4e:	fe042783          	lw	a5,-32(s0)
    6f52:	17fd                	addi	a5,a5,-1
    6f54:	fef42023          	sw	a5,-32(s0)
    6f58:	fe042783          	lw	a5,-32(s0)
    6f5c:	f3c9                	bnez	a5,6ede <SWD_TransferSlow+0x594>
    6f5e:	400117b7          	lui	a5,0x40011
    6f62:	80078793          	addi	a5,a5,-2048 # 40010800 <_eusrstack+0x20008800>
    6f66:	6711                	lui	a4,0x4
    6f68:	cbd8                	sw	a4,20(a5)
    6f6a:	0001                	nop
    6f6c:	200067b7          	lui	a5,0x20006
    6f70:	5f878793          	addi	a5,a5,1528 # 200065f8 <DAP_Data>
    6f74:	43dc                	lw	a5,4(a5)
    6f76:	f0f42023          	sw	a5,-256(s0)
    6f7a:	f0042783          	lw	a5,-256(s0)
    6f7e:	eef42e23          	sw	a5,-260(s0)
    6f82:	0001                	nop
    6f84:	efc42783          	lw	a5,-260(s0)
    6f88:	17fd                	addi	a5,a5,-1
    6f8a:	eef42e23          	sw	a5,-260(s0)
    6f8e:	efc42783          	lw	a5,-260(s0)
    6f92:	fbed                	bnez	a5,6f84 <SWD_TransferSlow+0x63a>
    6f94:	0001                	nop
    6f96:	400117b7          	lui	a5,0x40011
    6f9a:	80078793          	addi	a5,a5,-2048 # 40010800 <_eusrstack+0x20008800>
    6f9e:	4798                	lw	a4,8(a5)
    6fa0:	6789                	lui	a5,0x2
    6fa2:	8ff9                	and	a5,a5,a4
    6fa4:	00f037b3          	snez	a5,a5
    6fa8:	0ff7f793          	zext.b	a5,a5
    6fac:	fcf42e23          	sw	a5,-36(s0)
    6fb0:	400117b7          	lui	a5,0x40011
    6fb4:	80078793          	addi	a5,a5,-2048 # 40010800 <_eusrstack+0x20008800>
    6fb8:	6711                	lui	a4,0x4
    6fba:	cb98                	sw	a4,16(a5)
    6fbc:	0001                	nop
    6fbe:	200067b7          	lui	a5,0x20006
    6fc2:	5f878793          	addi	a5,a5,1528 # 200065f8 <DAP_Data>
    6fc6:	43dc                	lw	a5,4(a5)
    6fc8:	f0f42423          	sw	a5,-248(s0)
    6fcc:	f0842783          	lw	a5,-248(s0)
    6fd0:	f0f42223          	sw	a5,-252(s0)
    6fd4:	0001                	nop
    6fd6:	f0442783          	lw	a5,-252(s0)
    6fda:	17fd                	addi	a5,a5,-1
    6fdc:	f0f42223          	sw	a5,-252(s0)
    6fe0:	f0442783          	lw	a5,-252(s0)
    6fe4:	fbed                	bnez	a5,6fd6 <SWD_TransferSlow+0x68c>
    6fe6:	0001                	nop
    6fe8:	fdc42783          	lw	a5,-36(s0)
    6fec:	fef42623          	sw	a5,-20(s0)
    6ff0:	400117b7          	lui	a5,0x40011
    6ff4:	80078793          	addi	a5,a5,-2048 # 40010800 <_eusrstack+0x20008800>
    6ff8:	6711                	lui	a4,0x4
    6ffa:	cbd8                	sw	a4,20(a5)
    6ffc:	0001                	nop
    6ffe:	200067b7          	lui	a5,0x20006
    7002:	5f878793          	addi	a5,a5,1528 # 200065f8 <DAP_Data>
    7006:	43dc                	lw	a5,4(a5)
    7008:	f0f42823          	sw	a5,-240(s0)
    700c:	f1042783          	lw	a5,-240(s0)
    7010:	f0f42623          	sw	a5,-244(s0)
    7014:	0001                	nop
    7016:	f0c42783          	lw	a5,-244(s0)
    701a:	17fd                	addi	a5,a5,-1
    701c:	f0f42623          	sw	a5,-244(s0)
    7020:	f0c42783          	lw	a5,-244(s0)
    7024:	fbed                	bnez	a5,7016 <SWD_TransferSlow+0x6cc>
    7026:	0001                	nop
    7028:	400117b7          	lui	a5,0x40011
    702c:	80078793          	addi	a5,a5,-2048 # 40010800 <_eusrstack+0x20008800>
    7030:	4798                	lw	a4,8(a5)
    7032:	6789                	lui	a5,0x2
    7034:	8ff9                	and	a5,a5,a4
    7036:	00f037b3          	snez	a5,a5
    703a:	0ff7f793          	zext.b	a5,a5
    703e:	fcf42e23          	sw	a5,-36(s0)
    7042:	400117b7          	lui	a5,0x40011
    7046:	80078793          	addi	a5,a5,-2048 # 40010800 <_eusrstack+0x20008800>
    704a:	6711                	lui	a4,0x4
    704c:	cb98                	sw	a4,16(a5)
    704e:	0001                	nop
    7050:	200067b7          	lui	a5,0x20006
    7054:	5f878793          	addi	a5,a5,1528 # 200065f8 <DAP_Data>
    7058:	43dc                	lw	a5,4(a5)
    705a:	f0f42c23          	sw	a5,-232(s0)
    705e:	f1842783          	lw	a5,-232(s0)
    7062:	f0f42a23          	sw	a5,-236(s0)
    7066:	0001                	nop
    7068:	f1442783          	lw	a5,-236(s0)
    706c:	17fd                	addi	a5,a5,-1
    706e:	f0f42a23          	sw	a5,-236(s0)
    7072:	f1442783          	lw	a5,-236(s0)
    7076:	fbed                	bnez	a5,7068 <SWD_TransferSlow+0x71e>
    7078:	0001                	nop
    707a:	fdc42783          	lw	a5,-36(s0)
    707e:	0786                	slli	a5,a5,0x1
    7080:	fec42703          	lw	a4,-20(s0)
    7084:	8fd9                	or	a5,a5,a4
    7086:	fef42623          	sw	a5,-20(s0)
    708a:	400117b7          	lui	a5,0x40011
    708e:	80078793          	addi	a5,a5,-2048 # 40010800 <_eusrstack+0x20008800>
    7092:	6711                	lui	a4,0x4
    7094:	cbd8                	sw	a4,20(a5)
    7096:	0001                	nop
    7098:	200067b7          	lui	a5,0x20006
    709c:	5f878793          	addi	a5,a5,1528 # 200065f8 <DAP_Data>
    70a0:	43dc                	lw	a5,4(a5)
    70a2:	f2f42023          	sw	a5,-224(s0)
    70a6:	f2042783          	lw	a5,-224(s0)
    70aa:	f0f42e23          	sw	a5,-228(s0)
    70ae:	0001                	nop
    70b0:	f1c42783          	lw	a5,-228(s0)
    70b4:	17fd                	addi	a5,a5,-1
    70b6:	f0f42e23          	sw	a5,-228(s0)
    70ba:	f1c42783          	lw	a5,-228(s0)
    70be:	fbed                	bnez	a5,70b0 <SWD_TransferSlow+0x766>
    70c0:	0001                	nop
    70c2:	400117b7          	lui	a5,0x40011
    70c6:	80078793          	addi	a5,a5,-2048 # 40010800 <_eusrstack+0x20008800>
    70ca:	4798                	lw	a4,8(a5)
    70cc:	6789                	lui	a5,0x2
    70ce:	8ff9                	and	a5,a5,a4
    70d0:	00f037b3          	snez	a5,a5
    70d4:	0ff7f793          	zext.b	a5,a5
    70d8:	fcf42e23          	sw	a5,-36(s0)
    70dc:	400117b7          	lui	a5,0x40011
    70e0:	80078793          	addi	a5,a5,-2048 # 40010800 <_eusrstack+0x20008800>
    70e4:	6711                	lui	a4,0x4
    70e6:	cb98                	sw	a4,16(a5)
    70e8:	0001                	nop
    70ea:	200067b7          	lui	a5,0x20006
    70ee:	5f878793          	addi	a5,a5,1528 # 200065f8 <DAP_Data>
    70f2:	43dc                	lw	a5,4(a5)
    70f4:	f2f42423          	sw	a5,-216(s0)
    70f8:	f2842783          	lw	a5,-216(s0)
    70fc:	f2f42223          	sw	a5,-220(s0)
    7100:	0001                	nop
    7102:	f2442783          	lw	a5,-220(s0)
    7106:	17fd                	addi	a5,a5,-1
    7108:	f2f42223          	sw	a5,-220(s0)
    710c:	f2442783          	lw	a5,-220(s0)
    7110:	fbed                	bnez	a5,7102 <SWD_TransferSlow+0x7b8>
    7112:	0001                	nop
    7114:	fdc42783          	lw	a5,-36(s0)
    7118:	078a                	slli	a5,a5,0x2
    711a:	fec42703          	lw	a4,-20(s0)
    711e:	8fd9                	or	a5,a5,a4
    7120:	fef42623          	sw	a5,-20(s0)
    7124:	fec42703          	lw	a4,-20(s0)
    7128:	4785                	li	a5,1
    712a:	5af71063          	bne	a4,a5,76ca <SWD_TransferSlow+0xd80>
    712e:	e2c42783          	lw	a5,-468(s0)
    7132:	8b89                	andi	a5,a5,2
    7134:	24078663          	beqz	a5,7380 <SWD_TransferSlow+0xa36>
    7138:	fe042423          	sw	zero,-24(s0)
    713c:	fe042223          	sw	zero,-28(s0)
    7140:	02000793          	li	a5,32
    7144:	fef42023          	sw	a5,-32(s0)
    7148:	a87d                	j	7206 <SWD_TransferSlow+0x8bc>
    714a:	400117b7          	lui	a5,0x40011
    714e:	80078793          	addi	a5,a5,-2048 # 40010800 <_eusrstack+0x20008800>
    7152:	6711                	lui	a4,0x4
    7154:	cbd8                	sw	a4,20(a5)
    7156:	0001                	nop
    7158:	200067b7          	lui	a5,0x20006
    715c:	5f878793          	addi	a5,a5,1528 # 200065f8 <DAP_Data>
    7160:	43dc                	lw	a5,4(a5)
    7162:	eef42823          	sw	a5,-272(s0)
    7166:	ef042783          	lw	a5,-272(s0)
    716a:	eef42623          	sw	a5,-276(s0)
    716e:	0001                	nop
    7170:	eec42783          	lw	a5,-276(s0)
    7174:	17fd                	addi	a5,a5,-1
    7176:	eef42623          	sw	a5,-276(s0)
    717a:	eec42783          	lw	a5,-276(s0)
    717e:	fbed                	bnez	a5,7170 <SWD_TransferSlow+0x826>
    7180:	0001                	nop
    7182:	400117b7          	lui	a5,0x40011
    7186:	80078793          	addi	a5,a5,-2048 # 40010800 <_eusrstack+0x20008800>
    718a:	4798                	lw	a4,8(a5)
    718c:	6789                	lui	a5,0x2
    718e:	8ff9                	and	a5,a5,a4
    7190:	00f037b3          	snez	a5,a5
    7194:	0ff7f793          	zext.b	a5,a5
    7198:	fcf42e23          	sw	a5,-36(s0)
    719c:	400117b7          	lui	a5,0x40011
    71a0:	80078793          	addi	a5,a5,-2048 # 40010800 <_eusrstack+0x20008800>
    71a4:	6711                	lui	a4,0x4
    71a6:	cb98                	sw	a4,16(a5)
    71a8:	0001                	nop
    71aa:	200067b7          	lui	a5,0x20006
    71ae:	5f878793          	addi	a5,a5,1528 # 200065f8 <DAP_Data>
    71b2:	43dc                	lw	a5,4(a5)
    71b4:	eef42c23          	sw	a5,-264(s0)
    71b8:	ef842783          	lw	a5,-264(s0)
    71bc:	eef42a23          	sw	a5,-268(s0)
    71c0:	0001                	nop
    71c2:	ef442783          	lw	a5,-268(s0)
    71c6:	17fd                	addi	a5,a5,-1
    71c8:	eef42a23          	sw	a5,-268(s0)
    71cc:	ef442783          	lw	a5,-268(s0)
    71d0:	fbed                	bnez	a5,71c2 <SWD_TransferSlow+0x878>
    71d2:	0001                	nop
    71d4:	fe442703          	lw	a4,-28(s0)
    71d8:	fdc42783          	lw	a5,-36(s0)
    71dc:	97ba                	add	a5,a5,a4
    71de:	fef42223          	sw	a5,-28(s0)
    71e2:	fe842783          	lw	a5,-24(s0)
    71e6:	8385                	srli	a5,a5,0x1
    71e8:	fef42423          	sw	a5,-24(s0)
    71ec:	fdc42783          	lw	a5,-36(s0)
    71f0:	07fe                	slli	a5,a5,0x1f
    71f2:	fe842703          	lw	a4,-24(s0)
    71f6:	8fd9                	or	a5,a5,a4
    71f8:	fef42423          	sw	a5,-24(s0)
    71fc:	fe042783          	lw	a5,-32(s0)
    7200:	17fd                	addi	a5,a5,-1
    7202:	fef42023          	sw	a5,-32(s0)
    7206:	fe042783          	lw	a5,-32(s0)
    720a:	f3a1                	bnez	a5,714a <SWD_TransferSlow+0x800>
    720c:	400117b7          	lui	a5,0x40011
    7210:	80078793          	addi	a5,a5,-2048 # 40010800 <_eusrstack+0x20008800>
    7214:	6711                	lui	a4,0x4
    7216:	cbd8                	sw	a4,20(a5)
    7218:	0001                	nop
    721a:	200067b7          	lui	a5,0x20006
    721e:	5f878793          	addi	a5,a5,1528 # 200065f8 <DAP_Data>
    7222:	43dc                	lw	a5,4(a5)
    7224:	eef42023          	sw	a5,-288(s0)
    7228:	ee042783          	lw	a5,-288(s0)
    722c:	ecf42e23          	sw	a5,-292(s0)
    7230:	0001                	nop
    7232:	edc42783          	lw	a5,-292(s0)
    7236:	17fd                	addi	a5,a5,-1
    7238:	ecf42e23          	sw	a5,-292(s0)
    723c:	edc42783          	lw	a5,-292(s0)
    7240:	fbed                	bnez	a5,7232 <SWD_TransferSlow+0x8e8>
    7242:	0001                	nop
    7244:	400117b7          	lui	a5,0x40011
    7248:	80078793          	addi	a5,a5,-2048 # 40010800 <_eusrstack+0x20008800>
    724c:	4798                	lw	a4,8(a5)
    724e:	6789                	lui	a5,0x2
    7250:	8ff9                	and	a5,a5,a4
    7252:	00f037b3          	snez	a5,a5
    7256:	0ff7f793          	zext.b	a5,a5
    725a:	fcf42e23          	sw	a5,-36(s0)
    725e:	400117b7          	lui	a5,0x40011
    7262:	80078793          	addi	a5,a5,-2048 # 40010800 <_eusrstack+0x20008800>
    7266:	6711                	lui	a4,0x4
    7268:	cb98                	sw	a4,16(a5)
    726a:	0001                	nop
    726c:	200067b7          	lui	a5,0x20006
    7270:	5f878793          	addi	a5,a5,1528 # 200065f8 <DAP_Data>
    7274:	43dc                	lw	a5,4(a5)
    7276:	eef42423          	sw	a5,-280(s0)
    727a:	ee842783          	lw	a5,-280(s0)
    727e:	eef42223          	sw	a5,-284(s0)
    7282:	0001                	nop
    7284:	ee442783          	lw	a5,-284(s0)
    7288:	17fd                	addi	a5,a5,-1
    728a:	eef42223          	sw	a5,-284(s0)
    728e:	ee442783          	lw	a5,-284(s0)
    7292:	fbed                	bnez	a5,7284 <SWD_TransferSlow+0x93a>
    7294:	0001                	nop
    7296:	fe442703          	lw	a4,-28(s0)
    729a:	fdc42783          	lw	a5,-36(s0)
    729e:	8fb9                	xor	a5,a5,a4
    72a0:	8b85                	andi	a5,a5,1
    72a2:	c781                	beqz	a5,72aa <SWD_TransferSlow+0x960>
    72a4:	47a1                	li	a5,8
    72a6:	fef42623          	sw	a5,-20(s0)
    72aa:	e2842783          	lw	a5,-472(s0)
    72ae:	c791                	beqz	a5,72ba <SWD_TransferSlow+0x970>
    72b0:	e2842783          	lw	a5,-472(s0)
    72b4:	fe842703          	lw	a4,-24(s0)
    72b8:	c398                	sw	a4,0(a5)
    72ba:	200067b7          	lui	a5,0x20006
    72be:	5f878793          	addi	a5,a5,1528 # 200065f8 <DAP_Data>
    72c2:	2f9c                	.2byte	0x2f9c
    72c4:	fef42023          	sw	a5,-32(s0)
    72c8:	a8b5                	j	7344 <SWD_TransferSlow+0x9fa>
    72ca:	400117b7          	lui	a5,0x40011
    72ce:	80078793          	addi	a5,a5,-2048 # 40010800 <_eusrstack+0x20008800>
    72d2:	6711                	lui	a4,0x4
    72d4:	cbd8                	sw	a4,20(a5)
    72d6:	0001                	nop
    72d8:	200067b7          	lui	a5,0x20006
    72dc:	5f878793          	addi	a5,a5,1528 # 200065f8 <DAP_Data>
    72e0:	43dc                	lw	a5,4(a5)
    72e2:	ecf42823          	sw	a5,-304(s0)
    72e6:	ed042783          	lw	a5,-304(s0)
    72ea:	ecf42623          	sw	a5,-308(s0)
    72ee:	0001                	nop
    72f0:	ecc42783          	lw	a5,-308(s0)
    72f4:	17fd                	addi	a5,a5,-1
    72f6:	ecf42623          	sw	a5,-308(s0)
    72fa:	ecc42783          	lw	a5,-308(s0)
    72fe:	fbed                	bnez	a5,72f0 <SWD_TransferSlow+0x9a6>
    7300:	0001                	nop
    7302:	400117b7          	lui	a5,0x40011
    7306:	80078793          	addi	a5,a5,-2048 # 40010800 <_eusrstack+0x20008800>
    730a:	6711                	lui	a4,0x4
    730c:	cb98                	sw	a4,16(a5)
    730e:	0001                	nop
    7310:	200067b7          	lui	a5,0x20006
    7314:	5f878793          	addi	a5,a5,1528 # 200065f8 <DAP_Data>
    7318:	43dc                	lw	a5,4(a5)
    731a:	ecf42c23          	sw	a5,-296(s0)
    731e:	ed842783          	lw	a5,-296(s0)
    7322:	ecf42a23          	sw	a5,-300(s0)
    7326:	0001                	nop
    7328:	ed442783          	lw	a5,-300(s0)
    732c:	17fd                	addi	a5,a5,-1
    732e:	ecf42a23          	sw	a5,-300(s0)
    7332:	ed442783          	lw	a5,-300(s0)
    7336:	fbed                	bnez	a5,7328 <SWD_TransferSlow+0x9de>
    7338:	0001                	nop
    733a:	fe042783          	lw	a5,-32(s0)
    733e:	17fd                	addi	a5,a5,-1
    7340:	fef42023          	sw	a5,-32(s0)
    7344:	fe042783          	lw	a5,-32(s0)
    7348:	f3c9                	bnez	a5,72ca <SWD_TransferSlow+0x980>
    734a:	400117b7          	lui	a5,0x40011
    734e:	80078793          	addi	a5,a5,-2048 # 40010800 <_eusrstack+0x20008800>
    7352:	43d4                	lw	a3,4(a5)
    7354:	400117b7          	lui	a5,0x40011
    7358:	80078793          	addi	a5,a5,-2048 # 40010800 <_eusrstack+0x20008800>
    735c:	ff000737          	lui	a4,0xff000
    7360:	8f75                	and	a4,a4,a3
    7362:	c3d8                	sw	a4,4(a5)
    7364:	400117b7          	lui	a5,0x40011
    7368:	80078793          	addi	a5,a5,-2048 # 40010800 <_eusrstack+0x20008800>
    736c:	43d4                	lw	a3,4(a5)
    736e:	400117b7          	lui	a5,0x40011
    7372:	80078793          	addi	a5,a5,-2048 # 40010800 <_eusrstack+0x20008800>
    7376:	01300737          	lui	a4,0x1300
    737a:	8f55                	or	a4,a4,a3
    737c:	c3d8                	sw	a4,4(a5)
    737e:	a481                	j	75be <SWD_TransferSlow+0xc74>
    7380:	200067b7          	lui	a5,0x20006
    7384:	5f878793          	addi	a5,a5,1528 # 200065f8 <DAP_Data>
    7388:	2f9c                	.2byte	0x2f9c
    738a:	fef42023          	sw	a5,-32(s0)
    738e:	a8b5                	j	740a <SWD_TransferSlow+0xac0>
    7390:	400117b7          	lui	a5,0x40011
    7394:	80078793          	addi	a5,a5,-2048 # 40010800 <_eusrstack+0x20008800>
    7398:	6711                	lui	a4,0x4
    739a:	cbd8                	sw	a4,20(a5)
    739c:	0001                	nop
    739e:	200067b7          	lui	a5,0x20006
    73a2:	5f878793          	addi	a5,a5,1528 # 200065f8 <DAP_Data>
    73a6:	43dc                	lw	a5,4(a5)
    73a8:	ecf42023          	sw	a5,-320(s0)
    73ac:	ec042783          	lw	a5,-320(s0)
    73b0:	eaf42e23          	sw	a5,-324(s0)
    73b4:	0001                	nop
    73b6:	ebc42783          	lw	a5,-324(s0)
    73ba:	17fd                	addi	a5,a5,-1
    73bc:	eaf42e23          	sw	a5,-324(s0)
    73c0:	ebc42783          	lw	a5,-324(s0)
    73c4:	fbed                	bnez	a5,73b6 <SWD_TransferSlow+0xa6c>
    73c6:	0001                	nop
    73c8:	400117b7          	lui	a5,0x40011
    73cc:	80078793          	addi	a5,a5,-2048 # 40010800 <_eusrstack+0x20008800>
    73d0:	6711                	lui	a4,0x4
    73d2:	cb98                	sw	a4,16(a5)
    73d4:	0001                	nop
    73d6:	200067b7          	lui	a5,0x20006
    73da:	5f878793          	addi	a5,a5,1528 # 200065f8 <DAP_Data>
    73de:	43dc                	lw	a5,4(a5)
    73e0:	ecf42423          	sw	a5,-312(s0)
    73e4:	ec842783          	lw	a5,-312(s0)
    73e8:	ecf42223          	sw	a5,-316(s0)
    73ec:	0001                	nop
    73ee:	ec442783          	lw	a5,-316(s0)
    73f2:	17fd                	addi	a5,a5,-1
    73f4:	ecf42223          	sw	a5,-316(s0)
    73f8:	ec442783          	lw	a5,-316(s0)
    73fc:	fbed                	bnez	a5,73ee <SWD_TransferSlow+0xaa4>
    73fe:	0001                	nop
    7400:	fe042783          	lw	a5,-32(s0)
    7404:	17fd                	addi	a5,a5,-1
    7406:	fef42023          	sw	a5,-32(s0)
    740a:	fe042783          	lw	a5,-32(s0)
    740e:	f3c9                	bnez	a5,7390 <SWD_TransferSlow+0xa46>
    7410:	400117b7          	lui	a5,0x40011
    7414:	80078793          	addi	a5,a5,-2048 # 40010800 <_eusrstack+0x20008800>
    7418:	43d4                	lw	a3,4(a5)
    741a:	400117b7          	lui	a5,0x40011
    741e:	80078793          	addi	a5,a5,-2048 # 40010800 <_eusrstack+0x20008800>
    7422:	ff000737          	lui	a4,0xff000
    7426:	8f75                	and	a4,a4,a3
    7428:	c3d8                	sw	a4,4(a5)
    742a:	400117b7          	lui	a5,0x40011
    742e:	80078793          	addi	a5,a5,-2048 # 40010800 <_eusrstack+0x20008800>
    7432:	43d4                	lw	a3,4(a5)
    7434:	400117b7          	lui	a5,0x40011
    7438:	80078793          	addi	a5,a5,-2048 # 40010800 <_eusrstack+0x20008800>
    743c:	01300737          	lui	a4,0x1300
    7440:	8f55                	or	a4,a4,a3
    7442:	c3d8                	sw	a4,4(a5)
    7444:	0001                	nop
    7446:	e2842783          	lw	a5,-472(s0)
    744a:	439c                	lw	a5,0(a5)
    744c:	fef42423          	sw	a5,-24(s0)
    7450:	fe042223          	sw	zero,-28(s0)
    7454:	02000793          	li	a5,32
    7458:	fef42023          	sw	a5,-32(s0)
    745c:	a0c1                	j	751c <SWD_TransferSlow+0xbd2>
    745e:	fe842783          	lw	a5,-24(s0)
    7462:	eaf42423          	sw	a5,-344(s0)
    7466:	ea842783          	lw	a5,-344(s0)
    746a:	8b85                	andi	a5,a5,1
    746c:	cb81                	beqz	a5,747c <SWD_TransferSlow+0xb32>
    746e:	400117b7          	lui	a5,0x40011
    7472:	80078793          	addi	a5,a5,-2048 # 40010800 <_eusrstack+0x20008800>
    7476:	6709                	lui	a4,0x2
    7478:	cb98                	sw	a4,16(a5)
    747a:	a039                	j	7488 <SWD_TransferSlow+0xb3e>
    747c:	400117b7          	lui	a5,0x40011
    7480:	80078793          	addi	a5,a5,-2048 # 40010800 <_eusrstack+0x20008800>
    7484:	6709                	lui	a4,0x2
    7486:	cbd8                	sw	a4,20(a5)
    7488:	0001                	nop
    748a:	400117b7          	lui	a5,0x40011
    748e:	80078793          	addi	a5,a5,-2048 # 40010800 <_eusrstack+0x20008800>
    7492:	6711                	lui	a4,0x4
    7494:	cbd8                	sw	a4,20(a5)
    7496:	0001                	nop
    7498:	200067b7          	lui	a5,0x20006
    749c:	5f878793          	addi	a5,a5,1528 # 200065f8 <DAP_Data>
    74a0:	43dc                	lw	a5,4(a5)
    74a2:	eaf42823          	sw	a5,-336(s0)
    74a6:	eb042783          	lw	a5,-336(s0)
    74aa:	eaf42623          	sw	a5,-340(s0)
    74ae:	0001                	nop
    74b0:	eac42783          	lw	a5,-340(s0)
    74b4:	17fd                	addi	a5,a5,-1
    74b6:	eaf42623          	sw	a5,-340(s0)
    74ba:	eac42783          	lw	a5,-340(s0)
    74be:	fbed                	bnez	a5,74b0 <SWD_TransferSlow+0xb66>
    74c0:	0001                	nop
    74c2:	400117b7          	lui	a5,0x40011
    74c6:	80078793          	addi	a5,a5,-2048 # 40010800 <_eusrstack+0x20008800>
    74ca:	6711                	lui	a4,0x4
    74cc:	cb98                	sw	a4,16(a5)
    74ce:	0001                	nop
    74d0:	200067b7          	lui	a5,0x20006
    74d4:	5f878793          	addi	a5,a5,1528 # 200065f8 <DAP_Data>
    74d8:	43dc                	lw	a5,4(a5)
    74da:	eaf42c23          	sw	a5,-328(s0)
    74de:	eb842783          	lw	a5,-328(s0)
    74e2:	eaf42a23          	sw	a5,-332(s0)
    74e6:	0001                	nop
    74e8:	eb442783          	lw	a5,-332(s0)
    74ec:	17fd                	addi	a5,a5,-1
    74ee:	eaf42a23          	sw	a5,-332(s0)
    74f2:	eb442783          	lw	a5,-332(s0)
    74f6:	fbed                	bnez	a5,74e8 <SWD_TransferSlow+0xb9e>
    74f8:	0001                	nop
    74fa:	fe442703          	lw	a4,-28(s0)
    74fe:	fe842783          	lw	a5,-24(s0)
    7502:	97ba                	add	a5,a5,a4
    7504:	fef42223          	sw	a5,-28(s0)
    7508:	fe842783          	lw	a5,-24(s0)
    750c:	8385                	srli	a5,a5,0x1
    750e:	fef42423          	sw	a5,-24(s0)
    7512:	fe042783          	lw	a5,-32(s0)
    7516:	17fd                	addi	a5,a5,-1
    7518:	fef42023          	sw	a5,-32(s0)
    751c:	fe042783          	lw	a5,-32(s0)
    7520:	ff9d                	bnez	a5,745e <SWD_TransferSlow+0xb14>
    7522:	fe442783          	lw	a5,-28(s0)
    7526:	e8f42a23          	sw	a5,-364(s0)
    752a:	e9442783          	lw	a5,-364(s0)
    752e:	8b85                	andi	a5,a5,1
    7530:	cb81                	beqz	a5,7540 <SWD_TransferSlow+0xbf6>
    7532:	400117b7          	lui	a5,0x40011
    7536:	80078793          	addi	a5,a5,-2048 # 40010800 <_eusrstack+0x20008800>
    753a:	6709                	lui	a4,0x2
    753c:	cb98                	sw	a4,16(a5)
    753e:	a039                	j	754c <SWD_TransferSlow+0xc02>
    7540:	400117b7          	lui	a5,0x40011
    7544:	80078793          	addi	a5,a5,-2048 # 40010800 <_eusrstack+0x20008800>
    7548:	6709                	lui	a4,0x2
    754a:	cbd8                	sw	a4,20(a5)
    754c:	0001                	nop
    754e:	400117b7          	lui	a5,0x40011
    7552:	80078793          	addi	a5,a5,-2048 # 40010800 <_eusrstack+0x20008800>
    7556:	6711                	lui	a4,0x4
    7558:	cbd8                	sw	a4,20(a5)
    755a:	0001                	nop
    755c:	200067b7          	lui	a5,0x20006
    7560:	5f878793          	addi	a5,a5,1528 # 200065f8 <DAP_Data>
    7564:	43dc                	lw	a5,4(a5)
    7566:	e8f42e23          	sw	a5,-356(s0)
    756a:	e9c42783          	lw	a5,-356(s0)
    756e:	e8f42c23          	sw	a5,-360(s0)
    7572:	0001                	nop
    7574:	e9842783          	lw	a5,-360(s0)
    7578:	17fd                	addi	a5,a5,-1
    757a:	e8f42c23          	sw	a5,-360(s0)
    757e:	e9842783          	lw	a5,-360(s0)
    7582:	fbed                	bnez	a5,7574 <SWD_TransferSlow+0xc2a>
    7584:	0001                	nop
    7586:	400117b7          	lui	a5,0x40011
    758a:	80078793          	addi	a5,a5,-2048 # 40010800 <_eusrstack+0x20008800>
    758e:	6711                	lui	a4,0x4
    7590:	cb98                	sw	a4,16(a5)
    7592:	0001                	nop
    7594:	200067b7          	lui	a5,0x20006
    7598:	5f878793          	addi	a5,a5,1528 # 200065f8 <DAP_Data>
    759c:	43dc                	lw	a5,4(a5)
    759e:	eaf42223          	sw	a5,-348(s0)
    75a2:	ea442783          	lw	a5,-348(s0)
    75a6:	eaf42023          	sw	a5,-352(s0)
    75aa:	0001                	nop
    75ac:	ea042783          	lw	a5,-352(s0)
    75b0:	17fd                	addi	a5,a5,-1
    75b2:	eaf42023          	sw	a5,-352(s0)
    75b6:	ea042783          	lw	a5,-352(s0)
    75ba:	fbed                	bnez	a5,75ac <SWD_TransferSlow+0xc62>
    75bc:	0001                	nop
    75be:	e2c42783          	lw	a5,-468(s0)
    75c2:	0807f793          	andi	a5,a5,128
    75c6:	cb89                	beqz	a5,75d8 <SWD_TransferSlow+0xc8e>
    75c8:	e92fe0ef          	jal	ra,5c5a <TIMESTAMP_GET>
    75cc:	872a                	mv	a4,a0
    75ce:	200067b7          	lui	a5,0x20006
    75d2:	5f878793          	addi	a5,a5,1528 # 200065f8 <DAP_Data>
    75d6:	c798                	sw	a4,8(a5)
    75d8:	200067b7          	lui	a5,0x20006
    75dc:	5f878793          	addi	a5,a5,1528 # 200065f8 <DAP_Data>
    75e0:	27dc                	.2byte	0x27dc
    75e2:	fef42023          	sw	a5,-32(s0)
    75e6:	fe042783          	lw	a5,-32(s0)
    75ea:	c7d5                	beqz	a5,7696 <SWD_TransferSlow+0xd4c>
    75ec:	e8042823          	sw	zero,-368(s0)
    75f0:	e9042783          	lw	a5,-368(s0)
    75f4:	8b85                	andi	a5,a5,1
    75f6:	cb81                	beqz	a5,7606 <SWD_TransferSlow+0xcbc>
    75f8:	400117b7          	lui	a5,0x40011
    75fc:	80078793          	addi	a5,a5,-2048 # 40010800 <_eusrstack+0x20008800>
    7600:	6709                	lui	a4,0x2
    7602:	cb98                	sw	a4,16(a5)
    7604:	a039                	j	7612 <SWD_TransferSlow+0xcc8>
    7606:	400117b7          	lui	a5,0x40011
    760a:	80078793          	addi	a5,a5,-2048 # 40010800 <_eusrstack+0x20008800>
    760e:	6709                	lui	a4,0x2
    7610:	cbd8                	sw	a4,20(a5)
    7612:	0001                	nop
    7614:	a8b5                	j	7690 <SWD_TransferSlow+0xd46>
    7616:	400117b7          	lui	a5,0x40011
    761a:	80078793          	addi	a5,a5,-2048 # 40010800 <_eusrstack+0x20008800>
    761e:	6711                	lui	a4,0x4
    7620:	cbd8                	sw	a4,20(a5)
    7622:	0001                	nop
    7624:	200067b7          	lui	a5,0x20006
    7628:	5f878793          	addi	a5,a5,1528 # 200065f8 <DAP_Data>
    762c:	43dc                	lw	a5,4(a5)
    762e:	e8f42223          	sw	a5,-380(s0)
    7632:	e8442783          	lw	a5,-380(s0)
    7636:	e8f42023          	sw	a5,-384(s0)
    763a:	0001                	nop
    763c:	e8042783          	lw	a5,-384(s0)
    7640:	17fd                	addi	a5,a5,-1
    7642:	e8f42023          	sw	a5,-384(s0)
    7646:	e8042783          	lw	a5,-384(s0)
    764a:	fbed                	bnez	a5,763c <SWD_TransferSlow+0xcf2>
    764c:	0001                	nop
    764e:	400117b7          	lui	a5,0x40011
    7652:	80078793          	addi	a5,a5,-2048 # 40010800 <_eusrstack+0x20008800>
    7656:	6711                	lui	a4,0x4
    7658:	cb98                	sw	a4,16(a5)
    765a:	0001                	nop
    765c:	200067b7          	lui	a5,0x20006
    7660:	5f878793          	addi	a5,a5,1528 # 200065f8 <DAP_Data>
    7664:	43dc                	lw	a5,4(a5)
    7666:	e8f42623          	sw	a5,-372(s0)
    766a:	e8c42783          	lw	a5,-372(s0)
    766e:	e8f42423          	sw	a5,-376(s0)
    7672:	0001                	nop
    7674:	e8842783          	lw	a5,-376(s0)
    7678:	17fd                	addi	a5,a5,-1
    767a:	e8f42423          	sw	a5,-376(s0)
    767e:	e8842783          	lw	a5,-376(s0)
    7682:	fbed                	bnez	a5,7674 <SWD_TransferSlow+0xd2a>
    7684:	0001                	nop
    7686:	fe042783          	lw	a5,-32(s0)
    768a:	17fd                	addi	a5,a5,-1
    768c:	fef42023          	sw	a5,-32(s0)
    7690:	fe042783          	lw	a5,-32(s0)
    7694:	f3c9                	bnez	a5,7616 <SWD_TransferSlow+0xccc>
    7696:	4785                	li	a5,1
    7698:	e6f42e23          	sw	a5,-388(s0)
    769c:	e7c42783          	lw	a5,-388(s0)
    76a0:	8b85                	andi	a5,a5,1
    76a2:	cb81                	beqz	a5,76b2 <SWD_TransferSlow+0xd68>
    76a4:	400117b7          	lui	a5,0x40011
    76a8:	80078793          	addi	a5,a5,-2048 # 40010800 <_eusrstack+0x20008800>
    76ac:	6709                	lui	a4,0x2
    76ae:	cb98                	sw	a4,16(a5)
    76b0:	a039                	j	76be <SWD_TransferSlow+0xd74>
    76b2:	400117b7          	lui	a5,0x40011
    76b6:	80078793          	addi	a5,a5,-2048 # 40010800 <_eusrstack+0x20008800>
    76ba:	6709                	lui	a4,0x2
    76bc:	cbd8                	sw	a4,20(a5)
    76be:	0001                	nop
    76c0:	fec42783          	lw	a5,-20(s0)
    76c4:	0ff7f793          	zext.b	a5,a5
    76c8:	ae85                	j	7a38 <SWD_TransferSlow+0x10ee>
    76ca:	fec42703          	lw	a4,-20(s0)
    76ce:	4789                	li	a5,2
    76d0:	00f70763          	beq	a4,a5,76de <SWD_TransferSlow+0xd94>
    76d4:	fec42703          	lw	a4,-20(s0)
    76d8:	4791                	li	a5,4
    76da:	26f71163          	bne	a4,a5,793c <SWD_TransferSlow+0xff2>
    76de:	200067b7          	lui	a5,0x20006
    76e2:	5f878793          	addi	a5,a5,1528 # 200065f8 <DAP_Data>
    76e6:	3f9c                	.2byte	0x3f9c
    76e8:	cbd1                	beqz	a5,777c <SWD_TransferSlow+0xe32>
    76ea:	e2c42783          	lw	a5,-468(s0)
    76ee:	8b89                	andi	a5,a5,2
    76f0:	c7d1                	beqz	a5,777c <SWD_TransferSlow+0xe32>
    76f2:	02100793          	li	a5,33
    76f6:	fef42023          	sw	a5,-32(s0)
    76fa:	a8b5                	j	7776 <SWD_TransferSlow+0xe2c>
    76fc:	400117b7          	lui	a5,0x40011
    7700:	80078793          	addi	a5,a5,-2048 # 40010800 <_eusrstack+0x20008800>
    7704:	6711                	lui	a4,0x4
    7706:	cbd8                	sw	a4,20(a5)
    7708:	0001                	nop
    770a:	200067b7          	lui	a5,0x20006
    770e:	5f878793          	addi	a5,a5,1528 # 200065f8 <DAP_Data>
    7712:	43dc                	lw	a5,4(a5)
    7714:	e6f42823          	sw	a5,-400(s0)
    7718:	e7042783          	lw	a5,-400(s0)
    771c:	e6f42623          	sw	a5,-404(s0)
    7720:	0001                	nop
    7722:	e6c42783          	lw	a5,-404(s0)
    7726:	17fd                	addi	a5,a5,-1
    7728:	e6f42623          	sw	a5,-404(s0)
    772c:	e6c42783          	lw	a5,-404(s0)
    7730:	fbed                	bnez	a5,7722 <SWD_TransferSlow+0xdd8>
    7732:	0001                	nop
    7734:	400117b7          	lui	a5,0x40011
    7738:	80078793          	addi	a5,a5,-2048 # 40010800 <_eusrstack+0x20008800>
    773c:	6711                	lui	a4,0x4
    773e:	cb98                	sw	a4,16(a5)
    7740:	0001                	nop
    7742:	200067b7          	lui	a5,0x20006
    7746:	5f878793          	addi	a5,a5,1528 # 200065f8 <DAP_Data>
    774a:	43dc                	lw	a5,4(a5)
    774c:	e6f42c23          	sw	a5,-392(s0)
    7750:	e7842783          	lw	a5,-392(s0)
    7754:	e6f42a23          	sw	a5,-396(s0)
    7758:	0001                	nop
    775a:	e7442783          	lw	a5,-396(s0)
    775e:	17fd                	addi	a5,a5,-1
    7760:	e6f42a23          	sw	a5,-396(s0)
    7764:	e7442783          	lw	a5,-396(s0)
    7768:	fbed                	bnez	a5,775a <SWD_TransferSlow+0xe10>
    776a:	0001                	nop
    776c:	fe042783          	lw	a5,-32(s0)
    7770:	17fd                	addi	a5,a5,-1
    7772:	fef42023          	sw	a5,-32(s0)
    7776:	fe042783          	lw	a5,-32(s0)
    777a:	f3c9                	bnez	a5,76fc <SWD_TransferSlow+0xdb2>
    777c:	200067b7          	lui	a5,0x20006
    7780:	5f878793          	addi	a5,a5,1528 # 200065f8 <DAP_Data>
    7784:	2f9c                	.2byte	0x2f9c
    7786:	fef42023          	sw	a5,-32(s0)
    778a:	a8b5                	j	7806 <SWD_TransferSlow+0xebc>
    778c:	400117b7          	lui	a5,0x40011
    7790:	80078793          	addi	a5,a5,-2048 # 40010800 <_eusrstack+0x20008800>
    7794:	6711                	lui	a4,0x4
    7796:	cbd8                	sw	a4,20(a5)
    7798:	0001                	nop
    779a:	200067b7          	lui	a5,0x20006
    779e:	5f878793          	addi	a5,a5,1528 # 200065f8 <DAP_Data>
    77a2:	43dc                	lw	a5,4(a5)
    77a4:	e6f42023          	sw	a5,-416(s0)
    77a8:	e6042783          	lw	a5,-416(s0)
    77ac:	e4f42e23          	sw	a5,-420(s0)
    77b0:	0001                	nop
    77b2:	e5c42783          	lw	a5,-420(s0)
    77b6:	17fd                	addi	a5,a5,-1
    77b8:	e4f42e23          	sw	a5,-420(s0)
    77bc:	e5c42783          	lw	a5,-420(s0)
    77c0:	fbed                	bnez	a5,77b2 <SWD_TransferSlow+0xe68>
    77c2:	0001                	nop
    77c4:	400117b7          	lui	a5,0x40011
    77c8:	80078793          	addi	a5,a5,-2048 # 40010800 <_eusrstack+0x20008800>
    77cc:	6711                	lui	a4,0x4
    77ce:	cb98                	sw	a4,16(a5)
    77d0:	0001                	nop
    77d2:	200067b7          	lui	a5,0x20006
    77d6:	5f878793          	addi	a5,a5,1528 # 200065f8 <DAP_Data>
    77da:	43dc                	lw	a5,4(a5)
    77dc:	e6f42423          	sw	a5,-408(s0)
    77e0:	e6842783          	lw	a5,-408(s0)
    77e4:	e6f42223          	sw	a5,-412(s0)
    77e8:	0001                	nop
    77ea:	e6442783          	lw	a5,-412(s0)
    77ee:	17fd                	addi	a5,a5,-1
    77f0:	e6f42223          	sw	a5,-412(s0)
    77f4:	e6442783          	lw	a5,-412(s0)
    77f8:	fbed                	bnez	a5,77ea <SWD_TransferSlow+0xea0>
    77fa:	0001                	nop
    77fc:	fe042783          	lw	a5,-32(s0)
    7800:	17fd                	addi	a5,a5,-1
    7802:	fef42023          	sw	a5,-32(s0)
    7806:	fe042783          	lw	a5,-32(s0)
    780a:	f3c9                	bnez	a5,778c <SWD_TransferSlow+0xe42>
    780c:	400117b7          	lui	a5,0x40011
    7810:	80078793          	addi	a5,a5,-2048 # 40010800 <_eusrstack+0x20008800>
    7814:	43d4                	lw	a3,4(a5)
    7816:	400117b7          	lui	a5,0x40011
    781a:	80078793          	addi	a5,a5,-2048 # 40010800 <_eusrstack+0x20008800>
    781e:	ff000737          	lui	a4,0xff000
    7822:	8f75                	and	a4,a4,a3
    7824:	c3d8                	sw	a4,4(a5)
    7826:	400117b7          	lui	a5,0x40011
    782a:	80078793          	addi	a5,a5,-2048 # 40010800 <_eusrstack+0x20008800>
    782e:	43d4                	lw	a3,4(a5)
    7830:	400117b7          	lui	a5,0x40011
    7834:	80078793          	addi	a5,a5,-2048 # 40010800 <_eusrstack+0x20008800>
    7838:	01300737          	lui	a4,0x1300
    783c:	8f55                	or	a4,a4,a3
    783e:	c3d8                	sw	a4,4(a5)
    7840:	0001                	nop
    7842:	200067b7          	lui	a5,0x20006
    7846:	5f878793          	addi	a5,a5,1528 # 200065f8 <DAP_Data>
    784a:	3f9c                	.2byte	0x3f9c
    784c:	cfd5                	beqz	a5,7908 <SWD_TransferSlow+0xfbe>
    784e:	e2c42783          	lw	a5,-468(s0)
    7852:	8b89                	andi	a5,a5,2
    7854:	ebd5                	bnez	a5,7908 <SWD_TransferSlow+0xfbe>
    7856:	e4042c23          	sw	zero,-424(s0)
    785a:	e5842783          	lw	a5,-424(s0)
    785e:	8b85                	andi	a5,a5,1
    7860:	cb81                	beqz	a5,7870 <SWD_TransferSlow+0xf26>
    7862:	400117b7          	lui	a5,0x40011
    7866:	80078793          	addi	a5,a5,-2048 # 40010800 <_eusrstack+0x20008800>
    786a:	6709                	lui	a4,0x2
    786c:	cb98                	sw	a4,16(a5)
    786e:	a039                	j	787c <SWD_TransferSlow+0xf32>
    7870:	400117b7          	lui	a5,0x40011
    7874:	80078793          	addi	a5,a5,-2048 # 40010800 <_eusrstack+0x20008800>
    7878:	6709                	lui	a4,0x2
    787a:	cbd8                	sw	a4,20(a5)
    787c:	0001                	nop
    787e:	02100793          	li	a5,33
    7882:	fef42023          	sw	a5,-32(s0)
    7886:	a8b5                	j	7902 <SWD_TransferSlow+0xfb8>
    7888:	400117b7          	lui	a5,0x40011
    788c:	80078793          	addi	a5,a5,-2048 # 40010800 <_eusrstack+0x20008800>
    7890:	6711                	lui	a4,0x4
    7892:	cbd8                	sw	a4,20(a5)
    7894:	0001                	nop
    7896:	200067b7          	lui	a5,0x20006
    789a:	5f878793          	addi	a5,a5,1528 # 200065f8 <DAP_Data>
    789e:	43dc                	lw	a5,4(a5)
    78a0:	e4f42623          	sw	a5,-436(s0)
    78a4:	e4c42783          	lw	a5,-436(s0)
    78a8:	e4f42423          	sw	a5,-440(s0)
    78ac:	0001                	nop
    78ae:	e4842783          	lw	a5,-440(s0)
    78b2:	17fd                	addi	a5,a5,-1
    78b4:	e4f42423          	sw	a5,-440(s0)
    78b8:	e4842783          	lw	a5,-440(s0)
    78bc:	fbed                	bnez	a5,78ae <SWD_TransferSlow+0xf64>
    78be:	0001                	nop
    78c0:	400117b7          	lui	a5,0x40011
    78c4:	80078793          	addi	a5,a5,-2048 # 40010800 <_eusrstack+0x20008800>
    78c8:	6711                	lui	a4,0x4
    78ca:	cb98                	sw	a4,16(a5)
    78cc:	0001                	nop
    78ce:	200067b7          	lui	a5,0x20006
    78d2:	5f878793          	addi	a5,a5,1528 # 200065f8 <DAP_Data>
    78d6:	43dc                	lw	a5,4(a5)
    78d8:	e4f42a23          	sw	a5,-428(s0)
    78dc:	e5442783          	lw	a5,-428(s0)
    78e0:	e4f42823          	sw	a5,-432(s0)
    78e4:	0001                	nop
    78e6:	e5042783          	lw	a5,-432(s0)
    78ea:	17fd                	addi	a5,a5,-1
    78ec:	e4f42823          	sw	a5,-432(s0)
    78f0:	e5042783          	lw	a5,-432(s0)
    78f4:	fbed                	bnez	a5,78e6 <SWD_TransferSlow+0xf9c>
    78f6:	0001                	nop
    78f8:	fe042783          	lw	a5,-32(s0)
    78fc:	17fd                	addi	a5,a5,-1
    78fe:	fef42023          	sw	a5,-32(s0)
    7902:	fe042783          	lw	a5,-32(s0)
    7906:	f3c9                	bnez	a5,7888 <SWD_TransferSlow+0xf3e>
    7908:	4785                	li	a5,1
    790a:	e4f42223          	sw	a5,-444(s0)
    790e:	e4442783          	lw	a5,-444(s0)
    7912:	8b85                	andi	a5,a5,1
    7914:	cb81                	beqz	a5,7924 <SWD_TransferSlow+0xfda>
    7916:	400117b7          	lui	a5,0x40011
    791a:	80078793          	addi	a5,a5,-2048 # 40010800 <_eusrstack+0x20008800>
    791e:	6709                	lui	a4,0x2
    7920:	cb98                	sw	a4,16(a5)
    7922:	a039                	j	7930 <SWD_TransferSlow+0xfe6>
    7924:	400117b7          	lui	a5,0x40011
    7928:	80078793          	addi	a5,a5,-2048 # 40010800 <_eusrstack+0x20008800>
    792c:	6709                	lui	a4,0x2
    792e:	cbd8                	sw	a4,20(a5)
    7930:	0001                	nop
    7932:	fec42783          	lw	a5,-20(s0)
    7936:	0ff7f793          	zext.b	a5,a5
    793a:	a8fd                	j	7a38 <SWD_TransferSlow+0x10ee>
    793c:	200067b7          	lui	a5,0x20006
    7940:	5f878793          	addi	a5,a5,1528 # 200065f8 <DAP_Data>
    7944:	2f9c                	.2byte	0x2f9c
    7946:	02178793          	addi	a5,a5,33
    794a:	fef42023          	sw	a5,-32(s0)
    794e:	a8b5                	j	79ca <SWD_TransferSlow+0x1080>
    7950:	400117b7          	lui	a5,0x40011
    7954:	80078793          	addi	a5,a5,-2048 # 40010800 <_eusrstack+0x20008800>
    7958:	6711                	lui	a4,0x4
    795a:	cbd8                	sw	a4,20(a5)
    795c:	0001                	nop
    795e:	200067b7          	lui	a5,0x20006
    7962:	5f878793          	addi	a5,a5,1528 # 200065f8 <DAP_Data>
    7966:	43dc                	lw	a5,4(a5)
    7968:	e2f42c23          	sw	a5,-456(s0)
    796c:	e3842783          	lw	a5,-456(s0)
    7970:	e2f42a23          	sw	a5,-460(s0)
    7974:	0001                	nop
    7976:	e3442783          	lw	a5,-460(s0)
    797a:	17fd                	addi	a5,a5,-1
    797c:	e2f42a23          	sw	a5,-460(s0)
    7980:	e3442783          	lw	a5,-460(s0)
    7984:	fbed                	bnez	a5,7976 <SWD_TransferSlow+0x102c>
    7986:	0001                	nop
    7988:	400117b7          	lui	a5,0x40011
    798c:	80078793          	addi	a5,a5,-2048 # 40010800 <_eusrstack+0x20008800>
    7990:	6711                	lui	a4,0x4
    7992:	cb98                	sw	a4,16(a5)
    7994:	0001                	nop
    7996:	200067b7          	lui	a5,0x20006
    799a:	5f878793          	addi	a5,a5,1528 # 200065f8 <DAP_Data>
    799e:	43dc                	lw	a5,4(a5)
    79a0:	e4f42023          	sw	a5,-448(s0)
    79a4:	e4042783          	lw	a5,-448(s0)
    79a8:	e2f42e23          	sw	a5,-452(s0)
    79ac:	0001                	nop
    79ae:	e3c42783          	lw	a5,-452(s0)
    79b2:	17fd                	addi	a5,a5,-1
    79b4:	e2f42e23          	sw	a5,-452(s0)
    79b8:	e3c42783          	lw	a5,-452(s0)
    79bc:	fbed                	bnez	a5,79ae <SWD_TransferSlow+0x1064>
    79be:	0001                	nop
    79c0:	fe042783          	lw	a5,-32(s0)
    79c4:	17fd                	addi	a5,a5,-1
    79c6:	fef42023          	sw	a5,-32(s0)
    79ca:	fe042783          	lw	a5,-32(s0)
    79ce:	f3c9                	bnez	a5,7950 <SWD_TransferSlow+0x1006>
    79d0:	400117b7          	lui	a5,0x40011
    79d4:	80078793          	addi	a5,a5,-2048 # 40010800 <_eusrstack+0x20008800>
    79d8:	43d4                	lw	a3,4(a5)
    79da:	400117b7          	lui	a5,0x40011
    79de:	80078793          	addi	a5,a5,-2048 # 40010800 <_eusrstack+0x20008800>
    79e2:	ff000737          	lui	a4,0xff000
    79e6:	8f75                	and	a4,a4,a3
    79e8:	c3d8                	sw	a4,4(a5)
    79ea:	400117b7          	lui	a5,0x40011
    79ee:	80078793          	addi	a5,a5,-2048 # 40010800 <_eusrstack+0x20008800>
    79f2:	43d4                	lw	a3,4(a5)
    79f4:	400117b7          	lui	a5,0x40011
    79f8:	80078793          	addi	a5,a5,-2048 # 40010800 <_eusrstack+0x20008800>
    79fc:	01300737          	lui	a4,0x1300
    7a00:	8f55                	or	a4,a4,a3
    7a02:	c3d8                	sw	a4,4(a5)
    7a04:	0001                	nop
    7a06:	4785                	li	a5,1
    7a08:	e2f42823          	sw	a5,-464(s0)
    7a0c:	e3042783          	lw	a5,-464(s0)
    7a10:	8b85                	andi	a5,a5,1
    7a12:	cb81                	beqz	a5,7a22 <SWD_TransferSlow+0x10d8>
    7a14:	400117b7          	lui	a5,0x40011
    7a18:	80078793          	addi	a5,a5,-2048 # 40010800 <_eusrstack+0x20008800>
    7a1c:	6709                	lui	a4,0x2
    7a1e:	cb98                	sw	a4,16(a5)
    7a20:	a039                	j	7a2e <SWD_TransferSlow+0x10e4>
    7a22:	400117b7          	lui	a5,0x40011
    7a26:	80078793          	addi	a5,a5,-2048 # 40010800 <_eusrstack+0x20008800>
    7a2a:	6709                	lui	a4,0x2
    7a2c:	cbd8                	sw	a4,20(a5)
    7a2e:	0001                	nop
    7a30:	fec42783          	lw	a5,-20(s0)
    7a34:	0ff7f793          	zext.b	a5,a5
    7a38:	853e                	mv	a0,a5
    7a3a:	1dc12083          	lw	ra,476(sp)
    7a3e:	1d812403          	lw	s0,472(sp)
    7a42:	613d                	addi	sp,sp,480
    7a44:	8082                	ret

00007a46 <SWD_Transfer>:
    7a46:	1101                	addi	sp,sp,-32
    7a48:	ce06                	sw	ra,28(sp)
    7a4a:	cc22                	sw	s0,24(sp)
    7a4c:	1000                	addi	s0,sp,32
    7a4e:	fea42623          	sw	a0,-20(s0)
    7a52:	feb42423          	sw	a1,-24(s0)
    7a56:	200067b7          	lui	a5,0x20006
    7a5a:	5f878793          	addi	a5,a5,1528 # 200065f8 <DAP_Data>
    7a5e:	339c                	.2byte	0x339c
    7a60:	cb89                	beqz	a5,7a72 <SWD_Transfer+0x2c>
    7a62:	fe842583          	lw	a1,-24(s0)
    7a66:	fec42503          	lw	a0,-20(s0)
    7a6a:	d1cfe0ef          	jal	ra,5f86 <SWD_TransferFast>
    7a6e:	87aa                	mv	a5,a0
    7a70:	a801                	j	7a80 <SWD_Transfer+0x3a>
    7a72:	fe842583          	lw	a1,-24(s0)
    7a76:	fec42503          	lw	a0,-20(s0)
    7a7a:	ed1fe0ef          	jal	ra,694a <SWD_TransferSlow>
    7a7e:	87aa                	mv	a5,a0
    7a80:	853e                	mv	a0,a5
    7a82:	40f2                	lw	ra,28(sp)
    7a84:	4462                	lw	s0,24(sp)
    7a86:	6105                	addi	sp,sp,32
    7a88:	8082                	ret

00007a8a <usbd_event_handler>:
    7a8a:	1101                	addi	sp,sp,-32
    7a8c:	ce06                	sw	ra,28(sp)
    7a8e:	cc22                	sw	s0,24(sp)
    7a90:	1000                	addi	s0,sp,32
    7a92:	87aa                	mv	a5,a0
    7a94:	fef407a3          	sb	a5,-17(s0)
    7a98:	fef44783          	lbu	a5,-17(s0)
    7a9c:	4729                	li	a4,10
    7a9e:	06f76263          	bltu	a4,a5,7b02 <usbd_event_handler+0x78>
    7aa2:	00279713          	slli	a4,a5,0x2
    7aa6:	67b9                	lui	a5,0xe
    7aa8:	cb078793          	addi	a5,a5,-848 # dcb0 <USBD_BinaryObjectStoreDescriptor+0x24>
    7aac:	97ba                	add	a5,a5,a4
    7aae:	439c                	lw	a5,0(a5)
    7ab0:	8782                	jr	a5
    7ab2:	200067b7          	lui	a5,0x20006
    7ab6:	5c0788a3          	sb	zero,1489(a5) # 200065d1 <usbrx_idle_flag>
    7aba:	200067b7          	lui	a5,0x20006
    7abe:	5c078923          	sb	zero,1490(a5) # 200065d2 <usbtx_idle_flag>
    7ac2:	200067b7          	lui	a5,0x20006
    7ac6:	5c0789a3          	sb	zero,1491(a5) # 200065d3 <uarttx_idle_flag>
    7aca:	200067b7          	lui	a5,0x20006
    7ace:	5c078823          	sb	zero,1488(a5) # 200065d0 <config_uart_transfer>
    7ad2:	a80d                	j	7b04 <usbd_event_handler+0x7a>
    7ad4:	200067b7          	lui	a5,0x20006
    7ad8:	5a078d23          	sb	zero,1466(a5) # 200065ba <USB_RequestIdle>
    7adc:	20000613          	li	a2,512
    7ae0:	200007b7          	lui	a5,0x20000
    7ae4:	1a078593          	addi	a1,a5,416 # 200001a0 <USB_Request>
    7ae8:	4509                	li	a0,2
    7aea:	261020ef          	jal	ra,a54a <usbd_ep_start_read>
    7aee:	20000613          	li	a2,512
    7af2:	200067b7          	lui	a5,0x20006
    7af6:	1a078593          	addi	a1,a5,416 # 200061a0 <usb_tmpbuffer>
    7afa:	4511                	li	a0,4
    7afc:	24f020ef          	jal	ra,a54a <usbd_ep_start_read>
    7b00:	a011                	j	7b04 <usbd_event_handler+0x7a>
    7b02:	0001                	nop
    7b04:	0001                	nop
    7b06:	40f2                	lw	ra,28(sp)
    7b08:	4462                	lw	s0,24(sp)
    7b0a:	6105                	addi	sp,sp,32
    7b0c:	8082                	ret

00007b0e <dap_out_callback>:
    7b0e:	1101                	addi	sp,sp,-32
    7b10:	ce06                	sw	ra,28(sp)
    7b12:	cc22                	sw	s0,24(sp)
    7b14:	1000                	addi	s0,sp,32
    7b16:	87aa                	mv	a5,a0
    7b18:	feb42423          	sw	a1,-24(s0)
    7b1c:	fef407a3          	sb	a5,-17(s0)
    7b20:	200067b7          	lui	a5,0x20006
    7b24:	5b27d783          	lhu	a5,1458(a5) # 200065b2 <USB_RequestIndexI>
    7b28:	07c2                	slli	a5,a5,0x10
    7b2a:	83c1                	srli	a5,a5,0x10
    7b2c:	86be                	mv	a3,a5
    7b2e:	200007b7          	lui	a5,0x20000
    7b32:	1a078713          	addi	a4,a5,416 # 200001a0 <USB_Request>
    7b36:	00969793          	slli	a5,a3,0x9
    7b3a:	97ba                	add	a5,a5,a4
    7b3c:	2398                	.2byte	0x2398
    7b3e:	479d                	li	a5,7
    7b40:	00f71863          	bne	a4,a5,7b50 <dap_out_callback+0x42>
    7b44:	200067b7          	lui	a5,0x20006
    7b48:	4705                	li	a4,1
    7b4a:	5ae78823          	sb	a4,1456(a5) # 200065b0 <DAP_TransferAbort>
    7b4e:	a899                	j	7ba4 <dap_out_callback+0x96>
    7b50:	200067b7          	lui	a5,0x20006
    7b54:	5b27d783          	lhu	a5,1458(a5) # 200065b2 <USB_RequestIndexI>
    7b58:	07c2                	slli	a5,a5,0x10
    7b5a:	83c1                	srli	a5,a5,0x10
    7b5c:	0785                	addi	a5,a5,1
    7b5e:	01079713          	slli	a4,a5,0x10
    7b62:	8341                	srli	a4,a4,0x10
    7b64:	200067b7          	lui	a5,0x20006
    7b68:	5ae79923          	sh	a4,1458(a5) # 200065b2 <USB_RequestIndexI>
    7b6c:	200067b7          	lui	a5,0x20006
    7b70:	5b27d783          	lhu	a5,1458(a5) # 200065b2 <USB_RequestIndexI>
    7b74:	01079713          	slli	a4,a5,0x10
    7b78:	8341                	srli	a4,a4,0x10
    7b7a:	47a1                	li	a5,8
    7b7c:	00f71663          	bne	a4,a5,7b88 <dap_out_callback+0x7a>
    7b80:	200067b7          	lui	a5,0x20006
    7b84:	5a079923          	sh	zero,1458(a5) # 200065b2 <USB_RequestIndexI>
    7b88:	200067b7          	lui	a5,0x20006
    7b8c:	5b67d783          	lhu	a5,1462(a5) # 200065b6 <USB_RequestCountI>
    7b90:	07c2                	slli	a5,a5,0x10
    7b92:	83c1                	srli	a5,a5,0x10
    7b94:	0785                	addi	a5,a5,1
    7b96:	01079713          	slli	a4,a5,0x10
    7b9a:	8341                	srli	a4,a4,0x10
    7b9c:	200067b7          	lui	a5,0x20006
    7ba0:	5ae79b23          	sh	a4,1462(a5) # 200065b6 <USB_RequestCountI>
    7ba4:	200067b7          	lui	a5,0x20006
    7ba8:	5b67d783          	lhu	a5,1462(a5) # 200065b6 <USB_RequestCountI>
    7bac:	01079713          	slli	a4,a5,0x10
    7bb0:	8341                	srli	a4,a4,0x10
    7bb2:	200067b7          	lui	a5,0x20006
    7bb6:	5b87d783          	lhu	a5,1464(a5) # 200065b8 <USB_RequestCountO>
    7bba:	07c2                	slli	a5,a5,0x10
    7bbc:	83c1                	srli	a5,a5,0x10
    7bbe:	40f707b3          	sub	a5,a4,a5
    7bc2:	01079713          	slli	a4,a5,0x10
    7bc6:	8341                	srli	a4,a4,0x10
    7bc8:	47a1                	li	a5,8
    7bca:	02f70663          	beq	a4,a5,7bf6 <dap_out_callback+0xe8>
    7bce:	200067b7          	lui	a5,0x20006
    7bd2:	5b27d783          	lhu	a5,1458(a5) # 200065b2 <USB_RequestIndexI>
    7bd6:	07c2                	slli	a5,a5,0x10
    7bd8:	83c1                	srli	a5,a5,0x10
    7bda:	00979713          	slli	a4,a5,0x9
    7bde:	200007b7          	lui	a5,0x20000
    7be2:	1a078793          	addi	a5,a5,416 # 200001a0 <USB_Request>
    7be6:	97ba                	add	a5,a5,a4
    7be8:	20000613          	li	a2,512
    7bec:	85be                	mv	a1,a5
    7bee:	4509                	li	a0,2
    7bf0:	15b020ef          	jal	ra,a54a <usbd_ep_start_read>
    7bf4:	a031                	j	7c00 <dap_out_callback+0xf2>
    7bf6:	200067b7          	lui	a5,0x20006
    7bfa:	4705                	li	a4,1
    7bfc:	5ae78d23          	sb	a4,1466(a5) # 200065ba <USB_RequestIdle>
    7c00:	0001                	nop
    7c02:	40f2                	lw	ra,28(sp)
    7c04:	4462                	lw	s0,24(sp)
    7c06:	6105                	addi	sp,sp,32
    7c08:	8082                	ret

00007c0a <dap_in_callback>:
    7c0a:	1101                	addi	sp,sp,-32
    7c0c:	ce06                	sw	ra,28(sp)
    7c0e:	cc22                	sw	s0,24(sp)
    7c10:	1000                	addi	s0,sp,32
    7c12:	87aa                	mv	a5,a0
    7c14:	feb42423          	sw	a1,-24(s0)
    7c18:	fef407a3          	sb	a5,-17(s0)
    7c1c:	200067b7          	lui	a5,0x20006
    7c20:	5c07d783          	lhu	a5,1472(a5) # 200065c0 <USB_ResponseCountI>
    7c24:	01079713          	slli	a4,a5,0x10
    7c28:	8341                	srli	a4,a4,0x10
    7c2a:	200067b7          	lui	a5,0x20006
    7c2e:	5c27d783          	lhu	a5,1474(a5) # 200065c2 <USB_ResponseCountO>
    7c32:	07c2                	slli	a5,a5,0x10
    7c34:	83c1                	srli	a5,a5,0x10
    7c36:	0af70063          	beq	a4,a5,7cd6 <dap_in_callback+0xcc>
    7c3a:	200067b7          	lui	a5,0x20006
    7c3e:	5be7d783          	lhu	a5,1470(a5) # 200065be <USB_ResponseIndexO>
    7c42:	07c2                	slli	a5,a5,0x10
    7c44:	83c1                	srli	a5,a5,0x10
    7c46:	00979713          	slli	a4,a5,0x9
    7c4a:	200017b7          	lui	a5,0x20001
    7c4e:	1a078793          	addi	a5,a5,416 # 200011a0 <USB_Response>
    7c52:	00f706b3          	add	a3,a4,a5
    7c56:	200067b7          	lui	a5,0x20006
    7c5a:	5be7d783          	lhu	a5,1470(a5) # 200065be <USB_ResponseIndexO>
    7c5e:	07c2                	slli	a5,a5,0x10
    7c60:	83c1                	srli	a5,a5,0x10
    7c62:	863e                	mv	a2,a5
    7c64:	200067b7          	lui	a5,0x20006
    7c68:	64878713          	addi	a4,a5,1608 # 20006648 <USB_RespSize>
    7c6c:	00161793          	slli	a5,a2,0x1
    7c70:	97ba                	add	a5,a5,a4
    7c72:	239e                	.2byte	0x239e
    7c74:	863e                	mv	a2,a5
    7c76:	85b6                	mv	a1,a3
    7c78:	08100513          	li	a0,129
    7c7c:	690020ef          	jal	ra,a30c <usbd_ep_start_write>
    7c80:	200067b7          	lui	a5,0x20006
    7c84:	5be7d783          	lhu	a5,1470(a5) # 200065be <USB_ResponseIndexO>
    7c88:	07c2                	slli	a5,a5,0x10
    7c8a:	83c1                	srli	a5,a5,0x10
    7c8c:	0785                	addi	a5,a5,1
    7c8e:	01079713          	slli	a4,a5,0x10
    7c92:	8341                	srli	a4,a4,0x10
    7c94:	200067b7          	lui	a5,0x20006
    7c98:	5ae79f23          	sh	a4,1470(a5) # 200065be <USB_ResponseIndexO>
    7c9c:	200067b7          	lui	a5,0x20006
    7ca0:	5be7d783          	lhu	a5,1470(a5) # 200065be <USB_ResponseIndexO>
    7ca4:	01079713          	slli	a4,a5,0x10
    7ca8:	8341                	srli	a4,a4,0x10
    7caa:	47a1                	li	a5,8
    7cac:	00f71663          	bne	a4,a5,7cb8 <dap_in_callback+0xae>
    7cb0:	200067b7          	lui	a5,0x20006
    7cb4:	5a079f23          	sh	zero,1470(a5) # 200065be <USB_ResponseIndexO>
    7cb8:	200067b7          	lui	a5,0x20006
    7cbc:	5c27d783          	lhu	a5,1474(a5) # 200065c2 <USB_ResponseCountO>
    7cc0:	07c2                	slli	a5,a5,0x10
    7cc2:	83c1                	srli	a5,a5,0x10
    7cc4:	0785                	addi	a5,a5,1
    7cc6:	01079713          	slli	a4,a5,0x10
    7cca:	8341                	srli	a4,a4,0x10
    7ccc:	200067b7          	lui	a5,0x20006
    7cd0:	5ce79123          	sh	a4,1474(a5) # 200065c2 <USB_ResponseCountO>
    7cd4:	a031                	j	7ce0 <dap_in_callback+0xd6>
    7cd6:	200067b7          	lui	a5,0x20006
    7cda:	4705                	li	a4,1
    7cdc:	5ce78223          	sb	a4,1476(a5) # 200065c4 <USB_ResponseIdle>
    7ce0:	0001                	nop
    7ce2:	40f2                	lw	ra,28(sp)
    7ce4:	4462                	lw	s0,24(sp)
    7ce6:	6105                	addi	sp,sp,32
    7ce8:	8082                	ret

00007cea <usbd_cdc_acm_bulk_out>:
    7cea:	1101                	addi	sp,sp,-32
    7cec:	ce06                	sw	ra,28(sp)
    7cee:	cc22                	sw	s0,24(sp)
    7cf0:	1000                	addi	s0,sp,32
    7cf2:	87aa                	mv	a5,a0
    7cf4:	feb42423          	sw	a1,-24(s0)
    7cf8:	fef407a3          	sb	a5,-17(s0)
    7cfc:	fe842603          	lw	a2,-24(s0)
    7d00:	200067b7          	lui	a5,0x20006
    7d04:	1a078593          	addi	a1,a5,416 # 200061a0 <usb_tmpbuffer>
    7d08:	200067b7          	lui	a5,0x20006
    7d0c:	66878513          	addi	a0,a5,1640 # 20006668 <g_usbrx>
    7d10:	14b000ef          	jal	ra,865a <chry_ringbuffer_write>
    7d14:	200067b7          	lui	a5,0x20006
    7d18:	66878513          	addi	a0,a5,1640 # 20006668 <g_usbrx>
    7d1c:	113000ef          	jal	ra,862e <chry_ringbuffer_get_free>
    7d20:	872a                	mv	a4,a0
    7d22:	1ff00793          	li	a5,511
    7d26:	00e7fc63          	bgeu	a5,a4,7d3e <usbd_cdc_acm_bulk_out+0x54>
    7d2a:	20000613          	li	a2,512
    7d2e:	200067b7          	lui	a5,0x20006
    7d32:	1a078593          	addi	a1,a5,416 # 200061a0 <usb_tmpbuffer>
    7d36:	4511                	li	a0,4
    7d38:	013020ef          	jal	ra,a54a <usbd_ep_start_read>
    7d3c:	a031                	j	7d48 <usbd_cdc_acm_bulk_out+0x5e>
    7d3e:	200067b7          	lui	a5,0x20006
    7d42:	4705                	li	a4,1
    7d44:	5ce788a3          	sb	a4,1489(a5) # 200065d1 <usbrx_idle_flag>
    7d48:	0001                	nop
    7d4a:	40f2                	lw	ra,28(sp)
    7d4c:	4462                	lw	s0,24(sp)
    7d4e:	6105                	addi	sp,sp,32
    7d50:	8082                	ret

00007d52 <usbd_cdc_acm_bulk_in>:
    7d52:	1101                	addi	sp,sp,-32
    7d54:	ce06                	sw	ra,28(sp)
    7d56:	cc22                	sw	s0,24(sp)
    7d58:	1000                	addi	s0,sp,32
    7d5a:	87aa                	mv	a5,a0
    7d5c:	feb42423          	sw	a1,-24(s0)
    7d60:	fef407a3          	sb	a5,-17(s0)
    7d64:	fe842583          	lw	a1,-24(s0)
    7d68:	200067b7          	lui	a5,0x20006
    7d6c:	65878513          	addi	a0,a5,1624 # 20006658 <g_uartrx>
    7d70:	2b3000ef          	jal	ra,8822 <chry_ringbuffer_linear_read_done>
    7d74:	fe842783          	lw	a5,-24(s0)
    7d78:	1ff7f793          	andi	a5,a5,511
    7d7c:	eb99                	bnez	a5,7d92 <usbd_cdc_acm_bulk_in+0x40>
    7d7e:	fe842783          	lw	a5,-24(s0)
    7d82:	cb81                	beqz	a5,7d92 <usbd_cdc_acm_bulk_in+0x40>
    7d84:	4601                	li	a2,0
    7d86:	4581                	li	a1,0
    7d88:	08300513          	li	a0,131
    7d8c:	580020ef          	jal	ra,a30c <usbd_ep_start_write>
    7d90:	a039                	j	7d9e <usbd_cdc_acm_bulk_in+0x4c>
    7d92:	200067b7          	lui	a5,0x20006
    7d96:	4705                	li	a4,1
    7d98:	5ce78923          	sb	a4,1490(a5) # 200065d2 <usbtx_idle_flag>
    7d9c:	0001                	nop
    7d9e:	0001                	nop
    7da0:	40f2                	lw	ra,28(sp)
    7da2:	4462                	lw	s0,24(sp)
    7da4:	6105                	addi	sp,sp,32
    7da6:	8082                	ret

00007da8 <chry_dap_state_init>:
    7da8:	1141                	addi	sp,sp,-16
    7daa:	c622                	sw	s0,12(sp)
    7dac:	0800                	addi	s0,sp,16
    7dae:	200067b7          	lui	a5,0x20006
    7db2:	5a079923          	sh	zero,1458(a5) # 200065b2 <USB_RequestIndexI>
    7db6:	200067b7          	lui	a5,0x20006
    7dba:	5a079a23          	sh	zero,1460(a5) # 200065b4 <USB_RequestIndexO>
    7dbe:	200067b7          	lui	a5,0x20006
    7dc2:	5a079b23          	sh	zero,1462(a5) # 200065b6 <USB_RequestCountI>
    7dc6:	200067b7          	lui	a5,0x20006
    7dca:	5a079c23          	sh	zero,1464(a5) # 200065b8 <USB_RequestCountO>
    7dce:	200067b7          	lui	a5,0x20006
    7dd2:	4705                	li	a4,1
    7dd4:	5ae78d23          	sb	a4,1466(a5) # 200065ba <USB_RequestIdle>
    7dd8:	200067b7          	lui	a5,0x20006
    7ddc:	5a079e23          	sh	zero,1468(a5) # 200065bc <USB_ResponseIndexI>
    7de0:	200067b7          	lui	a5,0x20006
    7de4:	5a079f23          	sh	zero,1470(a5) # 200065be <USB_ResponseIndexO>
    7de8:	200067b7          	lui	a5,0x20006
    7dec:	5c079023          	sh	zero,1472(a5) # 200065c0 <USB_ResponseCountI>
    7df0:	200067b7          	lui	a5,0x20006
    7df4:	5c079123          	sh	zero,1474(a5) # 200065c2 <USB_ResponseCountO>
    7df8:	200067b7          	lui	a5,0x20006
    7dfc:	4705                	li	a4,1
    7dfe:	5ce78223          	sb	a4,1476(a5) # 200065c4 <USB_ResponseIdle>
    7e02:	0001                	nop
    7e04:	4432                	lw	s0,12(sp)
    7e06:	0141                	addi	sp,sp,16
    7e08:	8082                	ret

00007e0a <chry_dap_init>:
    7e0a:	1101                	addi	sp,sp,-32
    7e0c:	ce06                	sw	ra,28(sp)
    7e0e:	cc22                	sw	s0,24(sp)
    7e10:	1000                	addi	s0,sp,32
    7e12:	6609                	lui	a2,0x2
    7e14:	200027b7          	lui	a5,0x20002
    7e18:	1a078593          	addi	a1,a5,416 # 200021a0 <uartrx_ringbuffer>
    7e1c:	200067b7          	lui	a5,0x20006
    7e20:	65878513          	addi	a0,a5,1624 # 20006658 <g_uartrx>
    7e24:	772000ef          	jal	ra,8596 <chry_ringbuffer_init>
    7e28:	6609                	lui	a2,0x2
    7e2a:	200047b7          	lui	a5,0x20004
    7e2e:	1a078593          	addi	a1,a5,416 # 200041a0 <usbrx_ringbuffer>
    7e32:	200067b7          	lui	a5,0x20006
    7e36:	66878513          	addi	a0,a5,1640 # 20006668 <g_usbrx>
    7e3a:	75c000ef          	jal	ra,8596 <chry_ringbuffer_init>
    7e3e:	804fb0ef          	jal	ra,2e42 <DAP_Setup>
    7e42:	379d                	jal	7da8 <chry_dap_state_init>
    7e44:	1ffff7b7          	lui	a5,0x1ffff
    7e48:	7e878793          	addi	a5,a5,2024 # 1ffff7e8 <_data_lma+0x1fff1a18>
    7e4c:	4398                	lw	a4,0(a5)
    7e4e:	000207b7          	lui	a5,0x20
    7e52:	17fd                	addi	a5,a5,-1 # 1ffff <_data_lma+0x1222f>
    7e54:	8ff9                	and	a5,a5,a4
    7e56:	fef42623          	sw	a5,-20(s0)
    7e5a:	1ffff7b7          	lui	a5,0x1ffff
    7e5e:	7e878793          	addi	a5,a5,2024 # 1ffff7e8 <_data_lma+0x1fff1a18>
    7e62:	439c                	lw	a5,0(a5)
    7e64:	83f1                	srli	a5,a5,0x1c
    7e66:	07c6                	slli	a5,a5,0x11
    7e68:	fec42703          	lw	a4,-20(s0)
    7e6c:	8fd9                	or	a5,a5,a4
    7e6e:	fef42623          	sw	a5,-20(s0)
    7e72:	1ffff7b7          	lui	a5,0x1ffff
    7e76:	7ec78793          	addi	a5,a5,2028 # 1ffff7ec <_data_lma+0x1fff1a1c>
    7e7a:	439c                	lw	a5,0(a5)
    7e7c:	01579713          	slli	a4,a5,0x15
    7e80:	006007b7          	lui	a5,0x600
    7e84:	8ff9                	and	a5,a5,a4
    7e86:	fec42703          	lw	a4,-20(s0)
    7e8a:	8fd9                	or	a5,a5,a4
    7e8c:	fef42623          	sw	a5,-20(s0)
    7e90:	1ffff7b7          	lui	a5,0x1ffff
    7e94:	7f078793          	addi	a5,a5,2032 # 1ffff7f0 <_data_lma+0x1fff1a20>
    7e98:	439c                	lw	a5,0(a5)
    7e9a:	83bd                	srli	a5,a5,0xf
    7e9c:	07de                	slli	a5,a5,0x17
    7e9e:	fec42703          	lw	a4,-20(s0)
    7ea2:	8fd9                	or	a5,a5,a4
    7ea4:	fef42623          	sw	a5,-20(s0)
    7ea8:	fec42603          	lw	a2,-20(s0)
    7eac:	67b9                	lui	a5,0xe
    7eae:	a7878593          	addi	a1,a5,-1416 # da78 <__retarget_lock_release_recursive+0xc>
    7eb2:	200067b7          	lui	a5,0x20006
    7eb6:	6cc78513          	addi	a0,a5,1740 # 200066cc <UID_BUF.0>
    7eba:	1c2050ef          	jal	ra,d07c <siprintf>
    7ebe:	200067b7          	lui	a5,0x20006
    7ec2:	6cc78793          	addi	a5,a5,1740 # 200066cc <UID_BUF.0>
    7ec6:	00078783          	lb	a5,0(a5)
    7eca:	0ff7f713          	zext.b	a4,a5
    7ece:	200007b7          	lui	a5,0x20000
    7ed2:	00078793          	mv	a5,a5
    7ed6:	0ae78b23          	sb	a4,182(a5) # 200000b6 <cmsisdap_descriptor+0xb6>
    7eda:	200067b7          	lui	a5,0x20006
    7ede:	6cc78793          	addi	a5,a5,1740 # 200066cc <UID_BUF.0>
    7ee2:	00178783          	lb	a5,1(a5)
    7ee6:	0ff7f713          	zext.b	a4,a5
    7eea:	200007b7          	lui	a5,0x20000
    7eee:	00078793          	mv	a5,a5
    7ef2:	0ae78c23          	sb	a4,184(a5) # 200000b8 <cmsisdap_descriptor+0xb8>
    7ef6:	200067b7          	lui	a5,0x20006
    7efa:	6cc78793          	addi	a5,a5,1740 # 200066cc <UID_BUF.0>
    7efe:	00278783          	lb	a5,2(a5)
    7f02:	0ff7f713          	zext.b	a4,a5
    7f06:	200007b7          	lui	a5,0x20000
    7f0a:	00078793          	mv	a5,a5
    7f0e:	0ae78d23          	sb	a4,186(a5) # 200000ba <cmsisdap_descriptor+0xba>
    7f12:	200067b7          	lui	a5,0x20006
    7f16:	6cc78793          	addi	a5,a5,1740 # 200066cc <UID_BUF.0>
    7f1a:	00378783          	lb	a5,3(a5)
    7f1e:	0ff7f713          	zext.b	a4,a5
    7f22:	200007b7          	lui	a5,0x20000
    7f26:	00078793          	mv	a5,a5
    7f2a:	0ae78e23          	sb	a4,188(a5) # 200000bc <cmsisdap_descriptor+0xbc>
    7f2e:	200067b7          	lui	a5,0x20006
    7f32:	6cc78793          	addi	a5,a5,1740 # 200066cc <UID_BUF.0>
    7f36:	00478783          	lb	a5,4(a5)
    7f3a:	0ff7f713          	zext.b	a4,a5
    7f3e:	200007b7          	lui	a5,0x20000
    7f42:	00078793          	mv	a5,a5
    7f46:	0ae78f23          	sb	a4,190(a5) # 200000be <cmsisdap_descriptor+0xbe>
    7f4a:	200067b7          	lui	a5,0x20006
    7f4e:	6cc78793          	addi	a5,a5,1740 # 200066cc <UID_BUF.0>
    7f52:	00578783          	lb	a5,5(a5)
    7f56:	0ff7f713          	zext.b	a4,a5
    7f5a:	200007b7          	lui	a5,0x20000
    7f5e:	00078793          	mv	a5,a5
    7f62:	0ce78023          	sb	a4,192(a5) # 200000c0 <cmsisdap_descriptor+0xc0>
    7f66:	200067b7          	lui	a5,0x20006
    7f6a:	6cc78793          	addi	a5,a5,1740 # 200066cc <UID_BUF.0>
    7f6e:	00678783          	lb	a5,6(a5)
    7f72:	0ff7f713          	zext.b	a4,a5
    7f76:	200007b7          	lui	a5,0x20000
    7f7a:	00078793          	mv	a5,a5
    7f7e:	0ce78123          	sb	a4,194(a5) # 200000c2 <cmsisdap_descriptor+0xc2>
    7f82:	200067b7          	lui	a5,0x20006
    7f86:	6cc78793          	addi	a5,a5,1740 # 200066cc <UID_BUF.0>
    7f8a:	00778783          	lb	a5,7(a5)
    7f8e:	0ff7f713          	zext.b	a4,a5
    7f92:	200007b7          	lui	a5,0x20000
    7f96:	00078793          	mv	a5,a5
    7f9a:	0ce78223          	sb	a4,196(a5) # 200000c4 <cmsisdap_descriptor+0xc4>
    7f9e:	200007b7          	lui	a5,0x20000
    7fa2:	00078513          	mv	a0,a5
    7fa6:	5b7010ef          	jal	ra,9d5c <usbd_desc_register>
    7faa:	82818513          	addi	a0,gp,-2008 # 20000180 <bos_desc>
    7fae:	651010ef          	jal	ra,9dfe <usbd_bos_desc_register>
    7fb2:	82018513          	addi	a0,gp,-2016 # 20000178 <msosv2_desc>
    7fb6:	629010ef          	jal	ra,9dde <usbd_msosv2_desc_register>
    7fba:	200067b7          	lui	a5,0x20006
    7fbe:	67878513          	addi	a0,a5,1656 # 20006678 <dap_intf>
    7fc2:	65d010ef          	jal	ra,9e1e <usbd_add_interface>
    7fc6:	200007b7          	lui	a5,0x20000
    7fca:	15878513          	addi	a0,a5,344 # 20000158 <dap_out_ep>
    7fce:	6b7010ef          	jal	ra,9e84 <usbd_add_endpoint>
    7fd2:	200007b7          	lui	a5,0x20000
    7fd6:	16078513          	addi	a0,a5,352 # 20000160 <dap_in_ep>
    7fda:	6ab010ef          	jal	ra,9e84 <usbd_add_endpoint>
    7fde:	200067b7          	lui	a5,0x20006
    7fe2:	69478513          	addi	a0,a5,1684 # 20006694 <intf1>
    7fe6:	1c1000ef          	jal	ra,89a6 <usbd_cdc_acm_init_intf>
    7fea:	87aa                	mv	a5,a0
    7fec:	853e                	mv	a0,a5
    7fee:	631010ef          	jal	ra,9e1e <usbd_add_interface>
    7ff2:	200067b7          	lui	a5,0x20006
    7ff6:	6b078513          	addi	a0,a5,1712 # 200066b0 <intf2>
    7ffa:	1ad000ef          	jal	ra,89a6 <usbd_cdc_acm_init_intf>
    7ffe:	87aa                	mv	a5,a0
    8000:	853e                	mv	a0,a5
    8002:	61d010ef          	jal	ra,9e1e <usbd_add_interface>
    8006:	81018513          	addi	a0,gp,-2032 # 20000168 <cdc_out_ep>
    800a:	67b010ef          	jal	ra,9e84 <usbd_add_endpoint>
    800e:	81818513          	addi	a0,gp,-2024 # 20000170 <cdc_in_ep>
    8012:	673010ef          	jal	ra,9e84 <usbd_add_endpoint>
    8016:	74b010ef          	jal	ra,9f60 <usbd_initialize>
    801a:	0001                	nop
    801c:	40f2                	lw	ra,28(sp)
    801e:	4462                	lw	s0,24(sp)
    8020:	6105                	addi	sp,sp,32
    8022:	8082                	ret

00008024 <chry_dap_handle>:
    8024:	1101                	addi	sp,sp,-32
    8026:	ce06                	sw	ra,28(sp)
    8028:	cc22                	sw	s0,24(sp)
    802a:	1000                	addi	s0,sp,32
    802c:	ac51                	j	82c0 <chry_dap_handle+0x29c>
    802e:	200067b7          	lui	a5,0x20006
    8032:	5b47d783          	lhu	a5,1460(a5) # 200065b4 <USB_RequestIndexO>
    8036:	07c2                	slli	a5,a5,0x10
    8038:	83c1                	srli	a5,a5,0x10
    803a:	fef42623          	sw	a5,-20(s0)
    803e:	a825                	j	8076 <chry_dap_handle+0x52>
    8040:	200007b7          	lui	a5,0x20000
    8044:	1a078713          	addi	a4,a5,416 # 200001a0 <USB_Request>
    8048:	fec42783          	lw	a5,-20(s0)
    804c:	07a6                	slli	a5,a5,0x9
    804e:	97ba                	add	a5,a5,a4
    8050:	07f00713          	li	a4,127
    8054:	a398                	.2byte	0xa398
    8056:	fec42783          	lw	a5,-20(s0)
    805a:	0785                	addi	a5,a5,1
    805c:	fef42623          	sw	a5,-20(s0)
    8060:	fec42703          	lw	a4,-20(s0)
    8064:	47a1                	li	a5,8
    8066:	00f71463          	bne	a4,a5,806e <chry_dap_handle+0x4a>
    806a:	fe042623          	sw	zero,-20(s0)
    806e:	200067b7          	lui	a5,0x20006
    8072:	5b27d783          	lhu	a5,1458(a5) # 200065b2 <USB_RequestIndexI>
    8076:	200007b7          	lui	a5,0x20000
    807a:	1a078713          	addi	a4,a5,416 # 200001a0 <USB_Request>
    807e:	fec42783          	lw	a5,-20(s0)
    8082:	07a6                	slli	a5,a5,0x9
    8084:	97ba                	add	a5,a5,a4
    8086:	2398                	.2byte	0x2398
    8088:	07e00793          	li	a5,126
    808c:	faf70ae3          	beq	a4,a5,8040 <chry_dap_handle+0x1c>
    8090:	200067b7          	lui	a5,0x20006
    8094:	5b47d783          	lhu	a5,1460(a5) # 200065b4 <USB_RequestIndexO>
    8098:	07c2                	slli	a5,a5,0x10
    809a:	83c1                	srli	a5,a5,0x10
    809c:	00979713          	slli	a4,a5,0x9
    80a0:	200007b7          	lui	a5,0x20000
    80a4:	1a078793          	addi	a5,a5,416 # 200001a0 <USB_Request>
    80a8:	00f706b3          	add	a3,a4,a5
    80ac:	200067b7          	lui	a5,0x20006
    80b0:	5bc7d783          	lhu	a5,1468(a5) # 200065bc <USB_ResponseIndexI>
    80b4:	07c2                	slli	a5,a5,0x10
    80b6:	83c1                	srli	a5,a5,0x10
    80b8:	00979713          	slli	a4,a5,0x9
    80bc:	200017b7          	lui	a5,0x20001
    80c0:	1a078793          	addi	a5,a5,416 # 200011a0 <USB_Response>
    80c4:	97ba                	add	a5,a5,a4
    80c6:	85be                	mv	a1,a5
    80c8:	8536                	mv	a0,a3
    80ca:	c9bfa0ef          	jal	ra,2d64 <DAP_ExecuteCommand>
    80ce:	872a                	mv	a4,a0
    80d0:	200067b7          	lui	a5,0x20006
    80d4:	5bc7d783          	lhu	a5,1468(a5) # 200065bc <USB_ResponseIndexI>
    80d8:	07c2                	slli	a5,a5,0x10
    80da:	83c1                	srli	a5,a5,0x10
    80dc:	863e                	mv	a2,a5
    80de:	0742                	slli	a4,a4,0x10
    80e0:	8341                	srli	a4,a4,0x10
    80e2:	200067b7          	lui	a5,0x20006
    80e6:	64878693          	addi	a3,a5,1608 # 20006648 <USB_RespSize>
    80ea:	00161793          	slli	a5,a2,0x1
    80ee:	97b6                	add	a5,a5,a3
    80f0:	a39a                	.2byte	0xa39a
    80f2:	200067b7          	lui	a5,0x20006
    80f6:	5b47d783          	lhu	a5,1460(a5) # 200065b4 <USB_RequestIndexO>
    80fa:	07c2                	slli	a5,a5,0x10
    80fc:	83c1                	srli	a5,a5,0x10
    80fe:	0785                	addi	a5,a5,1
    8100:	01079713          	slli	a4,a5,0x10
    8104:	8341                	srli	a4,a4,0x10
    8106:	200067b7          	lui	a5,0x20006
    810a:	5ae79a23          	sh	a4,1460(a5) # 200065b4 <USB_RequestIndexO>
    810e:	200067b7          	lui	a5,0x20006
    8112:	5b47d783          	lhu	a5,1460(a5) # 200065b4 <USB_RequestIndexO>
    8116:	01079713          	slli	a4,a5,0x10
    811a:	8341                	srli	a4,a4,0x10
    811c:	47a1                	li	a5,8
    811e:	00f71663          	bne	a4,a5,812a <chry_dap_handle+0x106>
    8122:	200067b7          	lui	a5,0x20006
    8126:	5a079a23          	sh	zero,1460(a5) # 200065b4 <USB_RequestIndexO>
    812a:	200067b7          	lui	a5,0x20006
    812e:	5b87d783          	lhu	a5,1464(a5) # 200065b8 <USB_RequestCountO>
    8132:	07c2                	slli	a5,a5,0x10
    8134:	83c1                	srli	a5,a5,0x10
    8136:	0785                	addi	a5,a5,1
    8138:	01079713          	slli	a4,a5,0x10
    813c:	8341                	srli	a4,a4,0x10
    813e:	200067b7          	lui	a5,0x20006
    8142:	5ae79c23          	sh	a4,1464(a5) # 200065b8 <USB_RequestCountO>
    8146:	200067b7          	lui	a5,0x20006
    814a:	5ba7c783          	lbu	a5,1466(a5) # 200065ba <USB_RequestIdle>
    814e:	0ff7f793          	zext.b	a5,a5
    8152:	cfa9                	beqz	a5,81ac <chry_dap_handle+0x188>
    8154:	200067b7          	lui	a5,0x20006
    8158:	5b67d783          	lhu	a5,1462(a5) # 200065b6 <USB_RequestCountI>
    815c:	01079713          	slli	a4,a5,0x10
    8160:	8341                	srli	a4,a4,0x10
    8162:	200067b7          	lui	a5,0x20006
    8166:	5b87d783          	lhu	a5,1464(a5) # 200065b8 <USB_RequestCountO>
    816a:	07c2                	slli	a5,a5,0x10
    816c:	83c1                	srli	a5,a5,0x10
    816e:	40f707b3          	sub	a5,a4,a5
    8172:	01079713          	slli	a4,a5,0x10
    8176:	8341                	srli	a4,a4,0x10
    8178:	47a1                	li	a5,8
    817a:	02f70963          	beq	a4,a5,81ac <chry_dap_handle+0x188>
    817e:	200067b7          	lui	a5,0x20006
    8182:	5a078d23          	sb	zero,1466(a5) # 200065ba <USB_RequestIdle>
    8186:	200067b7          	lui	a5,0x20006
    818a:	5b27d783          	lhu	a5,1458(a5) # 200065b2 <USB_RequestIndexI>
    818e:	07c2                	slli	a5,a5,0x10
    8190:	83c1                	srli	a5,a5,0x10
    8192:	00979713          	slli	a4,a5,0x9
    8196:	200007b7          	lui	a5,0x20000
    819a:	1a078793          	addi	a5,a5,416 # 200001a0 <USB_Request>
    819e:	97ba                	add	a5,a5,a4
    81a0:	20000613          	li	a2,512
    81a4:	85be                	mv	a1,a5
    81a6:	4509                	li	a0,2
    81a8:	3a2020ef          	jal	ra,a54a <usbd_ep_start_read>
    81ac:	200067b7          	lui	a5,0x20006
    81b0:	5bc7d783          	lhu	a5,1468(a5) # 200065bc <USB_ResponseIndexI>
    81b4:	07c2                	slli	a5,a5,0x10
    81b6:	83c1                	srli	a5,a5,0x10
    81b8:	0785                	addi	a5,a5,1
    81ba:	01079713          	slli	a4,a5,0x10
    81be:	8341                	srli	a4,a4,0x10
    81c0:	200067b7          	lui	a5,0x20006
    81c4:	5ae79e23          	sh	a4,1468(a5) # 200065bc <USB_ResponseIndexI>
    81c8:	200067b7          	lui	a5,0x20006
    81cc:	5bc7d783          	lhu	a5,1468(a5) # 200065bc <USB_ResponseIndexI>
    81d0:	01079713          	slli	a4,a5,0x10
    81d4:	8341                	srli	a4,a4,0x10
    81d6:	47a1                	li	a5,8
    81d8:	00f71663          	bne	a4,a5,81e4 <chry_dap_handle+0x1c0>
    81dc:	200067b7          	lui	a5,0x20006
    81e0:	5a079e23          	sh	zero,1468(a5) # 200065bc <USB_ResponseIndexI>
    81e4:	200067b7          	lui	a5,0x20006
    81e8:	5c07d783          	lhu	a5,1472(a5) # 200065c0 <USB_ResponseCountI>
    81ec:	07c2                	slli	a5,a5,0x10
    81ee:	83c1                	srli	a5,a5,0x10
    81f0:	0785                	addi	a5,a5,1
    81f2:	01079713          	slli	a4,a5,0x10
    81f6:	8341                	srli	a4,a4,0x10
    81f8:	200067b7          	lui	a5,0x20006
    81fc:	5ce79023          	sh	a4,1472(a5) # 200065c0 <USB_ResponseCountI>
    8200:	200067b7          	lui	a5,0x20006
    8204:	5c47c783          	lbu	a5,1476(a5) # 200065c4 <USB_ResponseIdle>
    8208:	0ff7f793          	zext.b	a5,a5
    820c:	cbd5                	beqz	a5,82c0 <chry_dap_handle+0x29c>
    820e:	200067b7          	lui	a5,0x20006
    8212:	5c07d783          	lhu	a5,1472(a5) # 200065c0 <USB_ResponseCountI>
    8216:	01079713          	slli	a4,a5,0x10
    821a:	8341                	srli	a4,a4,0x10
    821c:	200067b7          	lui	a5,0x20006
    8220:	5c27d783          	lhu	a5,1474(a5) # 200065c2 <USB_ResponseCountO>
    8224:	07c2                	slli	a5,a5,0x10
    8226:	83c1                	srli	a5,a5,0x10
    8228:	08f70c63          	beq	a4,a5,82c0 <chry_dap_handle+0x29c>
    822c:	200067b7          	lui	a5,0x20006
    8230:	5be7d783          	lhu	a5,1470(a5) # 200065be <USB_ResponseIndexO>
    8234:	07c2                	slli	a5,a5,0x10
    8236:	83c1                	srli	a5,a5,0x10
    8238:	00178713          	addi	a4,a5,1
    823c:	01071693          	slli	a3,a4,0x10
    8240:	82c1                	srli	a3,a3,0x10
    8242:	20006737          	lui	a4,0x20006
    8246:	5ad71f23          	sh	a3,1470(a4) # 200065be <USB_ResponseIndexO>
    824a:	fef42623          	sw	a5,-20(s0)
    824e:	200067b7          	lui	a5,0x20006
    8252:	5be7d783          	lhu	a5,1470(a5) # 200065be <USB_ResponseIndexO>
    8256:	01079713          	slli	a4,a5,0x10
    825a:	8341                	srli	a4,a4,0x10
    825c:	47a1                	li	a5,8
    825e:	00f71663          	bne	a4,a5,826a <chry_dap_handle+0x246>
    8262:	200067b7          	lui	a5,0x20006
    8266:	5a079f23          	sh	zero,1470(a5) # 200065be <USB_ResponseIndexO>
    826a:	200067b7          	lui	a5,0x20006
    826e:	5c27d783          	lhu	a5,1474(a5) # 200065c2 <USB_ResponseCountO>
    8272:	07c2                	slli	a5,a5,0x10
    8274:	83c1                	srli	a5,a5,0x10
    8276:	0785                	addi	a5,a5,1
    8278:	01079713          	slli	a4,a5,0x10
    827c:	8341                	srli	a4,a4,0x10
    827e:	200067b7          	lui	a5,0x20006
    8282:	5ce79123          	sh	a4,1474(a5) # 200065c2 <USB_ResponseCountO>
    8286:	200067b7          	lui	a5,0x20006
    828a:	5c078223          	sb	zero,1476(a5) # 200065c4 <USB_ResponseIdle>
    828e:	fec42783          	lw	a5,-20(s0)
    8292:	00979713          	slli	a4,a5,0x9
    8296:	200017b7          	lui	a5,0x20001
    829a:	1a078793          	addi	a5,a5,416 # 200011a0 <USB_Response>
    829e:	00f706b3          	add	a3,a4,a5
    82a2:	200067b7          	lui	a5,0x20006
    82a6:	64878713          	addi	a4,a5,1608 # 20006648 <USB_RespSize>
    82aa:	fec42783          	lw	a5,-20(s0)
    82ae:	0786                	slli	a5,a5,0x1
    82b0:	97ba                	add	a5,a5,a4
    82b2:	239e                	.2byte	0x239e
    82b4:	863e                	mv	a2,a5
    82b6:	85b6                	mv	a1,a3
    82b8:	08100513          	li	a0,129
    82bc:	050020ef          	jal	ra,a30c <usbd_ep_start_write>
    82c0:	200067b7          	lui	a5,0x20006
    82c4:	5b67d783          	lhu	a5,1462(a5) # 200065b6 <USB_RequestCountI>
    82c8:	01079713          	slli	a4,a5,0x10
    82cc:	8341                	srli	a4,a4,0x10
    82ce:	200067b7          	lui	a5,0x20006
    82d2:	5b87d783          	lhu	a5,1464(a5) # 200065b8 <USB_RequestCountO>
    82d6:	07c2                	slli	a5,a5,0x10
    82d8:	83c1                	srli	a5,a5,0x10
    82da:	d4f71ae3          	bne	a4,a5,802e <chry_dap_handle+0xa>
    82de:	0001                	nop
    82e0:	0001                	nop
    82e2:	40f2                	lw	ra,28(sp)
    82e4:	4462                	lw	s0,24(sp)
    82e6:	6105                	addi	sp,sp,32
    82e8:	8082                	ret

000082ea <usbd_cdc_acm_set_line_coding>:
    82ea:	1101                	addi	sp,sp,-32
    82ec:	ce06                	sw	ra,28(sp)
    82ee:	cc22                	sw	s0,24(sp)
    82f0:	1000                	addi	s0,sp,32
    82f2:	87aa                	mv	a5,a0
    82f4:	feb42423          	sw	a1,-24(s0)
    82f8:	fef407a3          	sb	a5,-17(s0)
    82fc:	461d                	li	a2,7
    82fe:	200067b7          	lui	a5,0x20006
    8302:	5c878593          	addi	a1,a5,1480 # 200065c8 <g_cdc_lincoding>
    8306:	fe842503          	lw	a0,-24(s0)
    830a:	54f040ef          	jal	ra,d058 <memcmp>
    830e:	87aa                	mv	a5,a0
    8310:	c7a9                	beqz	a5,835a <usbd_cdc_acm_set_line_coding+0x70>
    8312:	200067b7          	lui	a5,0x20006
    8316:	5c878793          	addi	a5,a5,1480 # 200065c8 <g_cdc_lincoding>
    831a:	fe842703          	lw	a4,-24(s0)
    831e:	2314                	.2byte	0x2314
    8320:	88b6                	mv	a7,a3
    8322:	3314                	.2byte	0x3314
    8324:	8836                	mv	a6,a3
    8326:	2334                	.2byte	0x2334
    8328:	8536                	mv	a0,a3
    832a:	3334                	.2byte	0x3334
    832c:	85b6                	mv	a1,a3
    832e:	2354                	.2byte	0x2354
    8330:	8636                	mv	a2,a3
    8332:	3354                	.2byte	0x3354
    8334:	2378                	.2byte	0x2378
    8336:	01178023          	sb	a7,0(a5)
    833a:	010780a3          	sb	a6,1(a5)
    833e:	a3a8                	.2byte	0xa3a8
    8340:	b3ac                	.2byte	0xb3ac
    8342:	a3d0                	.2byte	0xa3d0
    8344:	b3d4                	.2byte	0xb3d4
    8346:	a3f8                	.2byte	0xa3f8
    8348:	200067b7          	lui	a5,0x20006
    834c:	4705                	li	a4,1
    834e:	5ce787a3          	sb	a4,1487(a5) # 200065cf <config_uart>
    8352:	200067b7          	lui	a5,0x20006
    8356:	5c078823          	sb	zero,1488(a5) # 200065d0 <config_uart_transfer>
    835a:	0001                	nop
    835c:	40f2                	lw	ra,28(sp)
    835e:	4462                	lw	s0,24(sp)
    8360:	6105                	addi	sp,sp,32
    8362:	8082                	ret

00008364 <usbd_cdc_acm_get_line_coding>:
    8364:	1101                	addi	sp,sp,-32
    8366:	ce22                	sw	s0,28(sp)
    8368:	1000                	addi	s0,sp,32
    836a:	87aa                	mv	a5,a0
    836c:	feb42423          	sw	a1,-24(s0)
    8370:	fef407a3          	sb	a5,-17(s0)
    8374:	fe842783          	lw	a5,-24(s0)
    8378:	20006737          	lui	a4,0x20006
    837c:	5c870713          	addi	a4,a4,1480 # 200065c8 <g_cdc_lincoding>
    8380:	2314                	.2byte	0x2314
    8382:	88b6                	mv	a7,a3
    8384:	3314                	.2byte	0x3314
    8386:	8836                	mv	a6,a3
    8388:	2334                	.2byte	0x2334
    838a:	8536                	mv	a0,a3
    838c:	3334                	.2byte	0x3334
    838e:	85b6                	mv	a1,a3
    8390:	2354                	.2byte	0x2354
    8392:	8636                	mv	a2,a3
    8394:	3354                	.2byte	0x3354
    8396:	2378                	.2byte	0x2378
    8398:	01178023          	sb	a7,0(a5)
    839c:	010780a3          	sb	a6,1(a5)
    83a0:	a3a8                	.2byte	0xa3a8
    83a2:	b3ac                	.2byte	0xb3ac
    83a4:	a3d0                	.2byte	0xa3d0
    83a6:	b3d4                	.2byte	0xb3d4
    83a8:	a3f8                	.2byte	0xa3f8
    83aa:	0001                	nop
    83ac:	4472                	lw	s0,28(sp)
    83ae:	6105                	addi	sp,sp,32
    83b0:	8082                	ret

000083b2 <chry_dap_usb2uart_handle>:
    83b2:	1101                	addi	sp,sp,-32
    83b4:	ce06                	sw	ra,28(sp)
    83b6:	cc22                	sw	s0,24(sp)
    83b8:	1000                	addi	s0,sp,32
    83ba:	200067b7          	lui	a5,0x20006
    83be:	5cf7c783          	lbu	a5,1487(a5) # 200065cf <config_uart>
    83c2:	0ff7f793          	zext.b	a5,a5
    83c6:	cb95                	beqz	a5,83fa <chry_dap_usb2uart_handle+0x48>
    83c8:	200067b7          	lui	a5,0x20006
    83cc:	5c0787a3          	sb	zero,1487(a5) # 200065cf <config_uart>
    83d0:	200067b7          	lui	a5,0x20006
    83d4:	5c878513          	addi	a0,a5,1480 # 200065c8 <g_cdc_lincoding>
    83d8:	43d040ef          	jal	ra,d014 <chry_dap_usb2uart_uart_config_callback>
    83dc:	200067b7          	lui	a5,0x20006
    83e0:	4705                	li	a4,1
    83e2:	5ce78923          	sb	a4,1490(a5) # 200065d2 <usbtx_idle_flag>
    83e6:	200067b7          	lui	a5,0x20006
    83ea:	4705                	li	a4,1
    83ec:	5ce789a3          	sb	a4,1491(a5) # 200065d3 <uarttx_idle_flag>
    83f0:	200067b7          	lui	a5,0x20006
    83f4:	4705                	li	a4,1
    83f6:	5ce78823          	sb	a4,1488(a5) # 200065d0 <config_uart_transfer>
    83fa:	200067b7          	lui	a5,0x20006
    83fe:	5d07c783          	lbu	a5,1488(a5) # 200065d0 <config_uart_transfer>
    8402:	0ff7f793          	zext.b	a5,a5
    8406:	18078363          	beqz	a5,858c <chry_dap_usb2uart_handle+0x1da>
    840a:	400207b7          	lui	a5,0x40020
    840e:	03078513          	addi	a0,a5,48 # 40020030 <_eusrstack+0x20018030>
    8412:	4f0030ef          	jal	ra,b902 <DMA_GetCurrDataCounter>
    8416:	87aa                	mv	a5,a0
    8418:	873e                	mv	a4,a5
    841a:	1ff00793          	li	a5,511
    841e:	06e7e463          	bltu	a5,a4,8486 <chry_dap_usb2uart_handle+0xd4>
    8422:	4581                	li	a1,0
    8424:	400207b7          	lui	a5,0x40020
    8428:	03078513          	addi	a0,a5,48 # 40020030 <_eusrstack+0x20018030>
    842c:	474030ef          	jal	ra,b8a0 <DMA_Cmd>
    8430:	400207b7          	lui	a5,0x40020
    8434:	03078513          	addi	a0,a5,48 # 40020030 <_eusrstack+0x20018030>
    8438:	4ca030ef          	jal	ra,b902 <DMA_GetCurrDataCounter>
    843c:	87aa                	mv	a5,a0
    843e:	873e                	mv	a4,a5
    8440:	20000793          	li	a5,512
    8444:	8f99                	sub	a5,a5,a4
    8446:	863e                	mv	a2,a5
    8448:	200077b7          	lui	a5,0x20007
    844c:	97478593          	addi	a1,a5,-1676 # 20006974 <RxBuffer1>
    8450:	200067b7          	lui	a5,0x20006
    8454:	65878513          	addi	a0,a5,1624 # 20006658 <g_uartrx>
    8458:	2409                	jal	865a <chry_ringbuffer_write>
    845a:	20000593          	li	a1,512
    845e:	400207b7          	lui	a5,0x40020
    8462:	03078513          	addi	a0,a5,48 # 40020030 <_eusrstack+0x20018030>
    8466:	47a030ef          	jal	ra,b8e0 <DMA_SetCurrDataCounter>
    846a:	45a1                	li	a1,8
    846c:	400057b7          	lui	a5,0x40005
    8470:	80078513          	addi	a0,a5,-2048 # 40004800 <_eusrstack+0x1fffc800>
    8474:	212040ef          	jal	ra,c686 <USART_ClearFlag>
    8478:	4585                	li	a1,1
    847a:	400207b7          	lui	a5,0x40020
    847e:	03078513          	addi	a0,a5,48 # 40020030 <_eusrstack+0x20018030>
    8482:	41e030ef          	jal	ra,b8a0 <DMA_Cmd>
    8486:	200067b7          	lui	a5,0x20006
    848a:	5d27c783          	lbu	a5,1490(a5) # 200065d2 <usbtx_idle_flag>
    848e:	0ff7f793          	zext.b	a5,a5
    8492:	cf9d                	beqz	a5,84d0 <chry_dap_usb2uart_handle+0x11e>
    8494:	200067b7          	lui	a5,0x20006
    8498:	65878513          	addi	a0,a5,1624 # 20006658 <g_uartrx>
    849c:	2a85                	jal	860c <chry_ringbuffer_get_used>
    849e:	87aa                	mv	a5,a0
    84a0:	cb85                	beqz	a5,84d0 <chry_dap_usb2uart_handle+0x11e>
    84a2:	200067b7          	lui	a5,0x20006
    84a6:	5c078923          	sb	zero,1490(a5) # 200065d2 <usbtx_idle_flag>
    84aa:	fe440793          	addi	a5,s0,-28
    84ae:	85be                	mv	a1,a5
    84b0:	200067b7          	lui	a5,0x20006
    84b4:	65878513          	addi	a0,a5,1624 # 20006658 <g_uartrx>
    84b8:	2cd1                	jal	878c <chry_ringbuffer_linear_read_setup>
    84ba:	fea42423          	sw	a0,-24(s0)
    84be:	fe442783          	lw	a5,-28(s0)
    84c2:	863e                	mv	a2,a5
    84c4:	fe842583          	lw	a1,-24(s0)
    84c8:	08300513          	li	a0,131
    84cc:	641010ef          	jal	ra,a30c <usbd_ep_start_write>
    84d0:	200067b7          	lui	a5,0x20006
    84d4:	66878513          	addi	a0,a5,1640 # 20006668 <g_usbrx>
    84d8:	2a15                	jal	860c <chry_ringbuffer_get_used>
    84da:	87aa                	mv	a5,a0
    84dc:	cbad                	beqz	a5,854e <chry_dap_usb2uart_handle+0x19c>
    84de:	fe440793          	addi	a5,s0,-28
    84e2:	85be                	mv	a1,a5
    84e4:	200067b7          	lui	a5,0x20006
    84e8:	66878513          	addi	a0,a5,1640 # 20006668 <g_usbrx>
    84ec:	2445                	jal	878c <chry_ringbuffer_linear_read_setup>
    84ee:	fea42423          	sw	a0,-24(s0)
    84f2:	fe042623          	sw	zero,-20(s0)
    84f6:	a835                	j	8532 <chry_dap_usb2uart_handle+0x180>
    84f8:	0001                	nop
    84fa:	08000593          	li	a1,128
    84fe:	400057b7          	lui	a5,0x40005
    8502:	80078513          	addi	a0,a5,-2048 # 40004800 <_eusrstack+0x1fffc800>
    8506:	13e040ef          	jal	ra,c644 <USART_GetFlagStatus>
    850a:	87aa                	mv	a5,a0
    850c:	d7fd                	beqz	a5,84fa <chry_dap_usb2uart_handle+0x148>
    850e:	fe842703          	lw	a4,-24(s0)
    8512:	fec42783          	lw	a5,-20(s0)
    8516:	97ba                	add	a5,a5,a4
    8518:	239c                	.2byte	0x239c
    851a:	85be                	mv	a1,a5
    851c:	400057b7          	lui	a5,0x40005
    8520:	80078513          	addi	a0,a5,-2048 # 40004800 <_eusrstack+0x1fffc800>
    8524:	0f4040ef          	jal	ra,c618 <USART_SendData>
    8528:	fec42783          	lw	a5,-20(s0)
    852c:	0785                	addi	a5,a5,1
    852e:	fef42623          	sw	a5,-20(s0)
    8532:	fe442783          	lw	a5,-28(s0)
    8536:	fec42703          	lw	a4,-20(s0)
    853a:	faf76fe3          	bltu	a4,a5,84f8 <chry_dap_usb2uart_handle+0x146>
    853e:	fe442783          	lw	a5,-28(s0)
    8542:	85be                	mv	a1,a5
    8544:	200067b7          	lui	a5,0x20006
    8548:	66878513          	addi	a0,a5,1640 # 20006668 <g_usbrx>
    854c:	2cd9                	jal	8822 <chry_ringbuffer_linear_read_done>
    854e:	200067b7          	lui	a5,0x20006
    8552:	5d17c783          	lbu	a5,1489(a5) # 200065d1 <usbrx_idle_flag>
    8556:	0ff7f793          	zext.b	a5,a5
    855a:	cb95                	beqz	a5,858e <chry_dap_usb2uart_handle+0x1dc>
    855c:	200067b7          	lui	a5,0x20006
    8560:	66878513          	addi	a0,a5,1640 # 20006668 <g_usbrx>
    8564:	20e9                	jal	862e <chry_ringbuffer_get_free>
    8566:	872a                	mv	a4,a0
    8568:	1ff00793          	li	a5,511
    856c:	02e7f163          	bgeu	a5,a4,858e <chry_dap_usb2uart_handle+0x1dc>
    8570:	200067b7          	lui	a5,0x20006
    8574:	5c0788a3          	sb	zero,1489(a5) # 200065d1 <usbrx_idle_flag>
    8578:	20000613          	li	a2,512
    857c:	200067b7          	lui	a5,0x20006
    8580:	1a078593          	addi	a1,a5,416 # 200061a0 <usb_tmpbuffer>
    8584:	4511                	li	a0,4
    8586:	7c5010ef          	jal	ra,a54a <usbd_ep_start_read>
    858a:	a011                	j	858e <chry_dap_usb2uart_handle+0x1dc>
    858c:	0001                	nop
    858e:	40f2                	lw	ra,28(sp)
    8590:	4462                	lw	s0,24(sp)
    8592:	6105                	addi	sp,sp,32
    8594:	8082                	ret

00008596 <chry_ringbuffer_init>:
    8596:	1101                	addi	sp,sp,-32
    8598:	ce22                	sw	s0,28(sp)
    859a:	1000                	addi	s0,sp,32
    859c:	fea42623          	sw	a0,-20(s0)
    85a0:	feb42423          	sw	a1,-24(s0)
    85a4:	fec42223          	sw	a2,-28(s0)
    85a8:	fec42783          	lw	a5,-20(s0)
    85ac:	e399                	bnez	a5,85b2 <chry_ringbuffer_init+0x1c>
    85ae:	57fd                	li	a5,-1
    85b0:	a891                	j	8604 <chry_ringbuffer_init+0x6e>
    85b2:	fe842783          	lw	a5,-24(s0)
    85b6:	e399                	bnez	a5,85bc <chry_ringbuffer_init+0x26>
    85b8:	57fd                	li	a5,-1
    85ba:	a0a9                	j	8604 <chry_ringbuffer_init+0x6e>
    85bc:	fe442703          	lw	a4,-28(s0)
    85c0:	4785                	li	a5,1
    85c2:	00e7fa63          	bgeu	a5,a4,85d6 <chry_ringbuffer_init+0x40>
    85c6:	fe442783          	lw	a5,-28(s0)
    85ca:	fff78713          	addi	a4,a5,-1
    85ce:	fe442783          	lw	a5,-28(s0)
    85d2:	8ff9                	and	a5,a5,a4
    85d4:	c399                	beqz	a5,85da <chry_ringbuffer_init+0x44>
    85d6:	57fd                	li	a5,-1
    85d8:	a035                	j	8604 <chry_ringbuffer_init+0x6e>
    85da:	fec42783          	lw	a5,-20(s0)
    85de:	0007a023          	sw	zero,0(a5)
    85e2:	fec42783          	lw	a5,-20(s0)
    85e6:	0007a223          	sw	zero,4(a5)
    85ea:	fe442783          	lw	a5,-28(s0)
    85ee:	fff78713          	addi	a4,a5,-1
    85f2:	fec42783          	lw	a5,-20(s0)
    85f6:	c798                	sw	a4,8(a5)
    85f8:	fec42783          	lw	a5,-20(s0)
    85fc:	fe842703          	lw	a4,-24(s0)
    8600:	c7d8                	sw	a4,12(a5)
    8602:	4781                	li	a5,0
    8604:	853e                	mv	a0,a5
    8606:	4472                	lw	s0,28(sp)
    8608:	6105                	addi	sp,sp,32
    860a:	8082                	ret

0000860c <chry_ringbuffer_get_used>:
    860c:	1101                	addi	sp,sp,-32
    860e:	ce22                	sw	s0,28(sp)
    8610:	1000                	addi	s0,sp,32
    8612:	fea42623          	sw	a0,-20(s0)
    8616:	fec42783          	lw	a5,-20(s0)
    861a:	4398                	lw	a4,0(a5)
    861c:	fec42783          	lw	a5,-20(s0)
    8620:	43dc                	lw	a5,4(a5)
    8622:	40f707b3          	sub	a5,a4,a5
    8626:	853e                	mv	a0,a5
    8628:	4472                	lw	s0,28(sp)
    862a:	6105                	addi	sp,sp,32
    862c:	8082                	ret

0000862e <chry_ringbuffer_get_free>:
    862e:	1101                	addi	sp,sp,-32
    8630:	ce22                	sw	s0,28(sp)
    8632:	1000                	addi	s0,sp,32
    8634:	fea42623          	sw	a0,-20(s0)
    8638:	fec42783          	lw	a5,-20(s0)
    863c:	4798                	lw	a4,8(a5)
    863e:	fec42783          	lw	a5,-20(s0)
    8642:	43d4                	lw	a3,4(a5)
    8644:	fec42783          	lw	a5,-20(s0)
    8648:	439c                	lw	a5,0(a5)
    864a:	40f687b3          	sub	a5,a3,a5
    864e:	97ba                	add	a5,a5,a4
    8650:	0785                	addi	a5,a5,1
    8652:	853e                	mv	a0,a5
    8654:	4472                	lw	s0,28(sp)
    8656:	6105                	addi	sp,sp,32
    8658:	8082                	ret

0000865a <chry_ringbuffer_write>:
    865a:	7179                	addi	sp,sp,-48
    865c:	d606                	sw	ra,44(sp)
    865e:	d422                	sw	s0,40(sp)
    8660:	1800                	addi	s0,sp,48
    8662:	fca42e23          	sw	a0,-36(s0)
    8666:	fcb42c23          	sw	a1,-40(s0)
    866a:	fcc42a23          	sw	a2,-44(s0)
    866e:	fdc42783          	lw	a5,-36(s0)
    8672:	4798                	lw	a4,8(a5)
    8674:	fdc42783          	lw	a5,-36(s0)
    8678:	43d4                	lw	a3,4(a5)
    867a:	fdc42783          	lw	a5,-36(s0)
    867e:	439c                	lw	a5,0(a5)
    8680:	40f687b3          	sub	a5,a3,a5
    8684:	97ba                	add	a5,a5,a4
    8686:	0785                	addi	a5,a5,1
    8688:	fef42623          	sw	a5,-20(s0)
    868c:	fd442703          	lw	a4,-44(s0)
    8690:	fec42783          	lw	a5,-20(s0)
    8694:	00e7f663          	bgeu	a5,a4,86a0 <chry_ringbuffer_write+0x46>
    8698:	fec42783          	lw	a5,-20(s0)
    869c:	fcf42a23          	sw	a5,-44(s0)
    86a0:	fdc42783          	lw	a5,-36(s0)
    86a4:	4398                	lw	a4,0(a5)
    86a6:	fdc42783          	lw	a5,-36(s0)
    86aa:	479c                	lw	a5,8(a5)
    86ac:	8ff9                	and	a5,a5,a4
    86ae:	fef42423          	sw	a5,-24(s0)
    86b2:	fdc42783          	lw	a5,-36(s0)
    86b6:	4798                	lw	a4,8(a5)
    86b8:	fe842783          	lw	a5,-24(s0)
    86bc:	40f707b3          	sub	a5,a4,a5
    86c0:	0785                	addi	a5,a5,1
    86c2:	fef42223          	sw	a5,-28(s0)
    86c6:	fd442703          	lw	a4,-44(s0)
    86ca:	fe442783          	lw	a5,-28(s0)
    86ce:	00f77363          	bgeu	a4,a5,86d4 <chry_ringbuffer_write+0x7a>
    86d2:	87ba                	mv	a5,a4
    86d4:	fef42223          	sw	a5,-28(s0)
    86d8:	fdc42783          	lw	a5,-36(s0)
    86dc:	47d8                	lw	a4,12(a5)
    86de:	fe842783          	lw	a5,-24(s0)
    86e2:	97ba                	add	a5,a5,a4
    86e4:	fe442603          	lw	a2,-28(s0)
    86e8:	fd842583          	lw	a1,-40(s0)
    86ec:	853e                	mv	a0,a5
    86ee:	b13f70ef          	jal	ra,200 <memcpy>
    86f2:	fdc42783          	lw	a5,-36(s0)
    86f6:	47d4                	lw	a3,12(a5)
    86f8:	fd842703          	lw	a4,-40(s0)
    86fc:	fe442783          	lw	a5,-28(s0)
    8700:	00f705b3          	add	a1,a4,a5
    8704:	fd442703          	lw	a4,-44(s0)
    8708:	fe442783          	lw	a5,-28(s0)
    870c:	40f707b3          	sub	a5,a4,a5
    8710:	863e                	mv	a2,a5
    8712:	8536                	mv	a0,a3
    8714:	aedf70ef          	jal	ra,200 <memcpy>
    8718:	fdc42783          	lw	a5,-36(s0)
    871c:	4398                	lw	a4,0(a5)
    871e:	fd442783          	lw	a5,-44(s0)
    8722:	973e                	add	a4,a4,a5
    8724:	fdc42783          	lw	a5,-36(s0)
    8728:	c398                	sw	a4,0(a5)
    872a:	fd442783          	lw	a5,-44(s0)
    872e:	853e                	mv	a0,a5
    8730:	50b2                	lw	ra,44(sp)
    8732:	5422                	lw	s0,40(sp)
    8734:	6145                	addi	sp,sp,48
    8736:	8082                	ret

00008738 <chry_ringbuffer_drop>:
    8738:	7179                	addi	sp,sp,-48
    873a:	d622                	sw	s0,44(sp)
    873c:	1800                	addi	s0,sp,48
    873e:	fca42e23          	sw	a0,-36(s0)
    8742:	fcb42c23          	sw	a1,-40(s0)
    8746:	fdc42783          	lw	a5,-36(s0)
    874a:	4398                	lw	a4,0(a5)
    874c:	fdc42783          	lw	a5,-36(s0)
    8750:	43dc                	lw	a5,4(a5)
    8752:	40f707b3          	sub	a5,a4,a5
    8756:	fef42623          	sw	a5,-20(s0)
    875a:	fd842703          	lw	a4,-40(s0)
    875e:	fec42783          	lw	a5,-20(s0)
    8762:	00e7f663          	bgeu	a5,a4,876e <chry_ringbuffer_drop+0x36>
    8766:	fec42783          	lw	a5,-20(s0)
    876a:	fcf42c23          	sw	a5,-40(s0)
    876e:	fdc42783          	lw	a5,-36(s0)
    8772:	43d8                	lw	a4,4(a5)
    8774:	fd842783          	lw	a5,-40(s0)
    8778:	973e                	add	a4,a4,a5
    877a:	fdc42783          	lw	a5,-36(s0)
    877e:	c3d8                	sw	a4,4(a5)
    8780:	fd842783          	lw	a5,-40(s0)
    8784:	853e                	mv	a0,a5
    8786:	5432                	lw	s0,44(sp)
    8788:	6145                	addi	sp,sp,48
    878a:	8082                	ret

0000878c <chry_ringbuffer_linear_read_setup>:
    878c:	7179                	addi	sp,sp,-48
    878e:	d622                	sw	s0,44(sp)
    8790:	1800                	addi	s0,sp,48
    8792:	fca42e23          	sw	a0,-36(s0)
    8796:	fcb42c23          	sw	a1,-40(s0)
    879a:	fdc42783          	lw	a5,-36(s0)
    879e:	4398                	lw	a4,0(a5)
    87a0:	fdc42783          	lw	a5,-36(s0)
    87a4:	43dc                	lw	a5,4(a5)
    87a6:	40f707b3          	sub	a5,a4,a5
    87aa:	fef42623          	sw	a5,-20(s0)
    87ae:	fdc42783          	lw	a5,-36(s0)
    87b2:	43d8                	lw	a4,4(a5)
    87b4:	fdc42783          	lw	a5,-36(s0)
    87b8:	479c                	lw	a5,8(a5)
    87ba:	8ff9                	and	a5,a5,a4
    87bc:	fef42423          	sw	a5,-24(s0)
    87c0:	fdc42783          	lw	a5,-36(s0)
    87c4:	4798                	lw	a4,8(a5)
    87c6:	fe842783          	lw	a5,-24(s0)
    87ca:	40f707b3          	sub	a5,a4,a5
    87ce:	0785                	addi	a5,a5,1
    87d0:	fef42223          	sw	a5,-28(s0)
    87d4:	fec42703          	lw	a4,-20(s0)
    87d8:	fe442783          	lw	a5,-28(s0)
    87dc:	00f77363          	bgeu	a4,a5,87e2 <chry_ringbuffer_linear_read_setup+0x56>
    87e0:	87ba                	mv	a5,a4
    87e2:	fef42223          	sw	a5,-28(s0)
    87e6:	fe442783          	lw	a5,-28(s0)
    87ea:	cf89                	beqz	a5,8804 <chry_ringbuffer_linear_read_setup+0x78>
    87ec:	fd842783          	lw	a5,-40(s0)
    87f0:	fe442703          	lw	a4,-28(s0)
    87f4:	c398                	sw	a4,0(a5)
    87f6:	fdc42783          	lw	a5,-36(s0)
    87fa:	47d8                	lw	a4,12(a5)
    87fc:	fe842783          	lw	a5,-24(s0)
    8800:	97ba                	add	a5,a5,a4
    8802:	a821                	j	881a <chry_ringbuffer_linear_read_setup+0x8e>
    8804:	fec42703          	lw	a4,-20(s0)
    8808:	fe442783          	lw	a5,-28(s0)
    880c:	8f1d                	sub	a4,a4,a5
    880e:	fd842783          	lw	a5,-40(s0)
    8812:	c398                	sw	a4,0(a5)
    8814:	fdc42783          	lw	a5,-36(s0)
    8818:	47dc                	lw	a5,12(a5)
    881a:	853e                	mv	a0,a5
    881c:	5432                	lw	s0,44(sp)
    881e:	6145                	addi	sp,sp,48
    8820:	8082                	ret

00008822 <chry_ringbuffer_linear_read_done>:
    8822:	1101                	addi	sp,sp,-32
    8824:	ce06                	sw	ra,28(sp)
    8826:	cc22                	sw	s0,24(sp)
    8828:	1000                	addi	s0,sp,32
    882a:	fea42623          	sw	a0,-20(s0)
    882e:	feb42423          	sw	a1,-24(s0)
    8832:	fe842583          	lw	a1,-24(s0)
    8836:	fec42503          	lw	a0,-20(s0)
    883a:	3dfd                	jal	8738 <chry_ringbuffer_drop>
    883c:	87aa                	mv	a5,a0
    883e:	853e                	mv	a0,a5
    8840:	40f2                	lw	ra,28(sp)
    8842:	4462                	lw	s0,24(sp)
    8844:	6105                	addi	sp,sp,32
    8846:	8082                	ret

00008848 <cdc_acm_class_interface_request_handler>:
    8848:	7179                	addi	sp,sp,-48
    884a:	d606                	sw	ra,44(sp)
    884c:	d422                	sw	s0,40(sp)
    884e:	1800                	addi	s0,sp,48
    8850:	fca42e23          	sw	a0,-36(s0)
    8854:	fcb42c23          	sw	a1,-40(s0)
    8858:	fcc42a23          	sw	a2,-44(s0)
    885c:	fdc42783          	lw	a5,-36(s0)
    8860:	23d8                	.2byte	0x23d8
    8862:	33dc                	.2byte	0x33dc
    8864:	07a2                	slli	a5,a5,0x8
    8866:	8fd9                	or	a5,a5,a4
    8868:	07c2                	slli	a5,a5,0x10
    886a:	83c1                	srli	a5,a5,0x10
    886c:	fef407a3          	sb	a5,-17(s0)
    8870:	fdc42783          	lw	a5,-36(s0)
    8874:	339c                	.2byte	0x339c
    8876:	02300713          	li	a4,35
    887a:	10e78963          	beq	a5,a4,898c <cdc_acm_class_interface_request_handler+0x144>
    887e:	02300713          	li	a4,35
    8882:	10f74a63          	blt	a4,a5,8996 <cdc_acm_class_interface_request_handler+0x14e>
    8886:	02200713          	li	a4,34
    888a:	04e78b63          	beq	a5,a4,88e0 <cdc_acm_class_interface_request_handler+0x98>
    888e:	02200713          	li	a4,34
    8892:	10f74263          	blt	a4,a5,8996 <cdc_acm_class_interface_request_handler+0x14e>
    8896:	02000713          	li	a4,32
    889a:	00e78763          	beq	a5,a4,88a8 <cdc_acm_class_interface_request_handler+0x60>
    889e:	02100713          	li	a4,33
    88a2:	08e78863          	beq	a5,a4,8932 <cdc_acm_class_interface_request_handler+0xea>
    88a6:	a8c5                	j	8996 <cdc_acm_class_interface_request_handler+0x14e>
    88a8:	fd842783          	lw	a5,-40(s0)
    88ac:	4394                	lw	a3,0(a5)
    88ae:	fdc42783          	lw	a5,-36(s0)
    88b2:	23f8                	.2byte	0x23f8
    88b4:	33fc                	.2byte	0x33fc
    88b6:	07a2                	slli	a5,a5,0x8
    88b8:	8fd9                	or	a5,a5,a4
    88ba:	07c2                	slli	a5,a5,0x10
    88bc:	83c1                	srli	a5,a5,0x10
    88be:	873e                	mv	a4,a5
    88c0:	fe440793          	addi	a5,s0,-28
    88c4:	863a                	mv	a2,a4
    88c6:	85b6                	mv	a1,a3
    88c8:	853e                	mv	a0,a5
    88ca:	937f70ef          	jal	ra,200 <memcpy>
    88ce:	fe440713          	addi	a4,s0,-28
    88d2:	fef44783          	lbu	a5,-17(s0)
    88d6:	85ba                	mv	a1,a4
    88d8:	853e                	mv	a0,a5
    88da:	a11ff0ef          	jal	ra,82ea <usbd_cdc_acm_set_line_coding>
    88de:	a875                	j	899a <cdc_acm_class_interface_request_handler+0x152>
    88e0:	fdc42783          	lw	a5,-36(s0)
    88e4:	23b8                	.2byte	0x23b8
    88e6:	33bc                	.2byte	0x33bc
    88e8:	07a2                	slli	a5,a5,0x8
    88ea:	8fd9                	or	a5,a5,a4
    88ec:	07c2                	slli	a5,a5,0x10
    88ee:	83c1                	srli	a5,a5,0x10
    88f0:	8b85                	andi	a5,a5,1
    88f2:	00f037b3          	snez	a5,a5
    88f6:	fef40723          	sb	a5,-18(s0)
    88fa:	fdc42783          	lw	a5,-36(s0)
    88fe:	23b8                	.2byte	0x23b8
    8900:	33bc                	.2byte	0x33bc
    8902:	07a2                	slli	a5,a5,0x8
    8904:	8fd9                	or	a5,a5,a4
    8906:	07c2                	slli	a5,a5,0x10
    8908:	83c1                	srli	a5,a5,0x10
    890a:	8b89                	andi	a5,a5,2
    890c:	00f037b3          	snez	a5,a5
    8910:	fef406a3          	sb	a5,-19(s0)
    8914:	fee44703          	lbu	a4,-18(s0)
    8918:	fef44783          	lbu	a5,-17(s0)
    891c:	85ba                	mv	a1,a4
    891e:	853e                	mv	a0,a5
    8920:	20c1                	jal	89e0 <usbd_cdc_acm_set_dtr>
    8922:	fed44703          	lbu	a4,-19(s0)
    8926:	fef44783          	lbu	a5,-17(s0)
    892a:	85ba                	mv	a1,a4
    892c:	853e                	mv	a0,a5
    892e:	20f9                	jal	89fc <usbd_cdc_acm_set_rts>
    8930:	a0ad                	j	899a <cdc_acm_class_interface_request_handler+0x152>
    8932:	fe440713          	addi	a4,s0,-28
    8936:	fef44783          	lbu	a5,-17(s0)
    893a:	85ba                	mv	a1,a4
    893c:	853e                	mv	a0,a5
    893e:	a27ff0ef          	jal	ra,8364 <usbd_cdc_acm_get_line_coding>
    8942:	fd842783          	lw	a5,-40(s0)
    8946:	439c                	lw	a5,0(a5)
    8948:	fe444703          	lbu	a4,-28(s0)
    894c:	88ba                	mv	a7,a4
    894e:	fe544703          	lbu	a4,-27(s0)
    8952:	883a                	mv	a6,a4
    8954:	fe644703          	lbu	a4,-26(s0)
    8958:	853a                	mv	a0,a4
    895a:	fe744703          	lbu	a4,-25(s0)
    895e:	85ba                	mv	a1,a4
    8960:	fe844703          	lbu	a4,-24(s0)
    8964:	863a                	mv	a2,a4
    8966:	fe944703          	lbu	a4,-23(s0)
    896a:	86ba                	mv	a3,a4
    896c:	fea44703          	lbu	a4,-22(s0)
    8970:	01178023          	sb	a7,0(a5)
    8974:	010780a3          	sb	a6,1(a5)
    8978:	a3a8                	.2byte	0xa3a8
    897a:	b3ac                	.2byte	0xb3ac
    897c:	a3d0                	.2byte	0xa3d0
    897e:	b3d4                	.2byte	0xb3d4
    8980:	a3f8                	.2byte	0xa3f8
    8982:	fd442783          	lw	a5,-44(s0)
    8986:	471d                	li	a4,7
    8988:	c398                	sw	a4,0(a5)
    898a:	a801                	j	899a <cdc_acm_class_interface_request_handler+0x152>
    898c:	fef44783          	lbu	a5,-17(s0)
    8990:	853e                	mv	a0,a5
    8992:	2059                	jal	8a18 <usbd_cdc_acm_send_break>
    8994:	a019                	j	899a <cdc_acm_class_interface_request_handler+0x152>
    8996:	57fd                	li	a5,-1
    8998:	a011                	j	899c <cdc_acm_class_interface_request_handler+0x154>
    899a:	4781                	li	a5,0
    899c:	853e                	mv	a0,a5
    899e:	50b2                	lw	ra,44(sp)
    89a0:	5422                	lw	s0,40(sp)
    89a2:	6145                	addi	sp,sp,48
    89a4:	8082                	ret

000089a6 <usbd_cdc_acm_init_intf>:
    89a6:	1101                	addi	sp,sp,-32
    89a8:	ce22                	sw	s0,28(sp)
    89aa:	1000                	addi	s0,sp,32
    89ac:	fea42623          	sw	a0,-20(s0)
    89b0:	fec42783          	lw	a5,-20(s0)
    89b4:	6725                	lui	a4,0x9
    89b6:	84870713          	addi	a4,a4,-1976 # 8848 <cdc_acm_class_interface_request_handler>
    89ba:	c398                	sw	a4,0(a5)
    89bc:	fec42783          	lw	a5,-20(s0)
    89c0:	0007a223          	sw	zero,4(a5)
    89c4:	fec42783          	lw	a5,-20(s0)
    89c8:	0007a423          	sw	zero,8(a5)
    89cc:	fec42783          	lw	a5,-20(s0)
    89d0:	0007a623          	sw	zero,12(a5)
    89d4:	fec42783          	lw	a5,-20(s0)
    89d8:	853e                	mv	a0,a5
    89da:	4472                	lw	s0,28(sp)
    89dc:	6105                	addi	sp,sp,32
    89de:	8082                	ret

000089e0 <usbd_cdc_acm_set_dtr>:
    89e0:	1101                	addi	sp,sp,-32
    89e2:	ce22                	sw	s0,28(sp)
    89e4:	1000                	addi	s0,sp,32
    89e6:	87aa                	mv	a5,a0
    89e8:	872e                	mv	a4,a1
    89ea:	fef407a3          	sb	a5,-17(s0)
    89ee:	87ba                	mv	a5,a4
    89f0:	fef40723          	sb	a5,-18(s0)
    89f4:	0001                	nop
    89f6:	4472                	lw	s0,28(sp)
    89f8:	6105                	addi	sp,sp,32
    89fa:	8082                	ret

000089fc <usbd_cdc_acm_set_rts>:
    89fc:	1101                	addi	sp,sp,-32
    89fe:	ce22                	sw	s0,28(sp)
    8a00:	1000                	addi	s0,sp,32
    8a02:	87aa                	mv	a5,a0
    8a04:	872e                	mv	a4,a1
    8a06:	fef407a3          	sb	a5,-17(s0)
    8a0a:	87ba                	mv	a5,a4
    8a0c:	fef40723          	sb	a5,-18(s0)
    8a10:	0001                	nop
    8a12:	4472                	lw	s0,28(sp)
    8a14:	6105                	addi	sp,sp,32
    8a16:	8082                	ret

00008a18 <usbd_cdc_acm_send_break>:
    8a18:	1101                	addi	sp,sp,-32
    8a1a:	ce22                	sw	s0,28(sp)
    8a1c:	1000                	addi	s0,sp,32
    8a1e:	87aa                	mv	a5,a0
    8a20:	fef407a3          	sb	a5,-17(s0)
    8a24:	0001                	nop
    8a26:	4472                	lw	s0,28(sp)
    8a28:	6105                	addi	sp,sp,32
    8a2a:	8082                	ret

00008a2c <usbd_print_setup>:
    8a2c:	1101                	addi	sp,sp,-32
    8a2e:	ce22                	sw	s0,28(sp)
    8a30:	1000                	addi	s0,sp,32
    8a32:	fea42623          	sw	a0,-20(s0)
    8a36:	0001                	nop
    8a38:	4472                	lw	s0,28(sp)
    8a3a:	6105                	addi	sp,sp,32
    8a3c:	8082                	ret

00008a3e <is_device_configured>:
    8a3e:	1141                	addi	sp,sp,-16
    8a40:	c622                	sw	s0,12(sp)
    8a42:	0800                	addi	s0,sp,16
    8a44:	200067b7          	lui	a5,0x20006
    8a48:	3a078793          	addi	a5,a5,928 # 200063a0 <g_usbd_core>
    8a4c:	1287c783          	lbu	a5,296(a5)
    8a50:	00f037b3          	snez	a5,a5
    8a54:	0ff7f793          	zext.b	a5,a5
    8a58:	853e                	mv	a0,a5
    8a5a:	4432                	lw	s0,12(sp)
    8a5c:	0141                	addi	sp,sp,16
    8a5e:	8082                	ret

00008a60 <usbd_set_endpoint>:
    8a60:	7179                	addi	sp,sp,-48
    8a62:	d606                	sw	ra,44(sp)
    8a64:	d422                	sw	s0,40(sp)
    8a66:	1800                	addi	s0,sp,48
    8a68:	fca42e23          	sw	a0,-36(s0)
    8a6c:	fdc42783          	lw	a5,-36(s0)
    8a70:	23bc                	.2byte	0x23bc
    8a72:	fef40423          	sb	a5,-24(s0)
    8a76:	fdc42783          	lw	a5,-36(s0)
    8a7a:	23d8                	.2byte	0x23d8
    8a7c:	33dc                	.2byte	0x33dc
    8a7e:	07a2                	slli	a5,a5,0x8
    8a80:	8fd9                	or	a5,a5,a4
    8a82:	07c2                	slli	a5,a5,0x10
    8a84:	83c1                	srli	a5,a5,0x10
    8a86:	7ff7f793          	andi	a5,a5,2047
    8a8a:	07c2                	slli	a5,a5,0x10
    8a8c:	83c1                	srli	a5,a5,0x10
    8a8e:	fef41523          	sh	a5,-22(s0)
    8a92:	fdc42783          	lw	a5,-36(s0)
    8a96:	33bc                	.2byte	0x33bc
    8a98:	8b8d                	andi	a5,a5,3
    8a9a:	0ff7f793          	zext.b	a5,a5
    8a9e:	fef404a3          	sb	a5,-23(s0)
    8aa2:	fe840793          	addi	a5,s0,-24
    8aa6:	853e                	mv	a0,a5
    8aa8:	5ba010ef          	jal	ra,a062 <usbd_ep_open>
    8aac:	87aa                	mv	a5,a0
    8aae:	0017b793          	seqz	a5,a5
    8ab2:	0ff7f793          	zext.b	a5,a5
    8ab6:	853e                	mv	a0,a5
    8ab8:	50b2                	lw	ra,44(sp)
    8aba:	5422                	lw	s0,40(sp)
    8abc:	6145                	addi	sp,sp,48
    8abe:	8082                	ret

00008ac0 <usbd_reset_endpoint>:
    8ac0:	7179                	addi	sp,sp,-48
    8ac2:	d606                	sw	ra,44(sp)
    8ac4:	d422                	sw	s0,40(sp)
    8ac6:	1800                	addi	s0,sp,48
    8ac8:	fca42e23          	sw	a0,-36(s0)
    8acc:	fdc42783          	lw	a5,-36(s0)
    8ad0:	23bc                	.2byte	0x23bc
    8ad2:	fef40423          	sb	a5,-24(s0)
    8ad6:	fdc42783          	lw	a5,-36(s0)
    8ada:	23d8                	.2byte	0x23d8
    8adc:	33dc                	.2byte	0x33dc
    8ade:	07a2                	slli	a5,a5,0x8
    8ae0:	8fd9                	or	a5,a5,a4
    8ae2:	07c2                	slli	a5,a5,0x10
    8ae4:	83c1                	srli	a5,a5,0x10
    8ae6:	7ff7f793          	andi	a5,a5,2047
    8aea:	07c2                	slli	a5,a5,0x10
    8aec:	83c1                	srli	a5,a5,0x10
    8aee:	fef41523          	sh	a5,-22(s0)
    8af2:	fdc42783          	lw	a5,-36(s0)
    8af6:	33bc                	.2byte	0x33bc
    8af8:	8b8d                	andi	a5,a5,3
    8afa:	0ff7f793          	zext.b	a5,a5
    8afe:	fef404a3          	sb	a5,-23(s0)
    8b02:	fe844783          	lbu	a5,-24(s0)
    8b06:	853e                	mv	a0,a5
    8b08:	6d4010ef          	jal	ra,a1dc <usbd_ep_close>
    8b0c:	87aa                	mv	a5,a0
    8b0e:	0017b793          	seqz	a5,a5
    8b12:	0ff7f793          	zext.b	a5,a5
    8b16:	853e                	mv	a0,a5
    8b18:	50b2                	lw	ra,44(sp)
    8b1a:	5422                	lw	s0,40(sp)
    8b1c:	6145                	addi	sp,sp,48
    8b1e:	8082                	ret

00008b20 <usbd_get_descriptor>:
    8b20:	7179                	addi	sp,sp,-48
    8b22:	d606                	sw	ra,44(sp)
    8b24:	d422                	sw	s0,40(sp)
    8b26:	1800                	addi	s0,sp,48
    8b28:	87aa                	mv	a5,a0
    8b2a:	fcb42c23          	sw	a1,-40(s0)
    8b2e:	fcc42a23          	sw	a2,-44(s0)
    8b32:	fcf41f23          	sh	a5,-34(s0)
    8b36:	fe040323          	sb	zero,-26(s0)
    8b3a:	fe0402a3          	sb	zero,-27(s0)
    8b3e:	fe042623          	sw	zero,-20(s0)
    8b42:	fe042423          	sw	zero,-24(s0)
    8b46:	fe0403a3          	sb	zero,-25(s0)
    8b4a:	fde45783          	lhu	a5,-34(s0)
    8b4e:	83a1                	srli	a5,a5,0x8
    8b50:	07c2                	slli	a5,a5,0x10
    8b52:	83c1                	srli	a5,a5,0x10
    8b54:	fef40323          	sb	a5,-26(s0)
    8b58:	fde45783          	lhu	a5,-34(s0)
    8b5c:	fef402a3          	sb	a5,-27(s0)
    8b60:	fe644703          	lbu	a4,-26(s0)
    8b64:	478d                	li	a5,3
    8b66:	06f71263          	bne	a4,a5,8bca <usbd_get_descriptor+0xaa>
    8b6a:	fe544703          	lbu	a4,-27(s0)
    8b6e:	0ee00793          	li	a5,238
    8b72:	04f71c63          	bne	a4,a5,8bca <usbd_get_descriptor+0xaa>
    8b76:	200067b7          	lui	a5,0x20006
    8b7a:	3a078793          	addi	a5,a5,928 # 200063a0 <g_usbd_core>
    8b7e:	4fdc                	lw	a5,28(a5)
    8b80:	e399                	bnez	a5,8b86 <usbd_get_descriptor+0x66>
    8b82:	4781                	li	a5,0
    8b84:	a241                	j	8d04 <usbd_get_descriptor+0x1e4>
    8b86:	fd842783          	lw	a5,-40(s0)
    8b8a:	4398                	lw	a4,0(a5)
    8b8c:	200067b7          	lui	a5,0x20006
    8b90:	3a078793          	addi	a5,a5,928 # 200063a0 <g_usbd_core>
    8b94:	4fdc                	lw	a5,28(a5)
    8b96:	4394                	lw	a3,0(a5)
    8b98:	200067b7          	lui	a5,0x20006
    8b9c:	3a078793          	addi	a5,a5,928 # 200063a0 <g_usbd_core>
    8ba0:	4fdc                	lw	a5,28(a5)
    8ba2:	439c                	lw	a5,0(a5)
    8ba4:	239c                	.2byte	0x239c
    8ba6:	863e                	mv	a2,a5
    8ba8:	85b6                	mv	a1,a3
    8baa:	853a                	mv	a0,a4
    8bac:	e54f70ef          	jal	ra,200 <memcpy>
    8bb0:	200067b7          	lui	a5,0x20006
    8bb4:	3a078793          	addi	a5,a5,928 # 200063a0 <g_usbd_core>
    8bb8:	4fdc                	lw	a5,28(a5)
    8bba:	439c                	lw	a5,0(a5)
    8bbc:	239c                	.2byte	0x239c
    8bbe:	873e                	mv	a4,a5
    8bc0:	fd442783          	lw	a5,-44(s0)
    8bc4:	c398                	sw	a4,0(a5)
    8bc6:	4785                	li	a5,1
    8bc8:	aa35                	j	8d04 <usbd_get_descriptor+0x1e4>
    8bca:	fe644703          	lbu	a4,-26(s0)
    8bce:	47bd                	li	a5,15
    8bd0:	04f71963          	bne	a4,a5,8c22 <usbd_get_descriptor+0x102>
    8bd4:	200067b7          	lui	a5,0x20006
    8bd8:	3a078793          	addi	a5,a5,928 # 200063a0 <g_usbd_core>
    8bdc:	53dc                	lw	a5,36(a5)
    8bde:	e399                	bnez	a5,8be4 <usbd_get_descriptor+0xc4>
    8be0:	4781                	li	a5,0
    8be2:	a20d                	j	8d04 <usbd_get_descriptor+0x1e4>
    8be4:	fd842783          	lw	a5,-40(s0)
    8be8:	4398                	lw	a4,0(a5)
    8bea:	200067b7          	lui	a5,0x20006
    8bee:	3a078793          	addi	a5,a5,928 # 200063a0 <g_usbd_core>
    8bf2:	53dc                	lw	a5,36(a5)
    8bf4:	4394                	lw	a3,0(a5)
    8bf6:	200067b7          	lui	a5,0x20006
    8bfa:	3a078793          	addi	a5,a5,928 # 200063a0 <g_usbd_core>
    8bfe:	53dc                	lw	a5,36(a5)
    8c00:	43dc                	lw	a5,4(a5)
    8c02:	863e                	mv	a2,a5
    8c04:	85b6                	mv	a1,a3
    8c06:	853a                	mv	a0,a4
    8c08:	df8f70ef          	jal	ra,200 <memcpy>
    8c0c:	200067b7          	lui	a5,0x20006
    8c10:	3a078793          	addi	a5,a5,928 # 200063a0 <g_usbd_core>
    8c14:	53dc                	lw	a5,36(a5)
    8c16:	43d8                	lw	a4,4(a5)
    8c18:	fd442783          	lw	a5,-44(s0)
    8c1c:	c398                	sw	a4,0(a5)
    8c1e:	4785                	li	a5,1
    8c20:	a0d5                	j	8d04 <usbd_get_descriptor+0x1e4>
    8c22:	fe644703          	lbu	a4,-26(s0)
    8c26:	4791                	li	a5,4
    8c28:	00f70c63          	beq	a4,a5,8c40 <usbd_get_descriptor+0x120>
    8c2c:	fe644703          	lbu	a4,-26(s0)
    8c30:	4795                	li	a5,5
    8c32:	00f70763          	beq	a4,a5,8c40 <usbd_get_descriptor+0x120>
    8c36:	fe644703          	lbu	a4,-26(s0)
    8c3a:	479d                	li	a5,7
    8c3c:	00e7f463          	bgeu	a5,a4,8c44 <usbd_get_descriptor+0x124>
    8c40:	4781                	li	a5,0
    8c42:	a0c9                	j	8d04 <usbd_get_descriptor+0x1e4>
    8c44:	200067b7          	lui	a5,0x20006
    8c48:	3a078793          	addi	a5,a5,928 # 200063a0 <g_usbd_core>
    8c4c:	4f9c                	lw	a5,24(a5)
    8c4e:	fef42623          	sw	a5,-20(s0)
    8c52:	fe042423          	sw	zero,-24(s0)
    8c56:	a089                	j	8c98 <usbd_get_descriptor+0x178>
    8c58:	fec42783          	lw	a5,-20(s0)
    8c5c:	0785                	addi	a5,a5,1
    8c5e:	239c                	.2byte	0x239c
    8c60:	fe644703          	lbu	a4,-26(s0)
    8c64:	02f71163          	bne	a4,a5,8c86 <usbd_get_descriptor+0x166>
    8c68:	fe544783          	lbu	a5,-27(s0)
    8c6c:	fe842703          	lw	a4,-24(s0)
    8c70:	00f71663          	bne	a4,a5,8c7c <usbd_get_descriptor+0x15c>
    8c74:	4785                	li	a5,1
    8c76:	fef403a3          	sb	a5,-25(s0)
    8c7a:	a01d                	j	8ca0 <usbd_get_descriptor+0x180>
    8c7c:	fe842783          	lw	a5,-24(s0)
    8c80:	0785                	addi	a5,a5,1
    8c82:	fef42423          	sw	a5,-24(s0)
    8c86:	fec42783          	lw	a5,-20(s0)
    8c8a:	239c                	.2byte	0x239c
    8c8c:	873e                	mv	a4,a5
    8c8e:	fec42783          	lw	a5,-20(s0)
    8c92:	97ba                	add	a5,a5,a4
    8c94:	fef42623          	sw	a5,-20(s0)
    8c98:	fec42783          	lw	a5,-20(s0)
    8c9c:	239c                	.2byte	0x239c
    8c9e:	ffcd                	bnez	a5,8c58 <usbd_get_descriptor+0x138>
    8ca0:	fe744783          	lbu	a5,-25(s0)
    8ca4:	cfb1                	beqz	a5,8d00 <usbd_get_descriptor+0x1e0>
    8ca6:	fe644703          	lbu	a4,-26(s0)
    8caa:	4789                	li	a5,2
    8cac:	00f70763          	beq	a4,a5,8cba <usbd_get_descriptor+0x19a>
    8cb0:	fe644703          	lbu	a4,-26(s0)
    8cb4:	479d                	li	a5,7
    8cb6:	02f71263          	bne	a4,a5,8cda <usbd_get_descriptor+0x1ba>
    8cba:	fec42783          	lw	a5,-20(s0)
    8cbe:	0789                	addi	a5,a5,2
    8cc0:	239c                	.2byte	0x239c
    8cc2:	873e                	mv	a4,a5
    8cc4:	fec42783          	lw	a5,-20(s0)
    8cc8:	078d                	addi	a5,a5,3
    8cca:	239c                	.2byte	0x239c
    8ccc:	07a2                	slli	a5,a5,0x8
    8cce:	8fd9                	or	a5,a5,a4
    8cd0:	873e                	mv	a4,a5
    8cd2:	fd442783          	lw	a5,-44(s0)
    8cd6:	c398                	sw	a4,0(a5)
    8cd8:	a801                	j	8ce8 <usbd_get_descriptor+0x1c8>
    8cda:	fec42783          	lw	a5,-20(s0)
    8cde:	239c                	.2byte	0x239c
    8ce0:	873e                	mv	a4,a5
    8ce2:	fd442783          	lw	a5,-44(s0)
    8ce6:	c398                	sw	a4,0(a5)
    8ce8:	fd842783          	lw	a5,-40(s0)
    8cec:	4398                	lw	a4,0(a5)
    8cee:	fd442783          	lw	a5,-44(s0)
    8cf2:	439c                	lw	a5,0(a5)
    8cf4:	863e                	mv	a2,a5
    8cf6:	fec42583          	lw	a1,-20(s0)
    8cfa:	853a                	mv	a0,a4
    8cfc:	d04f70ef          	jal	ra,200 <memcpy>
    8d00:	fe744783          	lbu	a5,-25(s0)
    8d04:	853e                	mv	a0,a5
    8d06:	50b2                	lw	ra,44(sp)
    8d08:	5422                	lw	s0,40(sp)
    8d0a:	6145                	addi	sp,sp,48
    8d0c:	8082                	ret

00008d0e <usbd_set_configuration>:
    8d0e:	7179                	addi	sp,sp,-48
    8d10:	d606                	sw	ra,44(sp)
    8d12:	d422                	sw	s0,40(sp)
    8d14:	1800                	addi	s0,sp,48
    8d16:	87aa                	mv	a5,a0
    8d18:	872e                	mv	a4,a1
    8d1a:	fcf40fa3          	sb	a5,-33(s0)
    8d1e:	87ba                	mv	a5,a4
    8d20:	fcf40f23          	sb	a5,-34(s0)
    8d24:	57fd                	li	a5,-1
    8d26:	fef407a3          	sb	a5,-17(s0)
    8d2a:	57fd                	li	a5,-1
    8d2c:	fef40723          	sb	a5,-18(s0)
    8d30:	fe0406a3          	sb	zero,-19(s0)
    8d34:	200067b7          	lui	a5,0x20006
    8d38:	3a078793          	addi	a5,a5,928 # 200063a0 <g_usbd_core>
    8d3c:	4f9c                	lw	a5,24(a5)
    8d3e:	fef42423          	sw	a5,-24(s0)
    8d42:	a071                	j	8dce <usbd_set_configuration+0xc0>
    8d44:	fe842783          	lw	a5,-24(s0)
    8d48:	0785                	addi	a5,a5,1
    8d4a:	239c                	.2byte	0x239c
    8d4c:	4715                	li	a4,5
    8d4e:	04e78163          	beq	a5,a4,8d90 <usbd_set_configuration+0x82>
    8d52:	4715                	li	a4,5
    8d54:	06f74163          	blt	a4,a5,8db6 <usbd_set_configuration+0xa8>
    8d58:	4709                	li	a4,2
    8d5a:	00e78663          	beq	a5,a4,8d66 <usbd_set_configuration+0x58>
    8d5e:	4711                	li	a4,4
    8d60:	02e78263          	beq	a5,a4,8d84 <usbd_set_configuration+0x76>
    8d64:	a889                	j	8db6 <usbd_set_configuration+0xa8>
    8d66:	fe842783          	lw	a5,-24(s0)
    8d6a:	33dc                	.2byte	0x33dc
    8d6c:	fef40723          	sb	a5,-18(s0)
    8d70:	fee44703          	lbu	a4,-18(s0)
    8d74:	fdf44783          	lbu	a5,-33(s0)
    8d78:	04f71163          	bne	a4,a5,8dba <usbd_set_configuration+0xac>
    8d7c:	4785                	li	a5,1
    8d7e:	fef406a3          	sb	a5,-19(s0)
    8d82:	a825                	j	8dba <usbd_set_configuration+0xac>
    8d84:	fe842783          	lw	a5,-24(s0)
    8d88:	33bc                	.2byte	0x33bc
    8d8a:	fef407a3          	sb	a5,-17(s0)
    8d8e:	a03d                	j	8dbc <usbd_set_configuration+0xae>
    8d90:	fee44703          	lbu	a4,-18(s0)
    8d94:	fdf44783          	lbu	a5,-33(s0)
    8d98:	02f71263          	bne	a4,a5,8dbc <usbd_set_configuration+0xae>
    8d9c:	fef44703          	lbu	a4,-17(s0)
    8da0:	fde44783          	lbu	a5,-34(s0)
    8da4:	00f71c63          	bne	a4,a5,8dbc <usbd_set_configuration+0xae>
    8da8:	fe842503          	lw	a0,-24(s0)
    8dac:	3955                	jal	8a60 <usbd_set_endpoint>
    8dae:	87aa                	mv	a5,a0
    8db0:	fef406a3          	sb	a5,-19(s0)
    8db4:	a021                	j	8dbc <usbd_set_configuration+0xae>
    8db6:	0001                	nop
    8db8:	a011                	j	8dbc <usbd_set_configuration+0xae>
    8dba:	0001                	nop
    8dbc:	fe842783          	lw	a5,-24(s0)
    8dc0:	239c                	.2byte	0x239c
    8dc2:	873e                	mv	a4,a5
    8dc4:	fe842783          	lw	a5,-24(s0)
    8dc8:	97ba                	add	a5,a5,a4
    8dca:	fef42423          	sw	a5,-24(s0)
    8dce:	fe842783          	lw	a5,-24(s0)
    8dd2:	239c                	.2byte	0x239c
    8dd4:	fba5                	bnez	a5,8d44 <usbd_set_configuration+0x36>
    8dd6:	fed44783          	lbu	a5,-19(s0)
    8dda:	853e                	mv	a0,a5
    8ddc:	50b2                	lw	ra,44(sp)
    8dde:	5422                	lw	s0,40(sp)
    8de0:	6145                	addi	sp,sp,48
    8de2:	8082                	ret

00008de4 <usbd_set_interface>:
    8de4:	7179                	addi	sp,sp,-48
    8de6:	d606                	sw	ra,44(sp)
    8de8:	d422                	sw	s0,40(sp)
    8dea:	1800                	addi	s0,sp,48
    8dec:	87aa                	mv	a5,a0
    8dee:	872e                	mv	a4,a1
    8df0:	fcf40fa3          	sb	a5,-33(s0)
    8df4:	87ba                	mv	a5,a4
    8df6:	fcf40f23          	sb	a5,-34(s0)
    8dfa:	fe042623          	sw	zero,-20(s0)
    8dfe:	57fd                	li	a5,-1
    8e00:	fef405a3          	sb	a5,-21(s0)
    8e04:	57fd                	li	a5,-1
    8e06:	fef40523          	sb	a5,-22(s0)
    8e0a:	fe0404a3          	sb	zero,-23(s0)
    8e0e:	200067b7          	lui	a5,0x20006
    8e12:	3a078793          	addi	a5,a5,928 # 200063a0 <g_usbd_core>
    8e16:	4f9c                	lw	a5,24(a5)
    8e18:	fef42223          	sw	a5,-28(s0)
    8e1c:	a04d                	j	8ebe <usbd_set_interface+0xda>
    8e1e:	fe442783          	lw	a5,-28(s0)
    8e22:	0785                	addi	a5,a5,1
    8e24:	239c                	.2byte	0x239c
    8e26:	4711                	li	a4,4
    8e28:	00e78663          	beq	a5,a4,8e34 <usbd_set_interface+0x50>
    8e2c:	4715                	li	a4,5
    8e2e:	02e78e63          	beq	a5,a4,8e6a <usbd_set_interface+0x86>
    8e32:	a8ad                	j	8eac <usbd_set_interface+0xc8>
    8e34:	fe442783          	lw	a5,-28(s0)
    8e38:	33bc                	.2byte	0x33bc
    8e3a:	fef405a3          	sb	a5,-21(s0)
    8e3e:	fe442783          	lw	a5,-28(s0)
    8e42:	23bc                	.2byte	0x23bc
    8e44:	fef40523          	sb	a5,-22(s0)
    8e48:	fea44703          	lbu	a4,-22(s0)
    8e4c:	fdf44783          	lbu	a5,-33(s0)
    8e50:	04f71b63          	bne	a4,a5,8ea6 <usbd_set_interface+0xc2>
    8e54:	feb44703          	lbu	a4,-21(s0)
    8e58:	fde44783          	lbu	a5,-34(s0)
    8e5c:	04f71563          	bne	a4,a5,8ea6 <usbd_set_interface+0xc2>
    8e60:	fe442783          	lw	a5,-28(s0)
    8e64:	fef42623          	sw	a5,-20(s0)
    8e68:	a83d                	j	8ea6 <usbd_set_interface+0xc2>
    8e6a:	fea44703          	lbu	a4,-22(s0)
    8e6e:	fdf44783          	lbu	a5,-33(s0)
    8e72:	02f71c63          	bne	a4,a5,8eaa <usbd_set_interface+0xc6>
    8e76:	fe442783          	lw	a5,-28(s0)
    8e7a:	fef42023          	sw	a5,-32(s0)
    8e7e:	feb44703          	lbu	a4,-21(s0)
    8e82:	fde44783          	lbu	a5,-34(s0)
    8e86:	00f70963          	beq	a4,a5,8e98 <usbd_set_interface+0xb4>
    8e8a:	fe042503          	lw	a0,-32(s0)
    8e8e:	390d                	jal	8ac0 <usbd_reset_endpoint>
    8e90:	87aa                	mv	a5,a0
    8e92:	fef404a3          	sb	a5,-23(s0)
    8e96:	a811                	j	8eaa <usbd_set_interface+0xc6>
    8e98:	fe042503          	lw	a0,-32(s0)
    8e9c:	36d1                	jal	8a60 <usbd_set_endpoint>
    8e9e:	87aa                	mv	a5,a0
    8ea0:	fef404a3          	sb	a5,-23(s0)
    8ea4:	a019                	j	8eaa <usbd_set_interface+0xc6>
    8ea6:	0001                	nop
    8ea8:	a011                	j	8eac <usbd_set_interface+0xc8>
    8eaa:	0001                	nop
    8eac:	fe442783          	lw	a5,-28(s0)
    8eb0:	239c                	.2byte	0x239c
    8eb2:	873e                	mv	a4,a5
    8eb4:	fe442783          	lw	a5,-28(s0)
    8eb8:	97ba                	add	a5,a5,a4
    8eba:	fef42223          	sw	a5,-28(s0)
    8ebe:	fe442783          	lw	a5,-28(s0)
    8ec2:	239c                	.2byte	0x239c
    8ec4:	ffa9                	bnez	a5,8e1e <usbd_set_interface+0x3a>
    8ec6:	fec42583          	lw	a1,-20(s0)
    8eca:	4521                	li	a0,8
    8ecc:	141000ef          	jal	ra,980c <usbd_class_event_notify_handler>
    8ed0:	fe944783          	lbu	a5,-23(s0)
    8ed4:	853e                	mv	a0,a5
    8ed6:	50b2                	lw	ra,44(sp)
    8ed8:	5422                	lw	s0,40(sp)
    8eda:	6145                	addi	sp,sp,48
    8edc:	8082                	ret

00008ede <usbd_std_device_req_handler>:
    8ede:	7179                	addi	sp,sp,-48
    8ee0:	d606                	sw	ra,44(sp)
    8ee2:	d422                	sw	s0,40(sp)
    8ee4:	1800                	addi	s0,sp,48
    8ee6:	fca42e23          	sw	a0,-36(s0)
    8eea:	fcb42c23          	sw	a1,-40(s0)
    8eee:	fcc42a23          	sw	a2,-44(s0)
    8ef2:	fdc42783          	lw	a5,-36(s0)
    8ef6:	23b8                	.2byte	0x23b8
    8ef8:	33bc                	.2byte	0x33bc
    8efa:	07a2                	slli	a5,a5,0x8
    8efc:	8fd9                	or	a5,a5,a4
    8efe:	fef41623          	sh	a5,-20(s0)
    8f02:	4785                	li	a5,1
    8f04:	fef407a3          	sb	a5,-17(s0)
    8f08:	fdc42783          	lw	a5,-36(s0)
    8f0c:	339c                	.2byte	0x339c
    8f0e:	472d                	li	a4,11
    8f10:	10f76763          	bltu	a4,a5,901e <usbd_std_device_req_handler+0x140>
    8f14:	00279713          	slli	a4,a5,0x2
    8f18:	67b9                	lui	a5,0xe
    8f1a:	cdc78793          	addi	a5,a5,-804 # dcdc <USBD_BinaryObjectStoreDescriptor+0x50>
    8f1e:	97ba                	add	a5,a5,a4
    8f20:	439c                	lw	a5,0(a5)
    8f22:	8782                	jr	a5
    8f24:	fd842783          	lw	a5,-40(s0)
    8f28:	439c                	lw	a5,0(a5)
    8f2a:	00078023          	sb	zero,0(a5)
    8f2e:	fd842783          	lw	a5,-40(s0)
    8f32:	439c                	lw	a5,0(a5)
    8f34:	0785                	addi	a5,a5,1
    8f36:	00078023          	sb	zero,0(a5)
    8f3a:	fd442783          	lw	a5,-44(s0)
    8f3e:	4709                	li	a4,2
    8f40:	c398                	sw	a4,0(a5)
    8f42:	a0cd                	j	9024 <usbd_std_device_req_handler+0x146>
    8f44:	fec45703          	lhu	a4,-20(s0)
    8f48:	4785                	li	a5,1
    8f4a:	00f71f63          	bne	a4,a5,8f68 <usbd_std_device_req_handler+0x8a>
    8f4e:	fdc42783          	lw	a5,-36(s0)
    8f52:	3398                	.2byte	0x3398
    8f54:	478d                	li	a5,3
    8f56:	00f71663          	bne	a4,a5,8f62 <usbd_std_device_req_handler+0x84>
    8f5a:	4525                	li	a0,9
    8f5c:	b2ffe0ef          	jal	ra,7a8a <usbd_event_handler>
    8f60:	a021                	j	8f68 <usbd_std_device_req_handler+0x8a>
    8f62:	4529                	li	a0,10
    8f64:	b27fe0ef          	jal	ra,7a8a <usbd_event_handler>
    8f68:	fd442783          	lw	a5,-44(s0)
    8f6c:	0007a023          	sw	zero,0(a5)
    8f70:	a855                	j	9024 <usbd_std_device_req_handler+0x146>
    8f72:	fec45783          	lhu	a5,-20(s0)
    8f76:	0ff7f793          	zext.b	a5,a5
    8f7a:	853e                	mv	a0,a5
    8f7c:	0ae010ef          	jal	ra,a02a <usbd_set_address>
    8f80:	fd442783          	lw	a5,-44(s0)
    8f84:	0007a023          	sw	zero,0(a5)
    8f88:	a871                	j	9024 <usbd_std_device_req_handler+0x146>
    8f8a:	fec45783          	lhu	a5,-20(s0)
    8f8e:	fd442603          	lw	a2,-44(s0)
    8f92:	fd842583          	lw	a1,-40(s0)
    8f96:	853e                	mv	a0,a5
    8f98:	3661                	jal	8b20 <usbd_get_descriptor>
    8f9a:	87aa                	mv	a5,a0
    8f9c:	fef407a3          	sb	a5,-17(s0)
    8fa0:	a051                	j	9024 <usbd_std_device_req_handler+0x146>
    8fa2:	fe0407a3          	sb	zero,-17(s0)
    8fa6:	a8bd                	j	9024 <usbd_std_device_req_handler+0x146>
    8fa8:	fd842783          	lw	a5,-40(s0)
    8fac:	20006737          	lui	a4,0x20006
    8fb0:	4c870713          	addi	a4,a4,1224 # 200064c8 <g_usbd_core+0x128>
    8fb4:	c398                	sw	a4,0(a5)
    8fb6:	fd442783          	lw	a5,-44(s0)
    8fba:	4705                	li	a4,1
    8fbc:	c398                	sw	a4,0(a5)
    8fbe:	a09d                	j	9024 <usbd_std_device_req_handler+0x146>
    8fc0:	fec45783          	lhu	a5,-20(s0)
    8fc4:	0ff7f793          	zext.b	a5,a5
    8fc8:	fef41623          	sh	a5,-20(s0)
    8fcc:	fec45783          	lhu	a5,-20(s0)
    8fd0:	0ff7f793          	zext.b	a5,a5
    8fd4:	4581                	li	a1,0
    8fd6:	853e                	mv	a0,a5
    8fd8:	3b1d                	jal	8d0e <usbd_set_configuration>
    8fda:	87aa                	mv	a5,a0
    8fdc:	0017c793          	xori	a5,a5,1
    8fe0:	0ff7f793          	zext.b	a5,a5
    8fe4:	c781                	beqz	a5,8fec <usbd_std_device_req_handler+0x10e>
    8fe6:	fe0407a3          	sb	zero,-17(s0)
    8fea:	a015                	j	900e <usbd_std_device_req_handler+0x130>
    8fec:	fec45783          	lhu	a5,-20(s0)
    8ff0:	0ff7f713          	zext.b	a4,a5
    8ff4:	200067b7          	lui	a5,0x20006
    8ff8:	3a078793          	addi	a5,a5,928 # 200063a0 <g_usbd_core>
    8ffc:	12e78423          	sb	a4,296(a5)
    9000:	4581                	li	a1,0
    9002:	451d                	li	a0,7
    9004:	009000ef          	jal	ra,980c <usbd_class_event_notify_handler>
    9008:	451d                	li	a0,7
    900a:	a81fe0ef          	jal	ra,7a8a <usbd_event_handler>
    900e:	fd442783          	lw	a5,-44(s0)
    9012:	0007a023          	sw	zero,0(a5)
    9016:	a039                	j	9024 <usbd_std_device_req_handler+0x146>
    9018:	fe0407a3          	sb	zero,-17(s0)
    901c:	a021                	j	9024 <usbd_std_device_req_handler+0x146>
    901e:	fe0407a3          	sb	zero,-17(s0)
    9022:	0001                	nop
    9024:	fef44783          	lbu	a5,-17(s0)
    9028:	853e                	mv	a0,a5
    902a:	50b2                	lw	ra,44(sp)
    902c:	5422                	lw	s0,40(sp)
    902e:	6145                	addi	sp,sp,48
    9030:	8082                	ret

00009032 <usbd_std_interface_req_handler>:
    9032:	7179                	addi	sp,sp,-48
    9034:	d606                	sw	ra,44(sp)
    9036:	d422                	sw	s0,40(sp)
    9038:	1800                	addi	s0,sp,48
    903a:	fca42e23          	sw	a0,-36(s0)
    903e:	fcb42c23          	sw	a1,-40(s0)
    9042:	fcc42a23          	sw	a2,-44(s0)
    9046:	fdc42783          	lw	a5,-36(s0)
    904a:	23b8                	.2byte	0x23b8
    904c:	33bc                	.2byte	0x33bc
    904e:	07a2                	slli	a5,a5,0x8
    9050:	8fd9                	or	a5,a5,a4
    9052:	07c2                	slli	a5,a5,0x10
    9054:	83c1                	srli	a5,a5,0x10
    9056:	83a1                	srli	a5,a5,0x8
    9058:	07c2                	slli	a5,a5,0x10
    905a:	83c1                	srli	a5,a5,0x10
    905c:	fef406a3          	sb	a5,-19(s0)
    9060:	fdc42783          	lw	a5,-36(s0)
    9064:	23d8                	.2byte	0x23d8
    9066:	33dc                	.2byte	0x33dc
    9068:	07a2                	slli	a5,a5,0x8
    906a:	8fd9                	or	a5,a5,a4
    906c:	07c2                	slli	a5,a5,0x10
    906e:	83c1                	srli	a5,a5,0x10
    9070:	fef40623          	sb	a5,-20(s0)
    9074:	4785                	li	a5,1
    9076:	fef407a3          	sb	a5,-17(s0)
    907a:	9c5ff0ef          	jal	ra,8a3e <is_device_configured>
    907e:	87aa                	mv	a5,a0
    9080:	0017c793          	xori	a5,a5,1
    9084:	0ff7f793          	zext.b	a5,a5
    9088:	c399                	beqz	a5,908e <usbd_std_interface_req_handler+0x5c>
    908a:	4781                	li	a5,0
    908c:	a22d                	j	91b6 <usbd_std_interface_req_handler+0x184>
    908e:	fdc42783          	lw	a5,-36(s0)
    9092:	339c                	.2byte	0x339c
    9094:	472d                	li	a4,11
    9096:	10f76b63          	bltu	a4,a5,91ac <usbd_std_interface_req_handler+0x17a>
    909a:	00279713          	slli	a4,a5,0x2
    909e:	67b9                	lui	a5,0xe
    90a0:	d0c78793          	addi	a5,a5,-756 # dd0c <USBD_BinaryObjectStoreDescriptor+0x80>
    90a4:	97ba                	add	a5,a5,a4
    90a6:	439c                	lw	a5,0(a5)
    90a8:	8782                	jr	a5
    90aa:	fd842783          	lw	a5,-40(s0)
    90ae:	439c                	lw	a5,0(a5)
    90b0:	00078023          	sb	zero,0(a5)
    90b4:	fd842783          	lw	a5,-40(s0)
    90b8:	439c                	lw	a5,0(a5)
    90ba:	0785                	addi	a5,a5,1
    90bc:	00078023          	sb	zero,0(a5)
    90c0:	fd442783          	lw	a5,-44(s0)
    90c4:	4709                	li	a4,2
    90c6:	c398                	sw	a4,0(a5)
    90c8:	a0ed                	j	91b2 <usbd_std_interface_req_handler+0x180>
    90ca:	fed44703          	lbu	a4,-19(s0)
    90ce:	02200793          	li	a5,34
    90d2:	08f71163          	bne	a4,a5,9154 <usbd_std_interface_req_handler+0x122>
    90d6:	fe040723          	sb	zero,-18(s0)
    90da:	a09d                	j	9140 <usbd_std_interface_req_handler+0x10e>
    90dc:	fee44783          	lbu	a5,-18(s0)
    90e0:	20006737          	lui	a4,0x20006
    90e4:	3a070713          	addi	a4,a4,928 # 200063a0 <g_usbd_core>
    90e8:	04878793          	addi	a5,a5,72
    90ec:	078a                	slli	a5,a5,0x2
    90ee:	97ba                	add	a5,a5,a4
    90f0:	47dc                	lw	a5,12(a5)
    90f2:	fef42423          	sw	a5,-24(s0)
    90f6:	fe842783          	lw	a5,-24(s0)
    90fa:	cf95                	beqz	a5,9136 <usbd_std_interface_req_handler+0x104>
    90fc:	fe842783          	lw	a5,-24(s0)
    9100:	2f9c                	.2byte	0x2f9c
    9102:	fec44703          	lbu	a4,-20(s0)
    9106:	02f71863          	bne	a4,a5,9136 <usbd_std_interface_req_handler+0x104>
    910a:	fd842783          	lw	a5,-40(s0)
    910e:	4398                	lw	a4,0(a5)
    9110:	fe842783          	lw	a5,-24(s0)
    9114:	4b94                	lw	a3,16(a5)
    9116:	fe842783          	lw	a5,-24(s0)
    911a:	4bdc                	lw	a5,20(a5)
    911c:	863e                	mv	a2,a5
    911e:	85b6                	mv	a1,a3
    9120:	853a                	mv	a0,a4
    9122:	8def70ef          	jal	ra,200 <memcpy>
    9126:	fe842783          	lw	a5,-24(s0)
    912a:	4bd8                	lw	a4,20(a5)
    912c:	fd442783          	lw	a5,-44(s0)
    9130:	c398                	sw	a4,0(a5)
    9132:	4785                	li	a5,1
    9134:	a049                	j	91b6 <usbd_std_interface_req_handler+0x184>
    9136:	fee44783          	lbu	a5,-18(s0)
    913a:	0785                	addi	a5,a5,1
    913c:	fef40723          	sb	a5,-18(s0)
    9140:	200067b7          	lui	a5,0x20006
    9144:	3a078793          	addi	a5,a5,928 # 200063a0 <g_usbd_core>
    9148:	14c7c783          	lbu	a5,332(a5)
    914c:	fee44703          	lbu	a4,-18(s0)
    9150:	f8f766e3          	bltu	a4,a5,90dc <usbd_std_interface_req_handler+0xaa>
    9154:	fe0407a3          	sb	zero,-17(s0)
    9158:	a8a9                	j	91b2 <usbd_std_interface_req_handler+0x180>
    915a:	fe0407a3          	sb	zero,-17(s0)
    915e:	a891                	j	91b2 <usbd_std_interface_req_handler+0x180>
    9160:	fd842783          	lw	a5,-40(s0)
    9164:	439c                	lw	a5,0(a5)
    9166:	00078023          	sb	zero,0(a5)
    916a:	fd442783          	lw	a5,-44(s0)
    916e:	4705                	li	a4,1
    9170:	c398                	sw	a4,0(a5)
    9172:	a081                	j	91b2 <usbd_std_interface_req_handler+0x180>
    9174:	fdc42783          	lw	a5,-36(s0)
    9178:	23d8                	.2byte	0x23d8
    917a:	33dc                	.2byte	0x33dc
    917c:	07a2                	slli	a5,a5,0x8
    917e:	8fd9                	or	a5,a5,a4
    9180:	07c2                	slli	a5,a5,0x10
    9182:	83c1                	srli	a5,a5,0x10
    9184:	0ff7f693          	zext.b	a3,a5
    9188:	fdc42783          	lw	a5,-36(s0)
    918c:	23b8                	.2byte	0x23b8
    918e:	33bc                	.2byte	0x33bc
    9190:	07a2                	slli	a5,a5,0x8
    9192:	8fd9                	or	a5,a5,a4
    9194:	07c2                	slli	a5,a5,0x10
    9196:	83c1                	srli	a5,a5,0x10
    9198:	0ff7f793          	zext.b	a5,a5
    919c:	85be                	mv	a1,a5
    919e:	8536                	mv	a0,a3
    91a0:	3191                	jal	8de4 <usbd_set_interface>
    91a2:	fd442783          	lw	a5,-44(s0)
    91a6:	0007a023          	sw	zero,0(a5)
    91aa:	a021                	j	91b2 <usbd_std_interface_req_handler+0x180>
    91ac:	fe0407a3          	sb	zero,-17(s0)
    91b0:	0001                	nop
    91b2:	fef44783          	lbu	a5,-17(s0)
    91b6:	853e                	mv	a0,a5
    91b8:	50b2                	lw	ra,44(sp)
    91ba:	5422                	lw	s0,40(sp)
    91bc:	6145                	addi	sp,sp,48
    91be:	8082                	ret

000091c0 <usbd_std_endpoint_req_handler>:
    91c0:	7179                	addi	sp,sp,-48
    91c2:	d606                	sw	ra,44(sp)
    91c4:	d422                	sw	s0,40(sp)
    91c6:	1800                	addi	s0,sp,48
    91c8:	fca42e23          	sw	a0,-36(s0)
    91cc:	fcb42c23          	sw	a1,-40(s0)
    91d0:	fcc42a23          	sw	a2,-44(s0)
    91d4:	fdc42783          	lw	a5,-36(s0)
    91d8:	23d8                	.2byte	0x23d8
    91da:	33dc                	.2byte	0x33dc
    91dc:	07a2                	slli	a5,a5,0x8
    91de:	8fd9                	or	a5,a5,a4
    91e0:	07c2                	slli	a5,a5,0x10
    91e2:	83c1                	srli	a5,a5,0x10
    91e4:	fef40723          	sb	a5,-18(s0)
    91e8:	4785                	li	a5,1
    91ea:	fef407a3          	sb	a5,-17(s0)
    91ee:	851ff0ef          	jal	ra,8a3e <is_device_configured>
    91f2:	87aa                	mv	a5,a0
    91f4:	0017c793          	xori	a5,a5,1
    91f8:	0ff7f793          	zext.b	a5,a5
    91fc:	c399                	beqz	a5,9202 <usbd_std_endpoint_req_handler+0x42>
    91fe:	4781                	li	a5,0
    9200:	a84d                	j	92b2 <usbd_std_endpoint_req_handler+0xf2>
    9202:	fdc42783          	lw	a5,-36(s0)
    9206:	339c                	.2byte	0x339c
    9208:	4731                	li	a4,12
    920a:	08e78c63          	beq	a5,a4,92a2 <usbd_std_endpoint_req_handler+0xe2>
    920e:	4731                	li	a4,12
    9210:	08f74c63          	blt	a4,a5,92a8 <usbd_std_endpoint_req_handler+0xe8>
    9214:	470d                	li	a4,3
    9216:	06e78063          	beq	a5,a4,9276 <usbd_std_endpoint_req_handler+0xb6>
    921a:	470d                	li	a4,3
    921c:	08f74663          	blt	a4,a5,92a8 <usbd_std_endpoint_req_handler+0xe8>
    9220:	c789                	beqz	a5,922a <usbd_std_endpoint_req_handler+0x6a>
    9222:	4705                	li	a4,1
    9224:	02e78363          	beq	a5,a4,924a <usbd_std_endpoint_req_handler+0x8a>
    9228:	a041                	j	92a8 <usbd_std_endpoint_req_handler+0xe8>
    922a:	fd842783          	lw	a5,-40(s0)
    922e:	439c                	lw	a5,0(a5)
    9230:	00078023          	sb	zero,0(a5)
    9234:	fd842783          	lw	a5,-40(s0)
    9238:	439c                	lw	a5,0(a5)
    923a:	0785                	addi	a5,a5,1
    923c:	00078023          	sb	zero,0(a5)
    9240:	fd442783          	lw	a5,-44(s0)
    9244:	4709                	li	a4,2
    9246:	c398                	sw	a4,0(a5)
    9248:	a09d                	j	92ae <usbd_std_endpoint_req_handler+0xee>
    924a:	fdc42783          	lw	a5,-36(s0)
    924e:	23b8                	.2byte	0x23b8
    9250:	33bc                	.2byte	0x33bc
    9252:	07a2                	slli	a5,a5,0x8
    9254:	8fd9                	or	a5,a5,a4
    9256:	07c2                	slli	a5,a5,0x10
    9258:	83c1                	srli	a5,a5,0x10
    925a:	e799                	bnez	a5,9268 <usbd_std_endpoint_req_handler+0xa8>
    925c:	fee44783          	lbu	a5,-18(s0)
    9260:	853e                	mv	a0,a5
    9262:	050010ef          	jal	ra,a2b2 <usbd_ep_clear_stall>
    9266:	a0a1                	j	92ae <usbd_std_endpoint_req_handler+0xee>
    9268:	fe0407a3          	sb	zero,-17(s0)
    926c:	fd442783          	lw	a5,-44(s0)
    9270:	0007a023          	sw	zero,0(a5)
    9274:	a82d                	j	92ae <usbd_std_endpoint_req_handler+0xee>
    9276:	fdc42783          	lw	a5,-36(s0)
    927a:	23b8                	.2byte	0x23b8
    927c:	33bc                	.2byte	0x33bc
    927e:	07a2                	slli	a5,a5,0x8
    9280:	8fd9                	or	a5,a5,a4
    9282:	07c2                	slli	a5,a5,0x10
    9284:	83c1                	srli	a5,a5,0x10
    9286:	e799                	bnez	a5,9294 <usbd_std_endpoint_req_handler+0xd4>
    9288:	fee44783          	lbu	a5,-18(s0)
    928c:	853e                	mv	a0,a5
    928e:	765000ef          	jal	ra,a1f2 <usbd_ep_set_stall>
    9292:	a019                	j	9298 <usbd_std_endpoint_req_handler+0xd8>
    9294:	fe0407a3          	sb	zero,-17(s0)
    9298:	fd442783          	lw	a5,-44(s0)
    929c:	0007a023          	sw	zero,0(a5)
    92a0:	a039                	j	92ae <usbd_std_endpoint_req_handler+0xee>
    92a2:	fe0407a3          	sb	zero,-17(s0)
    92a6:	a021                	j	92ae <usbd_std_endpoint_req_handler+0xee>
    92a8:	fe0407a3          	sb	zero,-17(s0)
    92ac:	0001                	nop
    92ae:	fef44783          	lbu	a5,-17(s0)
    92b2:	853e                	mv	a0,a5
    92b4:	50b2                	lw	ra,44(sp)
    92b6:	5422                	lw	s0,40(sp)
    92b8:	6145                	addi	sp,sp,48
    92ba:	8082                	ret

000092bc <usbd_standard_request_handler>:
    92bc:	7179                	addi	sp,sp,-48
    92be:	d606                	sw	ra,44(sp)
    92c0:	d422                	sw	s0,40(sp)
    92c2:	1800                	addi	s0,sp,48
    92c4:	fca42e23          	sw	a0,-36(s0)
    92c8:	fcb42c23          	sw	a1,-40(s0)
    92cc:	fcc42a23          	sw	a2,-44(s0)
    92d0:	fe042623          	sw	zero,-20(s0)
    92d4:	fdc42783          	lw	a5,-36(s0)
    92d8:	239c                	.2byte	0x239c
    92da:	8b8d                	andi	a5,a5,3
    92dc:	4709                	li	a4,2
    92de:	04e78c63          	beq	a5,a4,9336 <usbd_standard_request_handler+0x7a>
    92e2:	4709                	li	a4,2
    92e4:	06f76a63          	bltu	a4,a5,9358 <usbd_standard_request_handler+0x9c>
    92e8:	c789                	beqz	a5,92f2 <usbd_standard_request_handler+0x36>
    92ea:	4705                	li	a4,1
    92ec:	02e78463          	beq	a5,a4,9314 <usbd_standard_request_handler+0x58>
    92f0:	a0a5                	j	9358 <usbd_standard_request_handler+0x9c>
    92f2:	fd442603          	lw	a2,-44(s0)
    92f6:	fd842583          	lw	a1,-40(s0)
    92fa:	fdc42503          	lw	a0,-36(s0)
    92fe:	36c5                	jal	8ede <usbd_std_device_req_handler>
    9300:	87aa                	mv	a5,a0
    9302:	0017c793          	xori	a5,a5,1
    9306:	0ff7f793          	zext.b	a5,a5
    930a:	cbb9                	beqz	a5,9360 <usbd_standard_request_handler+0xa4>
    930c:	57fd                	li	a5,-1
    930e:	fef42623          	sw	a5,-20(s0)
    9312:	a0b9                	j	9360 <usbd_standard_request_handler+0xa4>
    9314:	fd442603          	lw	a2,-44(s0)
    9318:	fd842583          	lw	a1,-40(s0)
    931c:	fdc42503          	lw	a0,-36(s0)
    9320:	3b09                	jal	9032 <usbd_std_interface_req_handler>
    9322:	87aa                	mv	a5,a0
    9324:	0017c793          	xori	a5,a5,1
    9328:	0ff7f793          	zext.b	a5,a5
    932c:	cf85                	beqz	a5,9364 <usbd_standard_request_handler+0xa8>
    932e:	57fd                	li	a5,-1
    9330:	fef42623          	sw	a5,-20(s0)
    9334:	a805                	j	9364 <usbd_standard_request_handler+0xa8>
    9336:	fd442603          	lw	a2,-44(s0)
    933a:	fd842583          	lw	a1,-40(s0)
    933e:	fdc42503          	lw	a0,-36(s0)
    9342:	3dbd                	jal	91c0 <usbd_std_endpoint_req_handler>
    9344:	87aa                	mv	a5,a0
    9346:	0017c793          	xori	a5,a5,1
    934a:	0ff7f793          	zext.b	a5,a5
    934e:	cf89                	beqz	a5,9368 <usbd_standard_request_handler+0xac>
    9350:	57fd                	li	a5,-1
    9352:	fef42623          	sw	a5,-20(s0)
    9356:	a809                	j	9368 <usbd_standard_request_handler+0xac>
    9358:	57fd                	li	a5,-1
    935a:	fef42623          	sw	a5,-20(s0)
    935e:	a031                	j	936a <usbd_standard_request_handler+0xae>
    9360:	0001                	nop
    9362:	a021                	j	936a <usbd_standard_request_handler+0xae>
    9364:	0001                	nop
    9366:	a011                	j	936a <usbd_standard_request_handler+0xae>
    9368:	0001                	nop
    936a:	fec42783          	lw	a5,-20(s0)
    936e:	853e                	mv	a0,a5
    9370:	50b2                	lw	ra,44(sp)
    9372:	5422                	lw	s0,40(sp)
    9374:	6145                	addi	sp,sp,48
    9376:	8082                	ret

00009378 <usbd_class_request_handler>:
    9378:	7179                	addi	sp,sp,-48
    937a:	d606                	sw	ra,44(sp)
    937c:	d422                	sw	s0,40(sp)
    937e:	1800                	addi	s0,sp,48
    9380:	fca42e23          	sw	a0,-36(s0)
    9384:	fcb42c23          	sw	a1,-40(s0)
    9388:	fcc42a23          	sw	a2,-44(s0)
    938c:	fdc42783          	lw	a5,-36(s0)
    9390:	239c                	.2byte	0x239c
    9392:	0037f713          	andi	a4,a5,3
    9396:	4785                	li	a5,1
    9398:	08f71563          	bne	a4,a5,9422 <usbd_class_request_handler+0xaa>
    939c:	fe0407a3          	sb	zero,-17(s0)
    93a0:	a0b5                	j	940c <usbd_class_request_handler+0x94>
    93a2:	fef44783          	lbu	a5,-17(s0)
    93a6:	20006737          	lui	a4,0x20006
    93aa:	3a070713          	addi	a4,a4,928 # 200063a0 <g_usbd_core>
    93ae:	04878793          	addi	a5,a5,72
    93b2:	078a                	slli	a5,a5,0x2
    93b4:	97ba                	add	a5,a5,a4
    93b6:	47dc                	lw	a5,12(a5)
    93b8:	fef42223          	sw	a5,-28(s0)
    93bc:	fe442783          	lw	a5,-28(s0)
    93c0:	c3a9                	beqz	a5,9402 <usbd_class_request_handler+0x8a>
    93c2:	fe442783          	lw	a5,-28(s0)
    93c6:	439c                	lw	a5,0(a5)
    93c8:	cf8d                	beqz	a5,9402 <usbd_class_request_handler+0x8a>
    93ca:	fe442783          	lw	a5,-28(s0)
    93ce:	2f9c                	.2byte	0x2f9c
    93d0:	86be                	mv	a3,a5
    93d2:	fdc42783          	lw	a5,-36(s0)
    93d6:	23d8                	.2byte	0x23d8
    93d8:	33dc                	.2byte	0x33dc
    93da:	07a2                	slli	a5,a5,0x8
    93dc:	8fd9                	or	a5,a5,a4
    93de:	07c2                	slli	a5,a5,0x10
    93e0:	83c1                	srli	a5,a5,0x10
    93e2:	0ff7f793          	zext.b	a5,a5
    93e6:	00f69e63          	bne	a3,a5,9402 <usbd_class_request_handler+0x8a>
    93ea:	fe442783          	lw	a5,-28(s0)
    93ee:	439c                	lw	a5,0(a5)
    93f0:	fd442603          	lw	a2,-44(s0)
    93f4:	fd842583          	lw	a1,-40(s0)
    93f8:	fdc42503          	lw	a0,-36(s0)
    93fc:	9782                	jalr	a5
    93fe:	87aa                	mv	a5,a0
    9400:	a861                	j	9498 <usbd_class_request_handler+0x120>
    9402:	fef44783          	lbu	a5,-17(s0)
    9406:	0785                	addi	a5,a5,1
    9408:	fef407a3          	sb	a5,-17(s0)
    940c:	200067b7          	lui	a5,0x20006
    9410:	3a078793          	addi	a5,a5,928 # 200063a0 <g_usbd_core>
    9414:	14c7c783          	lbu	a5,332(a5)
    9418:	fef44703          	lbu	a4,-17(s0)
    941c:	f8f763e3          	bltu	a4,a5,93a2 <usbd_class_request_handler+0x2a>
    9420:	a89d                	j	9496 <usbd_class_request_handler+0x11e>
    9422:	fdc42783          	lw	a5,-36(s0)
    9426:	239c                	.2byte	0x239c
    9428:	0037f713          	andi	a4,a5,3
    942c:	4789                	li	a5,2
    942e:	06f71463          	bne	a4,a5,9496 <usbd_class_request_handler+0x11e>
    9432:	fe040723          	sb	zero,-18(s0)
    9436:	a0b1                	j	9482 <usbd_class_request_handler+0x10a>
    9438:	fee44783          	lbu	a5,-18(s0)
    943c:	20006737          	lui	a4,0x20006
    9440:	3a070713          	addi	a4,a4,928 # 200063a0 <g_usbd_core>
    9444:	04878793          	addi	a5,a5,72
    9448:	078a                	slli	a5,a5,0x2
    944a:	97ba                	add	a5,a5,a4
    944c:	47dc                	lw	a5,12(a5)
    944e:	fef42423          	sw	a5,-24(s0)
    9452:	fe842783          	lw	a5,-24(s0)
    9456:	c38d                	beqz	a5,9478 <usbd_class_request_handler+0x100>
    9458:	fe842783          	lw	a5,-24(s0)
    945c:	43dc                	lw	a5,4(a5)
    945e:	cf89                	beqz	a5,9478 <usbd_class_request_handler+0x100>
    9460:	fe842783          	lw	a5,-24(s0)
    9464:	43dc                	lw	a5,4(a5)
    9466:	fd442603          	lw	a2,-44(s0)
    946a:	fd842583          	lw	a1,-40(s0)
    946e:	fdc42503          	lw	a0,-36(s0)
    9472:	9782                	jalr	a5
    9474:	87aa                	mv	a5,a0
    9476:	a00d                	j	9498 <usbd_class_request_handler+0x120>
    9478:	fee44783          	lbu	a5,-18(s0)
    947c:	0785                	addi	a5,a5,1
    947e:	fef40723          	sb	a5,-18(s0)
    9482:	200067b7          	lui	a5,0x20006
    9486:	3a078793          	addi	a5,a5,928 # 200063a0 <g_usbd_core>
    948a:	14c7c783          	lbu	a5,332(a5)
    948e:	fee44703          	lbu	a4,-18(s0)
    9492:	faf763e3          	bltu	a4,a5,9438 <usbd_class_request_handler+0xc0>
    9496:	57fd                	li	a5,-1
    9498:	853e                	mv	a0,a5
    949a:	50b2                	lw	ra,44(sp)
    949c:	5422                	lw	s0,40(sp)
    949e:	6145                	addi	sp,sp,48
    94a0:	8082                	ret

000094a2 <usbd_vendor_request_handler>:
    94a2:	7179                	addi	sp,sp,-48
    94a4:	d606                	sw	ra,44(sp)
    94a6:	d422                	sw	s0,40(sp)
    94a8:	1800                	addi	s0,sp,48
    94aa:	fca42e23          	sw	a0,-36(s0)
    94ae:	fcb42c23          	sw	a1,-40(s0)
    94b2:	fcc42a23          	sw	a2,-44(s0)
    94b6:	200067b7          	lui	a5,0x20006
    94ba:	3a078793          	addi	a5,a5,928 # 200063a0 <g_usbd_core>
    94be:	4fdc                	lw	a5,28(a5)
    94c0:	1a078163          	beqz	a5,9662 <usbd_vendor_request_handler+0x1c0>
    94c4:	fdc42783          	lw	a5,-36(s0)
    94c8:	3398                	.2byte	0x3398
    94ca:	200067b7          	lui	a5,0x20006
    94ce:	3a078793          	addi	a5,a5,928 # 200063a0 <g_usbd_core>
    94d2:	4fdc                	lw	a5,28(a5)
    94d4:	23dc                	.2byte	0x23dc
    94d6:	20f71563          	bne	a4,a5,96e0 <usbd_vendor_request_handler+0x23e>
    94da:	fdc42783          	lw	a5,-36(s0)
    94de:	23d8                	.2byte	0x23d8
    94e0:	33dc                	.2byte	0x33dc
    94e2:	07a2                	slli	a5,a5,0x8
    94e4:	8fd9                	or	a5,a5,a4
    94e6:	07c2                	slli	a5,a5,0x10
    94e8:	83c1                	srli	a5,a5,0x10
    94ea:	4711                	li	a4,4
    94ec:	00e78663          	beq	a5,a4,94f8 <usbd_vendor_request_handler+0x56>
    94f0:	4715                	li	a4,5
    94f2:	08e78163          	beq	a5,a4,9574 <usbd_vendor_request_handler+0xd2>
    94f6:	a2a5                	j	965e <usbd_vendor_request_handler+0x1bc>
    94f8:	200067b7          	lui	a5,0x20006
    94fc:	3a078793          	addi	a5,a5,928 # 200063a0 <g_usbd_core>
    9500:	4fdc                	lw	a5,28(a5)
    9502:	479c                	lw	a5,8(a5)
    9504:	239c                	.2byte	0x239c
    9506:	873e                	mv	a4,a5
    9508:	200067b7          	lui	a5,0x20006
    950c:	3a078793          	addi	a5,a5,928 # 200063a0 <g_usbd_core>
    9510:	4fdc                	lw	a5,28(a5)
    9512:	479c                	lw	a5,8(a5)
    9514:	0785                	addi	a5,a5,1
    9516:	239c                	.2byte	0x239c
    9518:	07a2                	slli	a5,a5,0x8
    951a:	973e                	add	a4,a4,a5
    951c:	200067b7          	lui	a5,0x20006
    9520:	3a078793          	addi	a5,a5,928 # 200063a0 <g_usbd_core>
    9524:	4fdc                	lw	a5,28(a5)
    9526:	479c                	lw	a5,8(a5)
    9528:	0789                	addi	a5,a5,2
    952a:	239c                	.2byte	0x239c
    952c:	07c2                	slli	a5,a5,0x10
    952e:	973e                	add	a4,a4,a5
    9530:	200067b7          	lui	a5,0x20006
    9534:	3a078793          	addi	a5,a5,928 # 200063a0 <g_usbd_core>
    9538:	4fdc                	lw	a5,28(a5)
    953a:	479c                	lw	a5,8(a5)
    953c:	078d                	addi	a5,a5,3
    953e:	239c                	.2byte	0x239c
    9540:	07e2                	slli	a5,a5,0x18
    9542:	97ba                	add	a5,a5,a4
    9544:	fef42423          	sw	a5,-24(s0)
    9548:	fd842783          	lw	a5,-40(s0)
    954c:	4398                	lw	a4,0(a5)
    954e:	200067b7          	lui	a5,0x20006
    9552:	3a078793          	addi	a5,a5,928 # 200063a0 <g_usbd_core>
    9556:	4fdc                	lw	a5,28(a5)
    9558:	479c                	lw	a5,8(a5)
    955a:	fe842603          	lw	a2,-24(s0)
    955e:	85be                	mv	a1,a5
    9560:	853a                	mv	a0,a4
    9562:	c9ff60ef          	jal	ra,200 <memcpy>
    9566:	fd442783          	lw	a5,-44(s0)
    956a:	fe842703          	lw	a4,-24(s0)
    956e:	c398                	sw	a4,0(a5)
    9570:	4781                	li	a5,0
    9572:	aae1                	j	974a <usbd_vendor_request_handler+0x2a8>
    9574:	200067b7          	lui	a5,0x20006
    9578:	3a078793          	addi	a5,a5,928 # 200063a0 <g_usbd_core>
    957c:	4fdc                	lw	a5,28(a5)
    957e:	47d8                	lw	a4,12(a5)
    9580:	fdc42783          	lw	a5,-36(s0)
    9584:	23b4                	.2byte	0x23b4
    9586:	33bc                	.2byte	0x33bc
    9588:	07a2                	slli	a5,a5,0x8
    958a:	8fd5                	or	a5,a5,a3
    958c:	07c2                	slli	a5,a5,0x10
    958e:	83c1                	srli	a5,a5,0x10
    9590:	078a                	slli	a5,a5,0x2
    9592:	97ba                	add	a5,a5,a4
    9594:	439c                	lw	a5,0(a5)
    9596:	239c                	.2byte	0x239c
    9598:	863e                	mv	a2,a5
    959a:	200067b7          	lui	a5,0x20006
    959e:	3a078793          	addi	a5,a5,928 # 200063a0 <g_usbd_core>
    95a2:	4fdc                	lw	a5,28(a5)
    95a4:	47d8                	lw	a4,12(a5)
    95a6:	fdc42783          	lw	a5,-36(s0)
    95aa:	23b4                	.2byte	0x23b4
    95ac:	33bc                	.2byte	0x33bc
    95ae:	07a2                	slli	a5,a5,0x8
    95b0:	8fd5                	or	a5,a5,a3
    95b2:	07c2                	slli	a5,a5,0x10
    95b4:	83c1                	srli	a5,a5,0x10
    95b6:	078a                	slli	a5,a5,0x2
    95b8:	97ba                	add	a5,a5,a4
    95ba:	439c                	lw	a5,0(a5)
    95bc:	0785                	addi	a5,a5,1
    95be:	239c                	.2byte	0x239c
    95c0:	07a2                	slli	a5,a5,0x8
    95c2:	00f60733          	add	a4,a2,a5
    95c6:	200067b7          	lui	a5,0x20006
    95ca:	3a078793          	addi	a5,a5,928 # 200063a0 <g_usbd_core>
    95ce:	4fdc                	lw	a5,28(a5)
    95d0:	47d4                	lw	a3,12(a5)
    95d2:	fdc42783          	lw	a5,-36(s0)
    95d6:	23b0                	.2byte	0x23b0
    95d8:	33bc                	.2byte	0x33bc
    95da:	07a2                	slli	a5,a5,0x8
    95dc:	8fd1                	or	a5,a5,a2
    95de:	07c2                	slli	a5,a5,0x10
    95e0:	83c1                	srli	a5,a5,0x10
    95e2:	078a                	slli	a5,a5,0x2
    95e4:	97b6                	add	a5,a5,a3
    95e6:	439c                	lw	a5,0(a5)
    95e8:	0789                	addi	a5,a5,2
    95ea:	239c                	.2byte	0x239c
    95ec:	07c2                	slli	a5,a5,0x10
    95ee:	973e                	add	a4,a4,a5
    95f0:	200067b7          	lui	a5,0x20006
    95f4:	3a078793          	addi	a5,a5,928 # 200063a0 <g_usbd_core>
    95f8:	4fdc                	lw	a5,28(a5)
    95fa:	47d4                	lw	a3,12(a5)
    95fc:	fdc42783          	lw	a5,-36(s0)
    9600:	23b0                	.2byte	0x23b0
    9602:	33bc                	.2byte	0x33bc
    9604:	07a2                	slli	a5,a5,0x8
    9606:	8fd1                	or	a5,a5,a2
    9608:	07c2                	slli	a5,a5,0x10
    960a:	83c1                	srli	a5,a5,0x10
    960c:	078a                	slli	a5,a5,0x2
    960e:	97b6                	add	a5,a5,a3
    9610:	439c                	lw	a5,0(a5)
    9612:	078d                	addi	a5,a5,3
    9614:	239c                	.2byte	0x239c
    9616:	07e2                	slli	a5,a5,0x18
    9618:	97ba                	add	a5,a5,a4
    961a:	fef42423          	sw	a5,-24(s0)
    961e:	fd842783          	lw	a5,-40(s0)
    9622:	4388                	lw	a0,0(a5)
    9624:	200067b7          	lui	a5,0x20006
    9628:	3a078793          	addi	a5,a5,928 # 200063a0 <g_usbd_core>
    962c:	4fdc                	lw	a5,28(a5)
    962e:	47d8                	lw	a4,12(a5)
    9630:	fdc42783          	lw	a5,-36(s0)
    9634:	23b4                	.2byte	0x23b4
    9636:	33bc                	.2byte	0x33bc
    9638:	07a2                	slli	a5,a5,0x8
    963a:	8fd5                	or	a5,a5,a3
    963c:	07c2                	slli	a5,a5,0x10
    963e:	83c1                	srli	a5,a5,0x10
    9640:	078a                	slli	a5,a5,0x2
    9642:	97ba                	add	a5,a5,a4
    9644:	439c                	lw	a5,0(a5)
    9646:	fe842603          	lw	a2,-24(s0)
    964a:	85be                	mv	a1,a5
    964c:	bb5f60ef          	jal	ra,200 <memcpy>
    9650:	fd442783          	lw	a5,-44(s0)
    9654:	fe842703          	lw	a4,-24(s0)
    9658:	c398                	sw	a4,0(a5)
    965a:	4781                	li	a5,0
    965c:	a0fd                	j	974a <usbd_vendor_request_handler+0x2a8>
    965e:	57fd                	li	a5,-1
    9660:	a0ed                	j	974a <usbd_vendor_request_handler+0x2a8>
    9662:	200067b7          	lui	a5,0x20006
    9666:	3a078793          	addi	a5,a5,928 # 200063a0 <g_usbd_core>
    966a:	539c                	lw	a5,32(a5)
    966c:	cbb5                	beqz	a5,96e0 <usbd_vendor_request_handler+0x23e>
    966e:	fdc42783          	lw	a5,-36(s0)
    9672:	3398                	.2byte	0x3398
    9674:	200067b7          	lui	a5,0x20006
    9678:	3a078793          	addi	a5,a5,928 # 200063a0 <g_usbd_core>
    967c:	539c                	lw	a5,32(a5)
    967e:	23fc                	.2byte	0x23fc
    9680:	06f71063          	bne	a4,a5,96e0 <usbd_vendor_request_handler+0x23e>
    9684:	fdc42783          	lw	a5,-36(s0)
    9688:	23d8                	.2byte	0x23d8
    968a:	33dc                	.2byte	0x33dc
    968c:	07a2                	slli	a5,a5,0x8
    968e:	8fd9                	or	a5,a5,a4
    9690:	07c2                	slli	a5,a5,0x10
    9692:	83c1                	srli	a5,a5,0x10
    9694:	873e                	mv	a4,a5
    9696:	479d                	li	a5,7
    9698:	04f71263          	bne	a4,a5,96dc <usbd_vendor_request_handler+0x23a>
    969c:	fd842783          	lw	a5,-40(s0)
    96a0:	4398                	lw	a4,0(a5)
    96a2:	200067b7          	lui	a5,0x20006
    96a6:	3a078793          	addi	a5,a5,928 # 200063a0 <g_usbd_core>
    96aa:	539c                	lw	a5,32(a5)
    96ac:	4394                	lw	a3,0(a5)
    96ae:	200067b7          	lui	a5,0x20006
    96b2:	3a078793          	addi	a5,a5,928 # 200063a0 <g_usbd_core>
    96b6:	539c                	lw	a5,32(a5)
    96b8:	23de                	.2byte	0x23de
    96ba:	863e                	mv	a2,a5
    96bc:	85b6                	mv	a1,a3
    96be:	853a                	mv	a0,a4
    96c0:	b41f60ef          	jal	ra,200 <memcpy>
    96c4:	200067b7          	lui	a5,0x20006
    96c8:	3a078793          	addi	a5,a5,928 # 200063a0 <g_usbd_core>
    96cc:	539c                	lw	a5,32(a5)
    96ce:	23de                	.2byte	0x23de
    96d0:	873e                	mv	a4,a5
    96d2:	fd442783          	lw	a5,-44(s0)
    96d6:	c398                	sw	a4,0(a5)
    96d8:	4781                	li	a5,0
    96da:	a885                	j	974a <usbd_vendor_request_handler+0x2a8>
    96dc:	57fd                	li	a5,-1
    96de:	a0b5                	j	974a <usbd_vendor_request_handler+0x2a8>
    96e0:	fe0407a3          	sb	zero,-17(s0)
    96e4:	a881                	j	9734 <usbd_vendor_request_handler+0x292>
    96e6:	fef44783          	lbu	a5,-17(s0)
    96ea:	20006737          	lui	a4,0x20006
    96ee:	3a070713          	addi	a4,a4,928 # 200063a0 <g_usbd_core>
    96f2:	04878793          	addi	a5,a5,72
    96f6:	078a                	slli	a5,a5,0x2
    96f8:	97ba                	add	a5,a5,a4
    96fa:	47dc                	lw	a5,12(a5)
    96fc:	fef42223          	sw	a5,-28(s0)
    9700:	fe442783          	lw	a5,-28(s0)
    9704:	c39d                	beqz	a5,972a <usbd_vendor_request_handler+0x288>
    9706:	fe442783          	lw	a5,-28(s0)
    970a:	479c                	lw	a5,8(a5)
    970c:	cf99                	beqz	a5,972a <usbd_vendor_request_handler+0x288>
    970e:	fe442783          	lw	a5,-28(s0)
    9712:	479c                	lw	a5,8(a5)
    9714:	fd442603          	lw	a2,-44(s0)
    9718:	fd842583          	lw	a1,-40(s0)
    971c:	fdc42503          	lw	a0,-36(s0)
    9720:	9782                	jalr	a5
    9722:	87aa                	mv	a5,a0
    9724:	e399                	bnez	a5,972a <usbd_vendor_request_handler+0x288>
    9726:	4781                	li	a5,0
    9728:	a00d                	j	974a <usbd_vendor_request_handler+0x2a8>
    972a:	fef44783          	lbu	a5,-17(s0)
    972e:	0785                	addi	a5,a5,1
    9730:	fef407a3          	sb	a5,-17(s0)
    9734:	200067b7          	lui	a5,0x20006
    9738:	3a078793          	addi	a5,a5,928 # 200063a0 <g_usbd_core>
    973c:	14c7c783          	lbu	a5,332(a5)
    9740:	fef44703          	lbu	a4,-17(s0)
    9744:	faf761e3          	bltu	a4,a5,96e6 <usbd_vendor_request_handler+0x244>
    9748:	57fd                	li	a5,-1
    974a:	853e                	mv	a0,a5
    974c:	50b2                	lw	ra,44(sp)
    974e:	5422                	lw	s0,40(sp)
    9750:	6145                	addi	sp,sp,48
    9752:	8082                	ret

00009754 <usbd_setup_request_handler>:
    9754:	1101                	addi	sp,sp,-32
    9756:	ce06                	sw	ra,28(sp)
    9758:	cc22                	sw	s0,24(sp)
    975a:	1000                	addi	s0,sp,32
    975c:	fea42623          	sw	a0,-20(s0)
    9760:	feb42423          	sw	a1,-24(s0)
    9764:	fec42223          	sw	a2,-28(s0)
    9768:	fec42783          	lw	a5,-20(s0)
    976c:	239c                	.2byte	0x239c
    976e:	0607f793          	andi	a5,a5,96
    9772:	04000713          	li	a4,64
    9776:	04e78e63          	beq	a5,a4,97d2 <usbd_setup_request_handler+0x7e>
    977a:	04000713          	li	a4,64
    977e:	06f76a63          	bltu	a4,a5,97f2 <usbd_setup_request_handler+0x9e>
    9782:	c791                	beqz	a5,978e <usbd_setup_request_handler+0x3a>
    9784:	02000713          	li	a4,32
    9788:	02e78463          	beq	a5,a4,97b0 <usbd_setup_request_handler+0x5c>
    978c:	a09d                	j	97f2 <usbd_setup_request_handler+0x9e>
    978e:	fe442603          	lw	a2,-28(s0)
    9792:	fe842583          	lw	a1,-24(s0)
    9796:	fec42503          	lw	a0,-20(s0)
    979a:	b23ff0ef          	jal	ra,92bc <usbd_standard_request_handler>
    979e:	87aa                	mv	a5,a0
    97a0:	0407db63          	bgez	a5,97f6 <usbd_setup_request_handler+0xa2>
    97a4:	fec42503          	lw	a0,-20(s0)
    97a8:	a84ff0ef          	jal	ra,8a2c <usbd_print_setup>
    97ac:	4781                	li	a5,0
    97ae:	a891                	j	9802 <usbd_setup_request_handler+0xae>
    97b0:	fe442603          	lw	a2,-28(s0)
    97b4:	fe842583          	lw	a1,-24(s0)
    97b8:	fec42503          	lw	a0,-20(s0)
    97bc:	bbdff0ef          	jal	ra,9378 <usbd_class_request_handler>
    97c0:	87aa                	mv	a5,a0
    97c2:	0207dc63          	bgez	a5,97fa <usbd_setup_request_handler+0xa6>
    97c6:	fec42503          	lw	a0,-20(s0)
    97ca:	a62ff0ef          	jal	ra,8a2c <usbd_print_setup>
    97ce:	4781                	li	a5,0
    97d0:	a80d                	j	9802 <usbd_setup_request_handler+0xae>
    97d2:	fe442603          	lw	a2,-28(s0)
    97d6:	fe842583          	lw	a1,-24(s0)
    97da:	fec42503          	lw	a0,-20(s0)
    97de:	31d1                	jal	94a2 <usbd_vendor_request_handler>
    97e0:	87aa                	mv	a5,a0
    97e2:	0007de63          	bgez	a5,97fe <usbd_setup_request_handler+0xaa>
    97e6:	fec42503          	lw	a0,-20(s0)
    97ea:	a42ff0ef          	jal	ra,8a2c <usbd_print_setup>
    97ee:	4781                	li	a5,0
    97f0:	a809                	j	9802 <usbd_setup_request_handler+0xae>
    97f2:	4781                	li	a5,0
    97f4:	a039                	j	9802 <usbd_setup_request_handler+0xae>
    97f6:	0001                	nop
    97f8:	a021                	j	9800 <usbd_setup_request_handler+0xac>
    97fa:	0001                	nop
    97fc:	a011                	j	9800 <usbd_setup_request_handler+0xac>
    97fe:	0001                	nop
    9800:	4785                	li	a5,1
    9802:	853e                	mv	a0,a5
    9804:	40f2                	lw	ra,28(sp)
    9806:	4462                	lw	s0,24(sp)
    9808:	6105                	addi	sp,sp,32
    980a:	8082                	ret

0000980c <usbd_class_event_notify_handler>:
    980c:	7179                	addi	sp,sp,-48
    980e:	d606                	sw	ra,44(sp)
    9810:	d422                	sw	s0,40(sp)
    9812:	1800                	addi	s0,sp,48
    9814:	87aa                	mv	a5,a0
    9816:	fcb42c23          	sw	a1,-40(s0)
    981a:	fcf40fa3          	sb	a5,-33(s0)
    981e:	fe0407a3          	sb	zero,-17(s0)
    9822:	a059                	j	98a8 <usbd_class_event_notify_handler+0x9c>
    9824:	fef44783          	lbu	a5,-17(s0)
    9828:	20006737          	lui	a4,0x20006
    982c:	3a070713          	addi	a4,a4,928 # 200063a0 <g_usbd_core>
    9830:	04878793          	addi	a5,a5,72
    9834:	078a                	slli	a5,a5,0x2
    9836:	97ba                	add	a5,a5,a4
    9838:	47dc                	lw	a5,12(a5)
    983a:	fef42423          	sw	a5,-24(s0)
    983e:	fd842783          	lw	a5,-40(s0)
    9842:	cf95                	beqz	a5,987e <usbd_class_event_notify_handler+0x72>
    9844:	fd842783          	lw	a5,-40(s0)
    9848:	fef42223          	sw	a5,-28(s0)
    984c:	fe842783          	lw	a5,-24(s0)
    9850:	c7b9                	beqz	a5,989e <usbd_class_event_notify_handler+0x92>
    9852:	fe842783          	lw	a5,-24(s0)
    9856:	47dc                	lw	a5,12(a5)
    9858:	c3b9                	beqz	a5,989e <usbd_class_event_notify_handler+0x92>
    985a:	fe442783          	lw	a5,-28(s0)
    985e:	23b8                	.2byte	0x23b8
    9860:	fe842783          	lw	a5,-24(s0)
    9864:	2f9c                	.2byte	0x2f9c
    9866:	02f71c63          	bne	a4,a5,989e <usbd_class_event_notify_handler+0x92>
    986a:	fe842783          	lw	a5,-24(s0)
    986e:	47dc                	lw	a5,12(a5)
    9870:	fdf44703          	lbu	a4,-33(s0)
    9874:	fd842583          	lw	a1,-40(s0)
    9878:	853a                	mv	a0,a4
    987a:	9782                	jalr	a5
    987c:	a00d                	j	989e <usbd_class_event_notify_handler+0x92>
    987e:	fe842783          	lw	a5,-24(s0)
    9882:	cf91                	beqz	a5,989e <usbd_class_event_notify_handler+0x92>
    9884:	fe842783          	lw	a5,-24(s0)
    9888:	47dc                	lw	a5,12(a5)
    988a:	cb91                	beqz	a5,989e <usbd_class_event_notify_handler+0x92>
    988c:	fe842783          	lw	a5,-24(s0)
    9890:	47dc                	lw	a5,12(a5)
    9892:	fdf44703          	lbu	a4,-33(s0)
    9896:	fd842583          	lw	a1,-40(s0)
    989a:	853a                	mv	a0,a4
    989c:	9782                	jalr	a5
    989e:	fef44783          	lbu	a5,-17(s0)
    98a2:	0785                	addi	a5,a5,1
    98a4:	fef407a3          	sb	a5,-17(s0)
    98a8:	200067b7          	lui	a5,0x20006
    98ac:	3a078793          	addi	a5,a5,928 # 200063a0 <g_usbd_core>
    98b0:	14c7c783          	lbu	a5,332(a5)
    98b4:	fef44703          	lbu	a4,-17(s0)
    98b8:	f6f766e3          	bltu	a4,a5,9824 <usbd_class_event_notify_handler+0x18>
    98bc:	0001                	nop
    98be:	0001                	nop
    98c0:	50b2                	lw	ra,44(sp)
    98c2:	5422                	lw	s0,40(sp)
    98c4:	6145                	addi	sp,sp,48
    98c6:	8082                	ret

000098c8 <usbd_event_reset_handler>:
    98c8:	1101                	addi	sp,sp,-32
    98ca:	ce06                	sw	ra,28(sp)
    98cc:	cc22                	sw	s0,24(sp)
    98ce:	1000                	addi	s0,sp,32
    98d0:	4501                	li	a0,0
    98d2:	2fa1                	jal	a02a <usbd_set_address>
    98d4:	200067b7          	lui	a5,0x20006
    98d8:	3a078793          	addi	a5,a5,928 # 200063a0 <g_usbd_core>
    98dc:	12078423          	sb	zero,296(a5)
    98e0:	04000793          	li	a5,64
    98e4:	fef41523          	sh	a5,-22(s0)
    98e8:	fe0404a3          	sb	zero,-23(s0)
    98ec:	f8000793          	li	a5,-128
    98f0:	fef40423          	sb	a5,-24(s0)
    98f4:	fe840793          	addi	a5,s0,-24
    98f8:	853e                	mv	a0,a5
    98fa:	27a5                	jal	a062 <usbd_ep_open>
    98fc:	fe040423          	sb	zero,-24(s0)
    9900:	fe840793          	addi	a5,s0,-24
    9904:	853e                	mv	a0,a5
    9906:	2fb1                	jal	a062 <usbd_ep_open>
    9908:	4581                	li	a1,0
    990a:	4505                	li	a0,1
    990c:	3701                	jal	980c <usbd_class_event_notify_handler>
    990e:	4505                	li	a0,1
    9910:	97afe0ef          	jal	ra,7a8a <usbd_event_handler>
    9914:	0001                	nop
    9916:	40f2                	lw	ra,28(sp)
    9918:	4462                	lw	s0,24(sp)
    991a:	6105                	addi	sp,sp,32
    991c:	8082                	ret

0000991e <usbd_event_ep0_setup_complete_handler>:
    991e:	7179                	addi	sp,sp,-48
    9920:	d606                	sw	ra,44(sp)
    9922:	d422                	sw	s0,40(sp)
    9924:	1800                	addi	s0,sp,48
    9926:	fca42e23          	sw	a0,-36(s0)
    992a:	200067b7          	lui	a5,0x20006
    992e:	3a078793          	addi	a5,a5,928 # 200063a0 <g_usbd_core>
    9932:	fef42623          	sw	a5,-20(s0)
    9936:	4621                	li	a2,8
    9938:	fdc42583          	lw	a1,-36(s0)
    993c:	fec42503          	lw	a0,-20(s0)
    9940:	8c1f60ef          	jal	ra,200 <memcpy>
    9944:	fec42783          	lw	a5,-20(s0)
    9948:	23f8                	.2byte	0x23f8
    994a:	33fc                	.2byte	0x33fc
    994c:	07a2                	slli	a5,a5,0x8
    994e:	8fd9                	or	a5,a5,a4
    9950:	01079713          	slli	a4,a5,0x10
    9954:	8341                	srli	a4,a4,0x10
    9956:	10000793          	li	a5,256
    995a:	00e7fe63          	bgeu	a5,a4,9976 <usbd_event_ep0_setup_complete_handler+0x58>
    995e:	fec42783          	lw	a5,-20(s0)
    9962:	239c                	.2byte	0x239c
    9964:	07e2                	slli	a5,a5,0x18
    9966:	87e1                	srai	a5,a5,0x18
    9968:	0007c763          	bltz	a5,9976 <usbd_event_ep0_setup_complete_handler+0x58>
    996c:	08000513          	li	a0,128
    9970:	083000ef          	jal	ra,a1f2 <usbd_ep_set_stall>
    9974:	a2ad                	j	9ade <usbd_event_ep0_setup_complete_handler+0x1c0>
    9976:	200067b7          	lui	a5,0x20006
    997a:	3a078793          	addi	a5,a5,928 # 200063a0 <g_usbd_core>
    997e:	20006737          	lui	a4,0x20006
    9982:	3c870713          	addi	a4,a4,968 # 200063c8 <g_usbd_core+0x28>
    9986:	c798                	sw	a4,8(a5)
    9988:	fec42783          	lw	a5,-20(s0)
    998c:	23f8                	.2byte	0x23f8
    998e:	33fc                	.2byte	0x33fc
    9990:	07a2                	slli	a5,a5,0x8
    9992:	8fd9                	or	a5,a5,a4
    9994:	07c2                	slli	a5,a5,0x10
    9996:	83c1                	srli	a5,a5,0x10
    9998:	873e                	mv	a4,a5
    999a:	200067b7          	lui	a5,0x20006
    999e:	3a078793          	addi	a5,a5,928 # 200063a0 <g_usbd_core>
    99a2:	c7d8                	sw	a4,12(a5)
    99a4:	fec42783          	lw	a5,-20(s0)
    99a8:	23f8                	.2byte	0x23f8
    99aa:	33fc                	.2byte	0x33fc
    99ac:	07a2                	slli	a5,a5,0x8
    99ae:	8fd9                	or	a5,a5,a4
    99b0:	07c2                	slli	a5,a5,0x10
    99b2:	83c1                	srli	a5,a5,0x10
    99b4:	873e                	mv	a4,a5
    99b6:	200067b7          	lui	a5,0x20006
    99ba:	3a078793          	addi	a5,a5,928 # 200063a0 <g_usbd_core>
    99be:	cb98                	sw	a4,16(a5)
    99c0:	200067b7          	lui	a5,0x20006
    99c4:	3a078793          	addi	a5,a5,928 # 200063a0 <g_usbd_core>
    99c8:	00078a23          	sb	zero,20(a5)
    99cc:	fec42783          	lw	a5,-20(s0)
    99d0:	23f8                	.2byte	0x23f8
    99d2:	33fc                	.2byte	0x33fc
    99d4:	07a2                	slli	a5,a5,0x8
    99d6:	8fd9                	or	a5,a5,a4
    99d8:	07c2                	slli	a5,a5,0x10
    99da:	83c1                	srli	a5,a5,0x10
    99dc:	cb9d                	beqz	a5,9a12 <usbd_event_ep0_setup_complete_handler+0xf4>
    99de:	fec42783          	lw	a5,-20(s0)
    99e2:	239c                	.2byte	0x239c
    99e4:	07e2                	slli	a5,a5,0x18
    99e6:	87e1                	srai	a5,a5,0x18
    99e8:	0207c563          	bltz	a5,9a12 <usbd_event_ep0_setup_complete_handler+0xf4>
    99ec:	200067b7          	lui	a5,0x20006
    99f0:	3a078793          	addi	a5,a5,928 # 200063a0 <g_usbd_core>
    99f4:	4794                	lw	a3,8(a5)
    99f6:	fec42783          	lw	a5,-20(s0)
    99fa:	23f8                	.2byte	0x23f8
    99fc:	33fc                	.2byte	0x33fc
    99fe:	07a2                	slli	a5,a5,0x8
    9a00:	8fd9                	or	a5,a5,a4
    9a02:	07c2                	slli	a5,a5,0x10
    9a04:	83c1                	srli	a5,a5,0x10
    9a06:	863e                	mv	a2,a5
    9a08:	85b6                	mv	a1,a3
    9a0a:	4501                	li	a0,0
    9a0c:	33f000ef          	jal	ra,a54a <usbd_ep_start_read>
    9a10:	a0f9                	j	9ade <usbd_event_ep0_setup_complete_handler+0x1c0>
    9a12:	200067b7          	lui	a5,0x20006
    9a16:	3b078613          	addi	a2,a5,944 # 200063b0 <g_usbd_core+0x10>
    9a1a:	200067b7          	lui	a5,0x20006
    9a1e:	3a878593          	addi	a1,a5,936 # 200063a8 <g_usbd_core+0x8>
    9a22:	fec42503          	lw	a0,-20(s0)
    9a26:	333d                	jal	9754 <usbd_setup_request_handler>
    9a28:	87aa                	mv	a5,a0
    9a2a:	0017c793          	xori	a5,a5,1
    9a2e:	0ff7f793          	zext.b	a5,a5
    9a32:	c791                	beqz	a5,9a3e <usbd_event_ep0_setup_complete_handler+0x120>
    9a34:	08000513          	li	a0,128
    9a38:	7ba000ef          	jal	ra,a1f2 <usbd_ep_set_stall>
    9a3c:	a04d                	j	9ade <usbd_event_ep0_setup_complete_handler+0x1c0>
    9a3e:	fec42783          	lw	a5,-20(s0)
    9a42:	23f8                	.2byte	0x23f8
    9a44:	33fc                	.2byte	0x33fc
    9a46:	07a2                	slli	a5,a5,0x8
    9a48:	8fd9                	or	a5,a5,a4
    9a4a:	07c2                	slli	a5,a5,0x10
    9a4c:	83c1                	srli	a5,a5,0x10
    9a4e:	86be                	mv	a3,a5
    9a50:	200067b7          	lui	a5,0x20006
    9a54:	3a078793          	addi	a5,a5,928 # 200063a0 <g_usbd_core>
    9a58:	4b98                	lw	a4,16(a5)
    9a5a:	87b6                	mv	a5,a3
    9a5c:	00f77363          	bgeu	a4,a5,9a62 <usbd_event_ep0_setup_complete_handler+0x144>
    9a60:	87ba                	mv	a5,a4
    9a62:	20006737          	lui	a4,0x20006
    9a66:	3a070713          	addi	a4,a4,928 # 200063a0 <g_usbd_core>
    9a6a:	c75c                	sw	a5,12(a4)
    9a6c:	200067b7          	lui	a5,0x20006
    9a70:	3a078793          	addi	a5,a5,928 # 200063a0 <g_usbd_core>
    9a74:	47d8                	lw	a4,12(a5)
    9a76:	10000793          	li	a5,256
    9a7a:	06e7e163          	bltu	a5,a4,9adc <usbd_event_ep0_setup_complete_handler+0x1be>
    9a7e:	200067b7          	lui	a5,0x20006
    9a82:	3a078793          	addi	a5,a5,928 # 200063a0 <g_usbd_core>
    9a86:	4798                	lw	a4,8(a5)
    9a88:	200067b7          	lui	a5,0x20006
    9a8c:	3a078793          	addi	a5,a5,928 # 200063a0 <g_usbd_core>
    9a90:	47dc                	lw	a5,12(a5)
    9a92:	863e                	mv	a2,a5
    9a94:	85ba                	mv	a1,a4
    9a96:	08000513          	li	a0,128
    9a9a:	073000ef          	jal	ra,a30c <usbd_ep_start_write>
    9a9e:	fec42783          	lw	a5,-20(s0)
    9aa2:	23f8                	.2byte	0x23f8
    9aa4:	33fc                	.2byte	0x33fc
    9aa6:	07a2                	slli	a5,a5,0x8
    9aa8:	8fd9                	or	a5,a5,a4
    9aaa:	07c2                	slli	a5,a5,0x10
    9aac:	83c1                	srli	a5,a5,0x10
    9aae:	873e                	mv	a4,a5
    9ab0:	200067b7          	lui	a5,0x20006
    9ab4:	3a078793          	addi	a5,a5,928 # 200063a0 <g_usbd_core>
    9ab8:	4b9c                	lw	a5,16(a5)
    9aba:	02e7f263          	bgeu	a5,a4,9ade <usbd_event_ep0_setup_complete_handler+0x1c0>
    9abe:	200067b7          	lui	a5,0x20006
    9ac2:	3a078793          	addi	a5,a5,928 # 200063a0 <g_usbd_core>
    9ac6:	4b9c                	lw	a5,16(a5)
    9ac8:	03f7f793          	andi	a5,a5,63
    9acc:	eb89                	bnez	a5,9ade <usbd_event_ep0_setup_complete_handler+0x1c0>
    9ace:	200067b7          	lui	a5,0x20006
    9ad2:	3a078793          	addi	a5,a5,928 # 200063a0 <g_usbd_core>
    9ad6:	4705                	li	a4,1
    9ad8:	abd8                	.2byte	0xabd8
    9ada:	a011                	j	9ade <usbd_event_ep0_setup_complete_handler+0x1c0>
    9adc:	0001                	nop
    9ade:	50b2                	lw	ra,44(sp)
    9ae0:	5422                	lw	s0,40(sp)
    9ae2:	6145                	addi	sp,sp,48
    9ae4:	8082                	ret

00009ae6 <usbd_event_ep0_in_complete_handler>:
    9ae6:	7179                	addi	sp,sp,-48
    9ae8:	d606                	sw	ra,44(sp)
    9aea:	d422                	sw	s0,40(sp)
    9aec:	1800                	addi	s0,sp,48
    9aee:	87aa                	mv	a5,a0
    9af0:	fcb42c23          	sw	a1,-40(s0)
    9af4:	fcf40fa3          	sb	a5,-33(s0)
    9af8:	200067b7          	lui	a5,0x20006
    9afc:	3a078793          	addi	a5,a5,928 # 200063a0 <g_usbd_core>
    9b00:	fef42623          	sw	a5,-20(s0)
    9b04:	200067b7          	lui	a5,0x20006
    9b08:	3a078793          	addi	a5,a5,928 # 200063a0 <g_usbd_core>
    9b0c:	4798                	lw	a4,8(a5)
    9b0e:	fd842783          	lw	a5,-40(s0)
    9b12:	973e                	add	a4,a4,a5
    9b14:	200067b7          	lui	a5,0x20006
    9b18:	3a078793          	addi	a5,a5,928 # 200063a0 <g_usbd_core>
    9b1c:	c798                	sw	a4,8(a5)
    9b1e:	200067b7          	lui	a5,0x20006
    9b22:	3a078793          	addi	a5,a5,928 # 200063a0 <g_usbd_core>
    9b26:	47d8                	lw	a4,12(a5)
    9b28:	fd842783          	lw	a5,-40(s0)
    9b2c:	8f1d                	sub	a4,a4,a5
    9b2e:	200067b7          	lui	a5,0x20006
    9b32:	3a078793          	addi	a5,a5,928 # 200063a0 <g_usbd_core>
    9b36:	c7d8                	sw	a4,12(a5)
    9b38:	200067b7          	lui	a5,0x20006
    9b3c:	3a078793          	addi	a5,a5,928 # 200063a0 <g_usbd_core>
    9b40:	47dc                	lw	a5,12(a5)
    9b42:	c38d                	beqz	a5,9b64 <usbd_event_ep0_in_complete_handler+0x7e>
    9b44:	200067b7          	lui	a5,0x20006
    9b48:	3a078793          	addi	a5,a5,928 # 200063a0 <g_usbd_core>
    9b4c:	4798                	lw	a4,8(a5)
    9b4e:	200067b7          	lui	a5,0x20006
    9b52:	3a078793          	addi	a5,a5,928 # 200063a0 <g_usbd_core>
    9b56:	47dc                	lw	a5,12(a5)
    9b58:	863e                	mv	a2,a5
    9b5a:	85ba                	mv	a1,a4
    9b5c:	08000513          	li	a0,128
    9b60:	2775                	jal	a30c <usbd_ep_start_write>
    9b62:	a881                	j	9bb2 <usbd_event_ep0_in_complete_handler+0xcc>
    9b64:	200067b7          	lui	a5,0x20006
    9b68:	3a078793          	addi	a5,a5,928 # 200063a0 <g_usbd_core>
    9b6c:	2bdc                	.2byte	0x2bdc
    9b6e:	cf89                	beqz	a5,9b88 <usbd_event_ep0_in_complete_handler+0xa2>
    9b70:	200067b7          	lui	a5,0x20006
    9b74:	3a078793          	addi	a5,a5,928 # 200063a0 <g_usbd_core>
    9b78:	00078a23          	sb	zero,20(a5)
    9b7c:	4601                	li	a2,0
    9b7e:	4581                	li	a1,0
    9b80:	08000513          	li	a0,128
    9b84:	2761                	jal	a30c <usbd_ep_start_write>
    9b86:	a035                	j	9bb2 <usbd_event_ep0_in_complete_handler+0xcc>
    9b88:	fec42783          	lw	a5,-20(s0)
    9b8c:	23f8                	.2byte	0x23f8
    9b8e:	33fc                	.2byte	0x33fc
    9b90:	07a2                	slli	a5,a5,0x8
    9b92:	8fd9                	or	a5,a5,a4
    9b94:	07c2                	slli	a5,a5,0x10
    9b96:	83c1                	srli	a5,a5,0x10
    9b98:	cf89                	beqz	a5,9bb2 <usbd_event_ep0_in_complete_handler+0xcc>
    9b9a:	fec42783          	lw	a5,-20(s0)
    9b9e:	239c                	.2byte	0x239c
    9ba0:	07e2                	slli	a5,a5,0x18
    9ba2:	87e1                	srai	a5,a5,0x18
    9ba4:	0007d763          	bgez	a5,9bb2 <usbd_event_ep0_in_complete_handler+0xcc>
    9ba8:	4601                	li	a2,0
    9baa:	4581                	li	a1,0
    9bac:	4501                	li	a0,0
    9bae:	19d000ef          	jal	ra,a54a <usbd_ep_start_read>
    9bb2:	0001                	nop
    9bb4:	50b2                	lw	ra,44(sp)
    9bb6:	5422                	lw	s0,40(sp)
    9bb8:	6145                	addi	sp,sp,48
    9bba:	8082                	ret

00009bbc <usbd_event_ep0_out_complete_handler>:
    9bbc:	7179                	addi	sp,sp,-48
    9bbe:	d606                	sw	ra,44(sp)
    9bc0:	d422                	sw	s0,40(sp)
    9bc2:	1800                	addi	s0,sp,48
    9bc4:	87aa                	mv	a5,a0
    9bc6:	fcb42c23          	sw	a1,-40(s0)
    9bca:	fcf40fa3          	sb	a5,-33(s0)
    9bce:	200067b7          	lui	a5,0x20006
    9bd2:	3a078793          	addi	a5,a5,928 # 200063a0 <g_usbd_core>
    9bd6:	fef42623          	sw	a5,-20(s0)
    9bda:	fd842783          	lw	a5,-40(s0)
    9bde:	c7cd                	beqz	a5,9c88 <usbd_event_ep0_out_complete_handler+0xcc>
    9be0:	200067b7          	lui	a5,0x20006
    9be4:	3a078793          	addi	a5,a5,928 # 200063a0 <g_usbd_core>
    9be8:	4798                	lw	a4,8(a5)
    9bea:	fd842783          	lw	a5,-40(s0)
    9bee:	973e                	add	a4,a4,a5
    9bf0:	200067b7          	lui	a5,0x20006
    9bf4:	3a078793          	addi	a5,a5,928 # 200063a0 <g_usbd_core>
    9bf8:	c798                	sw	a4,8(a5)
    9bfa:	200067b7          	lui	a5,0x20006
    9bfe:	3a078793          	addi	a5,a5,928 # 200063a0 <g_usbd_core>
    9c02:	47d8                	lw	a4,12(a5)
    9c04:	fd842783          	lw	a5,-40(s0)
    9c08:	8f1d                	sub	a4,a4,a5
    9c0a:	200067b7          	lui	a5,0x20006
    9c0e:	3a078793          	addi	a5,a5,928 # 200063a0 <g_usbd_core>
    9c12:	c7d8                	sw	a4,12(a5)
    9c14:	200067b7          	lui	a5,0x20006
    9c18:	3a078793          	addi	a5,a5,928 # 200063a0 <g_usbd_core>
    9c1c:	47dc                	lw	a5,12(a5)
    9c1e:	e7b1                	bnez	a5,9c6a <usbd_event_ep0_out_complete_handler+0xae>
    9c20:	200067b7          	lui	a5,0x20006
    9c24:	3a078793          	addi	a5,a5,928 # 200063a0 <g_usbd_core>
    9c28:	20006737          	lui	a4,0x20006
    9c2c:	3c870713          	addi	a4,a4,968 # 200063c8 <g_usbd_core+0x28>
    9c30:	c798                	sw	a4,8(a5)
    9c32:	200067b7          	lui	a5,0x20006
    9c36:	3b078613          	addi	a2,a5,944 # 200063b0 <g_usbd_core+0x10>
    9c3a:	200067b7          	lui	a5,0x20006
    9c3e:	3a878593          	addi	a1,a5,936 # 200063a8 <g_usbd_core+0x8>
    9c42:	fec42503          	lw	a0,-20(s0)
    9c46:	b0fff0ef          	jal	ra,9754 <usbd_setup_request_handler>
    9c4a:	87aa                	mv	a5,a0
    9c4c:	0017c793          	xori	a5,a5,1
    9c50:	0ff7f793          	zext.b	a5,a5
    9c54:	c789                	beqz	a5,9c5e <usbd_event_ep0_out_complete_handler+0xa2>
    9c56:	08000513          	li	a0,128
    9c5a:	2b61                	jal	a1f2 <usbd_ep_set_stall>
    9c5c:	a035                	j	9c88 <usbd_event_ep0_out_complete_handler+0xcc>
    9c5e:	4601                	li	a2,0
    9c60:	4581                	li	a1,0
    9c62:	08000513          	li	a0,128
    9c66:	255d                	jal	a30c <usbd_ep_start_write>
    9c68:	a005                	j	9c88 <usbd_event_ep0_out_complete_handler+0xcc>
    9c6a:	200067b7          	lui	a5,0x20006
    9c6e:	3a078793          	addi	a5,a5,928 # 200063a0 <g_usbd_core>
    9c72:	4798                	lw	a4,8(a5)
    9c74:	200067b7          	lui	a5,0x20006
    9c78:	3a078793          	addi	a5,a5,928 # 200063a0 <g_usbd_core>
    9c7c:	47dc                	lw	a5,12(a5)
    9c7e:	863e                	mv	a2,a5
    9c80:	85ba                	mv	a1,a4
    9c82:	4501                	li	a0,0
    9c84:	0c7000ef          	jal	ra,a54a <usbd_ep_start_read>
    9c88:	50b2                	lw	ra,44(sp)
    9c8a:	5422                	lw	s0,40(sp)
    9c8c:	6145                	addi	sp,sp,48
    9c8e:	8082                	ret

00009c90 <usbd_event_ep_in_complete_handler>:
    9c90:	1101                	addi	sp,sp,-32
    9c92:	ce06                	sw	ra,28(sp)
    9c94:	cc22                	sw	s0,24(sp)
    9c96:	1000                	addi	s0,sp,32
    9c98:	87aa                	mv	a5,a0
    9c9a:	feb42423          	sw	a1,-24(s0)
    9c9e:	fef407a3          	sb	a5,-17(s0)
    9ca2:	fef44783          	lbu	a5,-17(s0)
    9ca6:	07f7f713          	andi	a4,a5,127
    9caa:	200067b7          	lui	a5,0x20006
    9cae:	3a078693          	addi	a3,a5,928 # 200063a0 <g_usbd_core>
    9cb2:	87ba                	mv	a5,a4
    9cb4:	0786                	slli	a5,a5,0x1
    9cb6:	97ba                	add	a5,a5,a4
    9cb8:	078a                	slli	a5,a5,0x2
    9cba:	97b6                	add	a5,a5,a3
    9cbc:	1587a783          	lw	a5,344(a5)
    9cc0:	c795                	beqz	a5,9cec <usbd_event_ep_in_complete_handler+0x5c>
    9cc2:	fef44783          	lbu	a5,-17(s0)
    9cc6:	07f7f713          	andi	a4,a5,127
    9cca:	200067b7          	lui	a5,0x20006
    9cce:	3a078693          	addi	a3,a5,928 # 200063a0 <g_usbd_core>
    9cd2:	87ba                	mv	a5,a4
    9cd4:	0786                	slli	a5,a5,0x1
    9cd6:	97ba                	add	a5,a5,a4
    9cd8:	078a                	slli	a5,a5,0x2
    9cda:	97b6                	add	a5,a5,a3
    9cdc:	1587a783          	lw	a5,344(a5)
    9ce0:	fef44703          	lbu	a4,-17(s0)
    9ce4:	fe842583          	lw	a1,-24(s0)
    9ce8:	853a                	mv	a0,a4
    9cea:	9782                	jalr	a5
    9cec:	0001                	nop
    9cee:	40f2                	lw	ra,28(sp)
    9cf0:	4462                	lw	s0,24(sp)
    9cf2:	6105                	addi	sp,sp,32
    9cf4:	8082                	ret

00009cf6 <usbd_event_ep_out_complete_handler>:
    9cf6:	1101                	addi	sp,sp,-32
    9cf8:	ce06                	sw	ra,28(sp)
    9cfa:	cc22                	sw	s0,24(sp)
    9cfc:	1000                	addi	s0,sp,32
    9cfe:	87aa                	mv	a5,a0
    9d00:	feb42423          	sw	a1,-24(s0)
    9d04:	fef407a3          	sb	a5,-17(s0)
    9d08:	fef44783          	lbu	a5,-17(s0)
    9d0c:	07f7f713          	andi	a4,a5,127
    9d10:	200067b7          	lui	a5,0x20006
    9d14:	3a078693          	addi	a3,a5,928 # 200063a0 <g_usbd_core>
    9d18:	87ba                	mv	a5,a4
    9d1a:	0786                	slli	a5,a5,0x1
    9d1c:	97ba                	add	a5,a5,a4
    9d1e:	078a                	slli	a5,a5,0x2
    9d20:	97b6                	add	a5,a5,a3
    9d22:	1b87a783          	lw	a5,440(a5)
    9d26:	c795                	beqz	a5,9d52 <usbd_event_ep_out_complete_handler+0x5c>
    9d28:	fef44783          	lbu	a5,-17(s0)
    9d2c:	07f7f713          	andi	a4,a5,127
    9d30:	200067b7          	lui	a5,0x20006
    9d34:	3a078693          	addi	a3,a5,928 # 200063a0 <g_usbd_core>
    9d38:	87ba                	mv	a5,a4
    9d3a:	0786                	slli	a5,a5,0x1
    9d3c:	97ba                	add	a5,a5,a4
    9d3e:	078a                	slli	a5,a5,0x2
    9d40:	97b6                	add	a5,a5,a3
    9d42:	1b87a783          	lw	a5,440(a5)
    9d46:	fef44703          	lbu	a4,-17(s0)
    9d4a:	fe842583          	lw	a1,-24(s0)
    9d4e:	853a                	mv	a0,a4
    9d50:	9782                	jalr	a5
    9d52:	0001                	nop
    9d54:	40f2                	lw	ra,28(sp)
    9d56:	4462                	lw	s0,24(sp)
    9d58:	6105                	addi	sp,sp,32
    9d5a:	8082                	ret

00009d5c <usbd_desc_register>:
    9d5c:	1101                	addi	sp,sp,-32
    9d5e:	ce06                	sw	ra,28(sp)
    9d60:	cc22                	sw	s0,24(sp)
    9d62:	1000                	addi	s0,sp,32
    9d64:	fea42623          	sw	a0,-20(s0)
    9d68:	21000613          	li	a2,528
    9d6c:	4581                	li	a1,0
    9d6e:	200067b7          	lui	a5,0x20006
    9d72:	3a078513          	addi	a0,a5,928 # 200063a0 <g_usbd_core>
    9d76:	ca0f60ef          	jal	ra,216 <memset>
    9d7a:	200067b7          	lui	a5,0x20006
    9d7e:	3a078793          	addi	a5,a5,928 # 200063a0 <g_usbd_core>
    9d82:	fec42703          	lw	a4,-20(s0)
    9d86:	cf98                	sw	a4,24(a5)
    9d88:	200067b7          	lui	a5,0x20006
    9d8c:	3a078793          	addi	a5,a5,928 # 200063a0 <g_usbd_core>
    9d90:	14078623          	sb	zero,332(a5)
    9d94:	200067b7          	lui	a5,0x20006
    9d98:	3a078793          	addi	a5,a5,928 # 200063a0 <g_usbd_core>
    9d9c:	f8000713          	li	a4,-128
    9da0:	14e78823          	sb	a4,336(a5)
    9da4:	200067b7          	lui	a5,0x20006
    9da8:	3a078793          	addi	a5,a5,928 # 200063a0 <g_usbd_core>
    9dac:	6729                	lui	a4,0xa
    9dae:	ae670713          	addi	a4,a4,-1306 # 9ae6 <usbd_event_ep0_in_complete_handler>
    9db2:	14e7ac23          	sw	a4,344(a5)
    9db6:	200067b7          	lui	a5,0x20006
    9dba:	3a078793          	addi	a5,a5,928 # 200063a0 <g_usbd_core>
    9dbe:	1a078823          	sb	zero,432(a5)
    9dc2:	200067b7          	lui	a5,0x20006
    9dc6:	3a078793          	addi	a5,a5,928 # 200063a0 <g_usbd_core>
    9dca:	6729                	lui	a4,0xa
    9dcc:	bbc70713          	addi	a4,a4,-1092 # 9bbc <usbd_event_ep0_out_complete_handler>
    9dd0:	1ae7ac23          	sw	a4,440(a5)
    9dd4:	0001                	nop
    9dd6:	40f2                	lw	ra,28(sp)
    9dd8:	4462                	lw	s0,24(sp)
    9dda:	6105                	addi	sp,sp,32
    9ddc:	8082                	ret

00009dde <usbd_msosv2_desc_register>:
    9dde:	1101                	addi	sp,sp,-32
    9de0:	ce22                	sw	s0,28(sp)
    9de2:	1000                	addi	s0,sp,32
    9de4:	fea42623          	sw	a0,-20(s0)
    9de8:	200067b7          	lui	a5,0x20006
    9dec:	3a078793          	addi	a5,a5,928 # 200063a0 <g_usbd_core>
    9df0:	fec42703          	lw	a4,-20(s0)
    9df4:	d398                	sw	a4,32(a5)
    9df6:	0001                	nop
    9df8:	4472                	lw	s0,28(sp)
    9dfa:	6105                	addi	sp,sp,32
    9dfc:	8082                	ret

00009dfe <usbd_bos_desc_register>:
    9dfe:	1101                	addi	sp,sp,-32
    9e00:	ce22                	sw	s0,28(sp)
    9e02:	1000                	addi	s0,sp,32
    9e04:	fea42623          	sw	a0,-20(s0)
    9e08:	200067b7          	lui	a5,0x20006
    9e0c:	3a078793          	addi	a5,a5,928 # 200063a0 <g_usbd_core>
    9e10:	fec42703          	lw	a4,-20(s0)
    9e14:	d3d8                	sw	a4,36(a5)
    9e16:	0001                	nop
    9e18:	4472                	lw	s0,28(sp)
    9e1a:	6105                	addi	sp,sp,32
    9e1c:	8082                	ret

00009e1e <usbd_add_interface>:
    9e1e:	1101                	addi	sp,sp,-32
    9e20:	ce22                	sw	s0,28(sp)
    9e22:	1000                	addi	s0,sp,32
    9e24:	fea42623          	sw	a0,-20(s0)
    9e28:	200067b7          	lui	a5,0x20006
    9e2c:	3a078793          	addi	a5,a5,928 # 200063a0 <g_usbd_core>
    9e30:	14c7c703          	lbu	a4,332(a5)
    9e34:	fec42783          	lw	a5,-20(s0)
    9e38:	af98                	.2byte	0xaf98
    9e3a:	200067b7          	lui	a5,0x20006
    9e3e:	3a078793          	addi	a5,a5,928 # 200063a0 <g_usbd_core>
    9e42:	14c7c783          	lbu	a5,332(a5)
    9e46:	86be                	mv	a3,a5
    9e48:	200067b7          	lui	a5,0x20006
    9e4c:	3a078713          	addi	a4,a5,928 # 200063a0 <g_usbd_core>
    9e50:	04868793          	addi	a5,a3,72
    9e54:	078a                	slli	a5,a5,0x2
    9e56:	97ba                	add	a5,a5,a4
    9e58:	fec42703          	lw	a4,-20(s0)
    9e5c:	c7d8                	sw	a4,12(a5)
    9e5e:	200067b7          	lui	a5,0x20006
    9e62:	3a078793          	addi	a5,a5,928 # 200063a0 <g_usbd_core>
    9e66:	14c7c783          	lbu	a5,332(a5)
    9e6a:	0785                	addi	a5,a5,1
    9e6c:	0ff7f713          	zext.b	a4,a5
    9e70:	200067b7          	lui	a5,0x20006
    9e74:	3a078793          	addi	a5,a5,928 # 200063a0 <g_usbd_core>
    9e78:	14e78623          	sb	a4,332(a5)
    9e7c:	0001                	nop
    9e7e:	4472                	lw	s0,28(sp)
    9e80:	6105                	addi	sp,sp,32
    9e82:	8082                	ret

00009e84 <usbd_add_endpoint>:
    9e84:	1101                	addi	sp,sp,-32
    9e86:	ce22                	sw	s0,28(sp)
    9e88:	1000                	addi	s0,sp,32
    9e8a:	fea42623          	sw	a0,-20(s0)
    9e8e:	fec42783          	lw	a5,-20(s0)
    9e92:	239c                	.2byte	0x239c
    9e94:	07e2                	slli	a5,a5,0x18
    9e96:	87e1                	srai	a5,a5,0x18
    9e98:	0407d963          	bgez	a5,9eea <usbd_add_endpoint+0x66>
    9e9c:	fec42783          	lw	a5,-20(s0)
    9ea0:	239c                	.2byte	0x239c
    9ea2:	07f7f713          	andi	a4,a5,127
    9ea6:	fec42783          	lw	a5,-20(s0)
    9eaa:	2394                	.2byte	0x2394
    9eac:	200067b7          	lui	a5,0x20006
    9eb0:	3a078613          	addi	a2,a5,928 # 200063a0 <g_usbd_core>
    9eb4:	87ba                	mv	a5,a4
    9eb6:	0786                	slli	a5,a5,0x1
    9eb8:	97ba                	add	a5,a5,a4
    9eba:	078a                	slli	a5,a5,0x2
    9ebc:	97b2                	add	a5,a5,a2
    9ebe:	14d78823          	sb	a3,336(a5)
    9ec2:	fec42783          	lw	a5,-20(s0)
    9ec6:	239c                	.2byte	0x239c
    9ec8:	07f7f713          	andi	a4,a5,127
    9ecc:	fec42783          	lw	a5,-20(s0)
    9ed0:	43d4                	lw	a3,4(a5)
    9ed2:	200067b7          	lui	a5,0x20006
    9ed6:	3a078613          	addi	a2,a5,928 # 200063a0 <g_usbd_core>
    9eda:	87ba                	mv	a5,a4
    9edc:	0786                	slli	a5,a5,0x1
    9ede:	97ba                	add	a5,a5,a4
    9ee0:	078a                	slli	a5,a5,0x2
    9ee2:	97b2                	add	a5,a5,a2
    9ee4:	14d7ac23          	sw	a3,344(a5)
    9ee8:	a0b9                	j	9f36 <usbd_add_endpoint+0xb2>
    9eea:	fec42783          	lw	a5,-20(s0)
    9eee:	239c                	.2byte	0x239c
    9ef0:	07f7f713          	andi	a4,a5,127
    9ef4:	fec42783          	lw	a5,-20(s0)
    9ef8:	2394                	.2byte	0x2394
    9efa:	200067b7          	lui	a5,0x20006
    9efe:	3a078613          	addi	a2,a5,928 # 200063a0 <g_usbd_core>
    9f02:	87ba                	mv	a5,a4
    9f04:	0786                	slli	a5,a5,0x1
    9f06:	97ba                	add	a5,a5,a4
    9f08:	078a                	slli	a5,a5,0x2
    9f0a:	97b2                	add	a5,a5,a2
    9f0c:	1ad78823          	sb	a3,432(a5)
    9f10:	fec42783          	lw	a5,-20(s0)
    9f14:	239c                	.2byte	0x239c
    9f16:	07f7f713          	andi	a4,a5,127
    9f1a:	fec42783          	lw	a5,-20(s0)
    9f1e:	43d4                	lw	a3,4(a5)
    9f20:	200067b7          	lui	a5,0x20006
    9f24:	3a078613          	addi	a2,a5,928 # 200063a0 <g_usbd_core>
    9f28:	87ba                	mv	a5,a4
    9f2a:	0786                	slli	a5,a5,0x1
    9f2c:	97ba                	add	a5,a5,a4
    9f2e:	078a                	slli	a5,a5,0x2
    9f30:	97b2                	add	a5,a5,a2
    9f32:	1ad7ac23          	sw	a3,440(a5)
    9f36:	0001                	nop
    9f38:	4472                	lw	s0,28(sp)
    9f3a:	6105                	addi	sp,sp,32
    9f3c:	8082                	ret

00009f3e <usb_device_is_configured>:
    9f3e:	1141                	addi	sp,sp,-16
    9f40:	c622                	sw	s0,12(sp)
    9f42:	0800                	addi	s0,sp,16
    9f44:	200067b7          	lui	a5,0x20006
    9f48:	3a078793          	addi	a5,a5,928 # 200063a0 <g_usbd_core>
    9f4c:	1287c783          	lbu	a5,296(a5)
    9f50:	00f037b3          	snez	a5,a5
    9f54:	0ff7f793          	zext.b	a5,a5
    9f58:	853e                	mv	a0,a5
    9f5a:	4432                	lw	s0,12(sp)
    9f5c:	0141                	addi	sp,sp,16
    9f5e:	8082                	ret

00009f60 <usbd_initialize>:
    9f60:	1141                	addi	sp,sp,-16
    9f62:	c606                	sw	ra,12(sp)
    9f64:	c422                	sw	s0,8(sp)
    9f66:	0800                	addi	s0,sp,16
    9f68:	2039                	jal	9f76 <usb_dc_init>
    9f6a:	87aa                	mv	a5,a0
    9f6c:	853e                	mv	a0,a5
    9f6e:	40b2                	lw	ra,12(sp)
    9f70:	4422                	lw	s0,8(sp)
    9f72:	0141                	addi	sp,sp,16
    9f74:	8082                	ret

00009f76 <usb_dc_init>:
    9f76:	1141                	addi	sp,sp,-16
    9f78:	c606                	sw	ra,12(sp)
    9f7a:	c422                	sw	s0,8(sp)
    9f7c:	0800                	addi	s0,sp,16
    9f7e:	16d020ef          	jal	ra,c8ea <usb_dc_low_level_init>
    9f82:	400237b7          	lui	a5,0x40023
    9f86:	40078793          	addi	a5,a5,1024 # 40023400 <_eusrstack+0x2001b400>
    9f8a:	000780a3          	sb	zero,1(a5)
    9f8e:	400237b7          	lui	a5,0x40023
    9f92:	40078793          	addi	a5,a5,1024 # 40023400 <_eusrstack+0x2001b400>
    9f96:	4741                	li	a4,16
    9f98:	b398                	.2byte	0xb398
    9f9a:	400237b7          	lui	a5,0x40023
    9f9e:	40078793          	addi	a5,a5,1024 # 40023400 <_eusrstack+0x2001b400>
    9fa2:	00078023          	sb	zero,0(a5)
    9fa6:	400237b7          	lui	a5,0x40023
    9faa:	40078793          	addi	a5,a5,1024 # 40023400 <_eusrstack+0x2001b400>
    9fae:	02900713          	li	a4,41
    9fb2:	a398                	.2byte	0xa398
    9fb4:	400237b7          	lui	a5,0x40023
    9fb8:	40078793          	addi	a5,a5,1024 # 40023400 <_eusrstack+0x2001b400>
    9fbc:	577d                	li	a4,-1
    9fbe:	a7b8                	.2byte	0xa7b8
    9fc0:	400237b7          	lui	a5,0x40023
    9fc4:	40078793          	addi	a5,a5,1024 # 40023400 <_eusrstack+0x2001b400>
    9fc8:	00078123          	sb	zero,2(a5)
    9fcc:	400237b7          	lui	a5,0x40023
    9fd0:	40078793          	addi	a5,a5,1024 # 40023400 <_eusrstack+0x2001b400>
    9fd4:	02300713          	li	a4,35
    9fd8:	a3b8                	.2byte	0xa3b8
    9fda:	400237b7          	lui	a5,0x40023
    9fde:	40078793          	addi	a5,a5,1024 # 40023400 <_eusrstack+0x2001b400>
    9fe2:	577d                	li	a4,-1
    9fe4:	cb98                	sw	a4,16(a5)
    9fe6:	400237b7          	lui	a5,0x40023
    9fea:	40078793          	addi	a5,a5,1024 # 40023400 <_eusrstack+0x2001b400>
    9fee:	0007aa23          	sw	zero,20(a5)
    9ff2:	400237b7          	lui	a5,0x40023
    9ff6:	40078793          	addi	a5,a5,1024 # 40023400 <_eusrstack+0x2001b400>
    9ffa:	0007ac23          	sw	zero,24(a5)
    9ffe:	400237b7          	lui	a5,0x40023
    a002:	40078793          	addi	a5,a5,1024 # 40023400 <_eusrstack+0x2001b400>
    a006:	239c                	.2byte	0x239c
    a008:	0ff7f713          	zext.b	a4,a5
    a00c:	400237b7          	lui	a5,0x40023
    a010:	40078793          	addi	a5,a5,1024 # 40023400 <_eusrstack+0x2001b400>
    a014:	01076713          	ori	a4,a4,16
    a018:	0ff77713          	zext.b	a4,a4
    a01c:	a398                	.2byte	0xa398
    a01e:	4781                	li	a5,0
    a020:	853e                	mv	a0,a5
    a022:	40b2                	lw	ra,12(sp)
    a024:	4422                	lw	s0,8(sp)
    a026:	0141                	addi	sp,sp,16
    a028:	8082                	ret

0000a02a <usbd_set_address>:
    a02a:	1101                	addi	sp,sp,-32
    a02c:	ce22                	sw	s0,28(sp)
    a02e:	1000                	addi	s0,sp,32
    a030:	87aa                	mv	a5,a0
    a032:	fef407a3          	sb	a5,-17(s0)
    a036:	fef44783          	lbu	a5,-17(s0)
    a03a:	eb81                	bnez	a5,a04a <usbd_set_address+0x20>
    a03c:	400237b7          	lui	a5,0x40023
    a040:	40078793          	addi	a5,a5,1024 # 40023400 <_eusrstack+0x2001b400>
    a044:	fef44703          	lbu	a4,-17(s0)
    a048:	b3b8                	.2byte	0xb3b8
    a04a:	200067b7          	lui	a5,0x20006
    a04e:	6d878793          	addi	a5,a5,1752 # 200066d8 <g_ch32_usbhs_udc>
    a052:	fef44703          	lbu	a4,-17(s0)
    a056:	a798                	.2byte	0xa798
    a058:	4781                	li	a5,0
    a05a:	853e                	mv	a0,a5
    a05c:	4472                	lw	s0,28(sp)
    a05e:	6105                	addi	sp,sp,32
    a060:	8082                	ret

0000a062 <usbd_ep_open>:
    a062:	7179                	addi	sp,sp,-48
    a064:	d622                	sw	s0,44(sp)
    a066:	1800                	addi	s0,sp,48
    a068:	fca42e23          	sw	a0,-36(s0)
    a06c:	fdc42783          	lw	a5,-36(s0)
    a070:	239c                	.2byte	0x239c
    a072:	07f7f793          	andi	a5,a5,127
    a076:	fef407a3          	sb	a5,-17(s0)
    a07a:	fdc42783          	lw	a5,-36(s0)
    a07e:	239c                	.2byte	0x239c
    a080:	07e2                	slli	a5,a5,0x18
    a082:	87e1                	srai	a5,a5,0x18
    a084:	0a07c063          	bltz	a5,a124 <usbd_ep_open+0xc2>
    a088:	fef44703          	lbu	a4,-17(s0)
    a08c:	fdc42783          	lw	a5,-36(s0)
    a090:	23b6                	.2byte	0x23b6
    a092:	200067b7          	lui	a5,0x20006
    a096:	6d878613          	addi	a2,a5,1752 # 200066d8 <g_ch32_usbhs_udc>
    a09a:	87ba                	mv	a5,a4
    a09c:	078a                	slli	a5,a5,0x2
    a09e:	97ba                	add	a5,a5,a4
    a0a0:	078a                	slli	a5,a5,0x2
    a0a2:	97b2                	add	a5,a5,a2
    a0a4:	14d79623          	sh	a3,332(a5)
    a0a8:	fef44703          	lbu	a4,-17(s0)
    a0ac:	fdc42783          	lw	a5,-36(s0)
    a0b0:	3394                	.2byte	0x3394
    a0b2:	200067b7          	lui	a5,0x20006
    a0b6:	6d878613          	addi	a2,a5,1752 # 200066d8 <g_ch32_usbhs_udc>
    a0ba:	87ba                	mv	a5,a4
    a0bc:	078a                	slli	a5,a5,0x2
    a0be:	97ba                	add	a5,a5,a4
    a0c0:	078a                	slli	a5,a5,0x2
    a0c2:	97b2                	add	a5,a5,a2
    a0c4:	14d78723          	sb	a3,334(a5)
    a0c8:	fef44703          	lbu	a4,-17(s0)
    a0cc:	200067b7          	lui	a5,0x20006
    a0d0:	6d878693          	addi	a3,a5,1752 # 200066d8 <g_ch32_usbhs_udc>
    a0d4:	87ba                	mv	a5,a4
    a0d6:	078a                	slli	a5,a5,0x2
    a0d8:	97ba                	add	a5,a5,a4
    a0da:	078a                	slli	a5,a5,0x2
    a0dc:	97b6                	add	a5,a5,a3
    a0de:	4705                	li	a4,1
    a0e0:	14e78823          	sb	a4,336(a5)
    a0e4:	400237b7          	lui	a5,0x40023
    a0e8:	40078793          	addi	a5,a5,1024 # 40023400 <_eusrstack+0x2001b400>
    a0ec:	4b98                	lw	a4,16(a5)
    a0ee:	fef44783          	lbu	a5,-17(s0)
    a0f2:	07c1                	addi	a5,a5,16
    a0f4:	4685                	li	a3,1
    a0f6:	00f697b3          	sll	a5,a3,a5
    a0fa:	86be                	mv	a3,a5
    a0fc:	400237b7          	lui	a5,0x40023
    a100:	40078793          	addi	a5,a5,1024 # 40023400 <_eusrstack+0x2001b400>
    a104:	8f55                	or	a4,a4,a3
    a106:	cb98                	sw	a4,16(a5)
    a108:	fef44783          	lbu	a5,-17(s0)
    a10c:	078a                	slli	a5,a5,0x2
    a10e:	873e                	mv	a4,a5
    a110:	400237b7          	lui	a5,0x40023
    a114:	4db78793          	addi	a5,a5,1243 # 400234db <_eusrstack+0x2001b4db>
    a118:	97ba                	add	a5,a5,a4
    a11a:	873e                	mv	a4,a5
    a11c:	02200793          	li	a5,34
    a120:	a31c                	.2byte	0xa31c
    a122:	a851                	j	a1b6 <usbd_ep_open+0x154>
    a124:	fef44703          	lbu	a4,-17(s0)
    a128:	fdc42783          	lw	a5,-36(s0)
    a12c:	23b6                	.2byte	0x23b6
    a12e:	200067b7          	lui	a5,0x20006
    a132:	6d878613          	addi	a2,a5,1752 # 200066d8 <g_ch32_usbhs_udc>
    a136:	87ba                	mv	a5,a4
    a138:	078a                	slli	a5,a5,0x2
    a13a:	97ba                	add	a5,a5,a4
    a13c:	078a                	slli	a5,a5,0x2
    a13e:	97b2                	add	a5,a5,a2
    a140:	a7d6                	.2byte	0xa7d6
    a142:	fef44703          	lbu	a4,-17(s0)
    a146:	fdc42783          	lw	a5,-36(s0)
    a14a:	3394                	.2byte	0x3394
    a14c:	200067b7          	lui	a5,0x20006
    a150:	6d878613          	addi	a2,a5,1752 # 200066d8 <g_ch32_usbhs_udc>
    a154:	87ba                	mv	a5,a4
    a156:	078a                	slli	a5,a5,0x2
    a158:	97ba                	add	a5,a5,a4
    a15a:	078a                	slli	a5,a5,0x2
    a15c:	97b2                	add	a5,a5,a2
    a15e:	a7f4                	.2byte	0xa7f4
    a160:	fef44703          	lbu	a4,-17(s0)
    a164:	200067b7          	lui	a5,0x20006
    a168:	6d878693          	addi	a3,a5,1752 # 200066d8 <g_ch32_usbhs_udc>
    a16c:	87ba                	mv	a5,a4
    a16e:	078a                	slli	a5,a5,0x2
    a170:	97ba                	add	a5,a5,a4
    a172:	078a                	slli	a5,a5,0x2
    a174:	97b6                	add	a5,a5,a3
    a176:	4705                	li	a4,1
    a178:	ab98                	.2byte	0xab98
    a17a:	400237b7          	lui	a5,0x40023
    a17e:	40078793          	addi	a5,a5,1024 # 40023400 <_eusrstack+0x2001b400>
    a182:	4b98                	lw	a4,16(a5)
    a184:	fef44783          	lbu	a5,-17(s0)
    a188:	4685                	li	a3,1
    a18a:	00f697b3          	sll	a5,a3,a5
    a18e:	86be                	mv	a3,a5
    a190:	400237b7          	lui	a5,0x40023
    a194:	40078793          	addi	a5,a5,1024 # 40023400 <_eusrstack+0x2001b400>
    a198:	8f55                	or	a4,a4,a3
    a19a:	cb98                	sw	a4,16(a5)
    a19c:	fef44783          	lbu	a5,-17(s0)
    a1a0:	078a                	slli	a5,a5,0x2
    a1a2:	873e                	mv	a4,a5
    a1a4:	400237b7          	lui	a5,0x40023
    a1a8:	4da78793          	addi	a5,a5,1242 # 400234da <_eusrstack+0x2001b4da>
    a1ac:	97ba                	add	a5,a5,a4
    a1ae:	873e                	mv	a4,a5
    a1b0:	02200793          	li	a5,34
    a1b4:	a31c                	.2byte	0xa31c
    a1b6:	fef44783          	lbu	a5,-17(s0)
    a1ba:	078a                	slli	a5,a5,0x2
    a1bc:	873e                	mv	a4,a5
    a1be:	400237b7          	lui	a5,0x40023
    a1c2:	49878793          	addi	a5,a5,1176 # 40023498 <_eusrstack+0x2001b498>
    a1c6:	97ba                	add	a5,a5,a4
    a1c8:	873e                	mv	a4,a5
    a1ca:	fdc42783          	lw	a5,-36(s0)
    a1ce:	23be                	.2byte	0x23be
    a1d0:	a31e                	.2byte	0xa31e
    a1d2:	4781                	li	a5,0
    a1d4:	853e                	mv	a0,a5
    a1d6:	5432                	lw	s0,44(sp)
    a1d8:	6145                	addi	sp,sp,48
    a1da:	8082                	ret

0000a1dc <usbd_ep_close>:
    a1dc:	1101                	addi	sp,sp,-32
    a1de:	ce22                	sw	s0,28(sp)
    a1e0:	1000                	addi	s0,sp,32
    a1e2:	87aa                	mv	a5,a0
    a1e4:	fef407a3          	sb	a5,-17(s0)
    a1e8:	4781                	li	a5,0
    a1ea:	853e                	mv	a0,a5
    a1ec:	4472                	lw	s0,28(sp)
    a1ee:	6105                	addi	sp,sp,32
    a1f0:	8082                	ret

0000a1f2 <usbd_ep_set_stall>:
    a1f2:	7179                	addi	sp,sp,-48
    a1f4:	d622                	sw	s0,44(sp)
    a1f6:	1800                	addi	s0,sp,48
    a1f8:	87aa                	mv	a5,a0
    a1fa:	fcf40fa3          	sb	a5,-33(s0)
    a1fe:	fdf44783          	lbu	a5,-33(s0)
    a202:	07f7f793          	andi	a5,a5,127
    a206:	fef407a3          	sb	a5,-17(s0)
    a20a:	fdf40783          	lb	a5,-33(s0)
    a20e:	0407c863          	bltz	a5,a25e <usbd_ep_set_stall+0x6c>
    a212:	fef44783          	lbu	a5,-17(s0)
    a216:	eb89                	bnez	a5,a228 <usbd_ep_set_stall+0x36>
    a218:	400237b7          	lui	a5,0x40023
    a21c:	40078793          	addi	a5,a5,1024 # 40023400 <_eusrstack+0x2001b400>
    a220:	470d                	li	a4,3
    a222:	0ce78da3          	sb	a4,219(a5)
    a226:	a049                	j	a2a8 <usbd_ep_set_stall+0xb6>
    a228:	fef44783          	lbu	a5,-17(s0)
    a22c:	078a                	slli	a5,a5,0x2
    a22e:	873e                	mv	a4,a5
    a230:	400237b7          	lui	a5,0x40023
    a234:	4db78793          	addi	a5,a5,1243 # 400234db <_eusrstack+0x2001b4db>
    a238:	97ba                	add	a5,a5,a4
    a23a:	239c                	.2byte	0x239c
    a23c:	0ff7f793          	zext.b	a5,a5
    a240:	fef44703          	lbu	a4,-17(s0)
    a244:	070a                	slli	a4,a4,0x2
    a246:	86ba                	mv	a3,a4
    a248:	40023737          	lui	a4,0x40023
    a24c:	4db70713          	addi	a4,a4,1243 # 400234db <_eusrstack+0x2001b4db>
    a250:	9736                	add	a4,a4,a3
    a252:	0037e793          	ori	a5,a5,3
    a256:	0ff7f793          	zext.b	a5,a5
    a25a:	a31c                	.2byte	0xa31c
    a25c:	a0b1                	j	a2a8 <usbd_ep_set_stall+0xb6>
    a25e:	fef44783          	lbu	a5,-17(s0)
    a262:	eb89                	bnez	a5,a274 <usbd_ep_set_stall+0x82>
    a264:	400237b7          	lui	a5,0x40023
    a268:	40078793          	addi	a5,a5,1024 # 40023400 <_eusrstack+0x2001b400>
    a26c:	470d                	li	a4,3
    a26e:	0ce78d23          	sb	a4,218(a5)
    a272:	a81d                	j	a2a8 <usbd_ep_set_stall+0xb6>
    a274:	fef44783          	lbu	a5,-17(s0)
    a278:	078a                	slli	a5,a5,0x2
    a27a:	873e                	mv	a4,a5
    a27c:	400237b7          	lui	a5,0x40023
    a280:	4da78793          	addi	a5,a5,1242 # 400234da <_eusrstack+0x2001b4da>
    a284:	97ba                	add	a5,a5,a4
    a286:	239c                	.2byte	0x239c
    a288:	0ff7f793          	zext.b	a5,a5
    a28c:	fef44703          	lbu	a4,-17(s0)
    a290:	070a                	slli	a4,a4,0x2
    a292:	86ba                	mv	a3,a4
    a294:	40023737          	lui	a4,0x40023
    a298:	4da70713          	addi	a4,a4,1242 # 400234da <_eusrstack+0x2001b4da>
    a29c:	9736                	add	a4,a4,a3
    a29e:	0037e793          	ori	a5,a5,3
    a2a2:	0ff7f793          	zext.b	a5,a5
    a2a6:	a31c                	.2byte	0xa31c
    a2a8:	4781                	li	a5,0
    a2aa:	853e                	mv	a0,a5
    a2ac:	5432                	lw	s0,44(sp)
    a2ae:	6145                	addi	sp,sp,48
    a2b0:	8082                	ret

0000a2b2 <usbd_ep_clear_stall>:
    a2b2:	7179                	addi	sp,sp,-48
    a2b4:	d622                	sw	s0,44(sp)
    a2b6:	1800                	addi	s0,sp,48
    a2b8:	87aa                	mv	a5,a0
    a2ba:	fcf40fa3          	sb	a5,-33(s0)
    a2be:	fdf44783          	lbu	a5,-33(s0)
    a2c2:	07f7f793          	andi	a5,a5,127
    a2c6:	fef407a3          	sb	a5,-17(s0)
    a2ca:	fdf40783          	lb	a5,-33(s0)
    a2ce:	0007ce63          	bltz	a5,a2ea <usbd_ep_clear_stall+0x38>
    a2d2:	fef44783          	lbu	a5,-17(s0)
    a2d6:	078a                	slli	a5,a5,0x2
    a2d8:	873e                	mv	a4,a5
    a2da:	400237b7          	lui	a5,0x40023
    a2de:	4db78793          	addi	a5,a5,1243 # 400234db <_eusrstack+0x2001b4db>
    a2e2:	97ba                	add	a5,a5,a4
    a2e4:	00078023          	sb	zero,0(a5)
    a2e8:	a829                	j	a302 <usbd_ep_clear_stall+0x50>
    a2ea:	fef44783          	lbu	a5,-17(s0)
    a2ee:	078a                	slli	a5,a5,0x2
    a2f0:	873e                	mv	a4,a5
    a2f2:	400237b7          	lui	a5,0x40023
    a2f6:	4da78793          	addi	a5,a5,1242 # 400234da <_eusrstack+0x2001b4da>
    a2fa:	97ba                	add	a5,a5,a4
    a2fc:	873e                	mv	a4,a5
    a2fe:	4789                	li	a5,2
    a300:	a31c                	.2byte	0xa31c
    a302:	4781                	li	a5,0
    a304:	853e                	mv	a0,a5
    a306:	5432                	lw	s0,44(sp)
    a308:	6145                	addi	sp,sp,48
    a30a:	8082                	ret

0000a30c <usbd_ep_start_write>:
    a30c:	7179                	addi	sp,sp,-48
    a30e:	d622                	sw	s0,44(sp)
    a310:	1800                	addi	s0,sp,48
    a312:	87aa                	mv	a5,a0
    a314:	fcb42c23          	sw	a1,-40(s0)
    a318:	fcc42a23          	sw	a2,-44(s0)
    a31c:	fcf40fa3          	sb	a5,-33(s0)
    a320:	fdf44783          	lbu	a5,-33(s0)
    a324:	07f7f793          	andi	a5,a5,127
    a328:	fef407a3          	sb	a5,-17(s0)
    a32c:	fd842783          	lw	a5,-40(s0)
    a330:	e791                	bnez	a5,a33c <usbd_ep_start_write+0x30>
    a332:	fd442783          	lw	a5,-44(s0)
    a336:	c399                	beqz	a5,a33c <usbd_ep_start_write+0x30>
    a338:	57fd                	li	a5,-1
    a33a:	a421                	j	a542 <usbd_ep_start_write+0x236>
    a33c:	fef44703          	lbu	a4,-17(s0)
    a340:	200067b7          	lui	a5,0x20006
    a344:	6d878693          	addi	a3,a5,1752 # 200066d8 <g_ch32_usbhs_udc>
    a348:	87ba                	mv	a5,a4
    a34a:	078a                	slli	a5,a5,0x2
    a34c:	97ba                	add	a5,a5,a4
    a34e:	078a                	slli	a5,a5,0x2
    a350:	97b6                	add	a5,a5,a3
    a352:	2b9c                	.2byte	0x2b9c
    a354:	e399                	bnez	a5,a35a <usbd_ep_start_write+0x4e>
    a356:	57f9                	li	a5,-2
    a358:	a2ed                	j	a542 <usbd_ep_start_write+0x236>
    a35a:	fef44703          	lbu	a4,-17(s0)
    a35e:	200067b7          	lui	a5,0x20006
    a362:	6d878693          	addi	a3,a5,1752 # 200066d8 <g_ch32_usbhs_udc>
    a366:	87ba                	mv	a5,a4
    a368:	078a                	slli	a5,a5,0x2
    a36a:	97ba                	add	a5,a5,a4
    a36c:	078a                	slli	a5,a5,0x2
    a36e:	97b6                	add	a5,a5,a3
    a370:	fd842703          	lw	a4,-40(s0)
    a374:	cbd8                	sw	a4,20(a5)
    a376:	fef44703          	lbu	a4,-17(s0)
    a37a:	200067b7          	lui	a5,0x20006
    a37e:	6d878693          	addi	a3,a5,1752 # 200066d8 <g_ch32_usbhs_udc>
    a382:	87ba                	mv	a5,a4
    a384:	078a                	slli	a5,a5,0x2
    a386:	97ba                	add	a5,a5,a4
    a388:	078a                	slli	a5,a5,0x2
    a38a:	97b6                	add	a5,a5,a3
    a38c:	fd442703          	lw	a4,-44(s0)
    a390:	cf98                	sw	a4,24(a5)
    a392:	fef44703          	lbu	a4,-17(s0)
    a396:	200067b7          	lui	a5,0x20006
    a39a:	6d878693          	addi	a3,a5,1752 # 200066d8 <g_ch32_usbhs_udc>
    a39e:	87ba                	mv	a5,a4
    a3a0:	078a                	slli	a5,a5,0x2
    a3a2:	97ba                	add	a5,a5,a4
    a3a4:	078a                	slli	a5,a5,0x2
    a3a6:	97b6                	add	a5,a5,a3
    a3a8:	0007ae23          	sw	zero,28(a5)
    a3ac:	fef44783          	lbu	a5,-17(s0)
    a3b0:	e3cd                	bnez	a5,a452 <usbd_ep_start_write+0x146>
    a3b2:	fd442783          	lw	a5,-44(s0)
    a3b6:	ef89                	bnez	a5,a3d0 <usbd_ep_start_write+0xc4>
    a3b8:	fef44783          	lbu	a5,-17(s0)
    a3bc:	078a                	slli	a5,a5,0x2
    a3be:	873e                	mv	a4,a5
    a3c0:	400237b7          	lui	a5,0x40023
    a3c4:	4d878793          	addi	a5,a5,1240 # 400234d8 <_eusrstack+0x2001b4d8>
    a3c8:	97ba                	add	a5,a5,a4
    a3ca:	00079023          	sh	zero,0(a5)
    a3ce:	a899                	j	a424 <usbd_ep_start_write+0x118>
    a3d0:	fef44703          	lbu	a4,-17(s0)
    a3d4:	200067b7          	lui	a5,0x20006
    a3d8:	6d878693          	addi	a3,a5,1752 # 200066d8 <g_ch32_usbhs_udc>
    a3dc:	87ba                	mv	a5,a4
    a3de:	078a                	slli	a5,a5,0x2
    a3e0:	97ba                	add	a5,a5,a4
    a3e2:	078a                	slli	a5,a5,0x2
    a3e4:	97b6                	add	a5,a5,a3
    a3e6:	27de                	.2byte	0x27de
    a3e8:	873e                	mv	a4,a5
    a3ea:	fd442783          	lw	a5,-44(s0)
    a3ee:	00f77363          	bgeu	a4,a5,a3f4 <usbd_ep_start_write+0xe8>
    a3f2:	87ba                	mv	a5,a4
    a3f4:	fcf42a23          	sw	a5,-44(s0)
    a3f8:	fef44783          	lbu	a5,-17(s0)
    a3fc:	078a                	slli	a5,a5,0x2
    a3fe:	873e                	mv	a4,a5
    a400:	400237b7          	lui	a5,0x40023
    a404:	4d878793          	addi	a5,a5,1240 # 400234d8 <_eusrstack+0x2001b4d8>
    a408:	97ba                	add	a5,a5,a4
    a40a:	873e                	mv	a4,a5
    a40c:	fd442783          	lw	a5,-44(s0)
    a410:	07c2                	slli	a5,a5,0x10
    a412:	83c1                	srli	a5,a5,0x10
    a414:	a31e                	.2byte	0xa31e
    a416:	400237b7          	lui	a5,0x40023
    a41a:	40078793          	addi	a5,a5,1024 # 40023400 <_eusrstack+0x2001b400>
    a41e:	fd842703          	lw	a4,-40(s0)
    a422:	cfd8                	sw	a4,28(a5)
    a424:	200067b7          	lui	a5,0x20006
    a428:	5d57c783          	lbu	a5,1493(a5) # 200065d5 <ep0_tx_data_toggle>
    a42c:	0ff7f793          	zext.b	a5,a5
    a430:	c399                	beqz	a5,a436 <usbd_ep_start_write+0x12a>
    a432:	47a1                	li	a5,8
    a434:	a011                	j	a438 <usbd_ep_start_write+0x12c>
    a436:	4781                	li	a5,0
    a438:	fef42423          	sw	a5,-24(s0)
    a43c:	400237b7          	lui	a5,0x40023
    a440:	40078793          	addi	a5,a5,1024 # 40023400 <_eusrstack+0x2001b400>
    a444:	fe842703          	lw	a4,-24(s0)
    a448:	0ff77713          	zext.b	a4,a4
    a44c:	0ce78d23          	sb	a4,218(a5)
    a450:	a8c5                	j	a540 <usbd_ep_start_write+0x234>
    a452:	fd442783          	lw	a5,-44(s0)
    a456:	ef89                	bnez	a5,a470 <usbd_ep_start_write+0x164>
    a458:	fef44783          	lbu	a5,-17(s0)
    a45c:	078a                	slli	a5,a5,0x2
    a45e:	873e                	mv	a4,a5
    a460:	400237b7          	lui	a5,0x40023
    a464:	4d878793          	addi	a5,a5,1240 # 400234d8 <_eusrstack+0x2001b4d8>
    a468:	97ba                	add	a5,a5,a4
    a46a:	00079023          	sh	zero,0(a5)
    a46e:	a095                	j	a4d2 <usbd_ep_start_write+0x1c6>
    a470:	fef44703          	lbu	a4,-17(s0)
    a474:	200067b7          	lui	a5,0x20006
    a478:	6d878693          	addi	a3,a5,1752 # 200066d8 <g_ch32_usbhs_udc>
    a47c:	87ba                	mv	a5,a4
    a47e:	078a                	slli	a5,a5,0x2
    a480:	97ba                	add	a5,a5,a4
    a482:	078a                	slli	a5,a5,0x2
    a484:	97b6                	add	a5,a5,a3
    a486:	27de                	.2byte	0x27de
    a488:	873e                	mv	a4,a5
    a48a:	fd442783          	lw	a5,-44(s0)
    a48e:	00f77363          	bgeu	a4,a5,a494 <usbd_ep_start_write+0x188>
    a492:	87ba                	mv	a5,a4
    a494:	fcf42a23          	sw	a5,-44(s0)
    a498:	fef44783          	lbu	a5,-17(s0)
    a49c:	078a                	slli	a5,a5,0x2
    a49e:	873e                	mv	a4,a5
    a4a0:	400237b7          	lui	a5,0x40023
    a4a4:	4d878793          	addi	a5,a5,1240 # 400234d8 <_eusrstack+0x2001b4d8>
    a4a8:	97ba                	add	a5,a5,a4
    a4aa:	873e                	mv	a4,a5
    a4ac:	fd442783          	lw	a5,-44(s0)
    a4b0:	07c2                	slli	a5,a5,0x10
    a4b2:	83c1                	srli	a5,a5,0x10
    a4b4:	a31e                	.2byte	0xa31e
    a4b6:	fef44783          	lbu	a5,-17(s0)
    a4ba:	17fd                	addi	a5,a5,-1
    a4bc:	078a                	slli	a5,a5,0x2
    a4be:	873e                	mv	a4,a5
    a4c0:	400237b7          	lui	a5,0x40023
    a4c4:	45c78793          	addi	a5,a5,1116 # 4002345c <_eusrstack+0x2001b45c>
    a4c8:	97ba                	add	a5,a5,a4
    a4ca:	873e                	mv	a4,a5
    a4cc:	fd842783          	lw	a5,-40(s0)
    a4d0:	c31c                	sw	a5,0(a4)
    a4d2:	fef44783          	lbu	a5,-17(s0)
    a4d6:	078a                	slli	a5,a5,0x2
    a4d8:	873e                	mv	a4,a5
    a4da:	400237b7          	lui	a5,0x40023
    a4de:	4da78793          	addi	a5,a5,1242 # 400234da <_eusrstack+0x2001b4da>
    a4e2:	97ba                	add	a5,a5,a4
    a4e4:	239c                	.2byte	0x239c
    a4e6:	0ff7f793          	zext.b	a5,a5
    a4ea:	fef42423          	sw	a5,-24(s0)
    a4ee:	fe842783          	lw	a5,-24(s0)
    a4f2:	9b91                	andi	a5,a5,-28
    a4f4:	fef42423          	sw	a5,-24(s0)
    a4f8:	fef44783          	lbu	a5,-17(s0)
    a4fc:	17fd                	addi	a5,a5,-1
    a4fe:	20007737          	lui	a4,0x20007
    a502:	96470713          	addi	a4,a4,-1692 # 20006964 <epx_tx_data_toggle>
    a506:	97ba                	add	a5,a5,a4
    a508:	239c                	.2byte	0x239c
    a50a:	0ff7f793          	zext.b	a5,a5
    a50e:	c399                	beqz	a5,a514 <usbd_ep_start_write+0x208>
    a510:	47a1                	li	a5,8
    a512:	a011                	j	a516 <usbd_ep_start_write+0x20a>
    a514:	4781                	li	a5,0
    a516:	873e                	mv	a4,a5
    a518:	fe842783          	lw	a5,-24(s0)
    a51c:	8fd9                	or	a5,a5,a4
    a51e:	fef42423          	sw	a5,-24(s0)
    a522:	fef44783          	lbu	a5,-17(s0)
    a526:	078a                	slli	a5,a5,0x2
    a528:	873e                	mv	a4,a5
    a52a:	400237b7          	lui	a5,0x40023
    a52e:	4da78793          	addi	a5,a5,1242 # 400234da <_eusrstack+0x2001b4da>
    a532:	97ba                	add	a5,a5,a4
    a534:	873e                	mv	a4,a5
    a536:	fe842783          	lw	a5,-24(s0)
    a53a:	0ff7f793          	zext.b	a5,a5
    a53e:	a31c                	.2byte	0xa31c
    a540:	4781                	li	a5,0
    a542:	853e                	mv	a0,a5
    a544:	5432                	lw	s0,44(sp)
    a546:	6145                	addi	sp,sp,48
    a548:	8082                	ret

0000a54a <usbd_ep_start_read>:
    a54a:	7179                	addi	sp,sp,-48
    a54c:	d622                	sw	s0,44(sp)
    a54e:	1800                	addi	s0,sp,48
    a550:	87aa                	mv	a5,a0
    a552:	fcb42c23          	sw	a1,-40(s0)
    a556:	fcc42a23          	sw	a2,-44(s0)
    a55a:	fcf40fa3          	sb	a5,-33(s0)
    a55e:	fdf44783          	lbu	a5,-33(s0)
    a562:	07f7f793          	andi	a5,a5,127
    a566:	fef407a3          	sb	a5,-17(s0)
    a56a:	fd842783          	lw	a5,-40(s0)
    a56e:	e791                	bnez	a5,a57a <usbd_ep_start_read+0x30>
    a570:	fd442783          	lw	a5,-44(s0)
    a574:	c399                	beqz	a5,a57a <usbd_ep_start_read+0x30>
    a576:	57fd                	li	a5,-1
    a578:	a20d                	j	a69a <usbd_ep_start_read+0x150>
    a57a:	fef44703          	lbu	a4,-17(s0)
    a57e:	200067b7          	lui	a5,0x20006
    a582:	6d878693          	addi	a3,a5,1752 # 200066d8 <g_ch32_usbhs_udc>
    a586:	87ba                	mv	a5,a4
    a588:	078a                	slli	a5,a5,0x2
    a58a:	97ba                	add	a5,a5,a4
    a58c:	078a                	slli	a5,a5,0x2
    a58e:	97b6                	add	a5,a5,a3
    a590:	1507c783          	lbu	a5,336(a5)
    a594:	e399                	bnez	a5,a59a <usbd_ep_start_read+0x50>
    a596:	57f9                	li	a5,-2
    a598:	a209                	j	a69a <usbd_ep_start_read+0x150>
    a59a:	fd842783          	lw	a5,-40(s0)
    a59e:	8b8d                	andi	a5,a5,3
    a5a0:	c399                	beqz	a5,a5a6 <usbd_ep_start_read+0x5c>
    a5a2:	57f5                	li	a5,-3
    a5a4:	a8dd                	j	a69a <usbd_ep_start_read+0x150>
    a5a6:	fef44703          	lbu	a4,-17(s0)
    a5aa:	200067b7          	lui	a5,0x20006
    a5ae:	6d878693          	addi	a3,a5,1752 # 200066d8 <g_ch32_usbhs_udc>
    a5b2:	87ba                	mv	a5,a4
    a5b4:	078a                	slli	a5,a5,0x2
    a5b6:	97ba                	add	a5,a5,a4
    a5b8:	078a                	slli	a5,a5,0x2
    a5ba:	97b6                	add	a5,a5,a3
    a5bc:	fd842703          	lw	a4,-40(s0)
    a5c0:	14e7aa23          	sw	a4,340(a5)
    a5c4:	fef44703          	lbu	a4,-17(s0)
    a5c8:	200067b7          	lui	a5,0x20006
    a5cc:	6d878693          	addi	a3,a5,1752 # 200066d8 <g_ch32_usbhs_udc>
    a5d0:	87ba                	mv	a5,a4
    a5d2:	078a                	slli	a5,a5,0x2
    a5d4:	97ba                	add	a5,a5,a4
    a5d6:	078a                	slli	a5,a5,0x2
    a5d8:	97b6                	add	a5,a5,a3
    a5da:	fd442703          	lw	a4,-44(s0)
    a5de:	14e7ac23          	sw	a4,344(a5)
    a5e2:	fef44703          	lbu	a4,-17(s0)
    a5e6:	200067b7          	lui	a5,0x20006
    a5ea:	6d878693          	addi	a3,a5,1752 # 200066d8 <g_ch32_usbhs_udc>
    a5ee:	87ba                	mv	a5,a4
    a5f0:	078a                	slli	a5,a5,0x2
    a5f2:	97ba                	add	a5,a5,a4
    a5f4:	078a                	slli	a5,a5,0x2
    a5f6:	97b6                	add	a5,a5,a3
    a5f8:	1407ae23          	sw	zero,348(a5)
    a5fc:	fef44783          	lbu	a5,-17(s0)
    a600:	e7a9                	bnez	a5,a64a <usbd_ep_start_read+0x100>
    a602:	fd442783          	lw	a5,-44(s0)
    a606:	eb89                	bnez	a5,a618 <usbd_ep_start_read+0xce>
    a608:	400237b7          	lui	a5,0x40023
    a60c:	40078793          	addi	a5,a5,1024 # 40023400 <_eusrstack+0x2001b400>
    a610:	4721                	li	a4,8
    a612:	0ce78da3          	sb	a4,219(a5)
    a616:	a805                	j	a646 <usbd_ep_start_read+0xfc>
    a618:	400237b7          	lui	a5,0x40023
    a61c:	40078793          	addi	a5,a5,1024 # 40023400 <_eusrstack+0x2001b400>
    a620:	fd842703          	lw	a4,-40(s0)
    a624:	cfd8                	sw	a4,28(a5)
    a626:	200067b7          	lui	a5,0x20006
    a62a:	5d47c783          	lbu	a5,1492(a5) # 200065d4 <ep0_rx_data_toggle>
    a62e:	0ff7f793          	zext.b	a5,a5
    a632:	c399                	beqz	a5,a638 <usbd_ep_start_read+0xee>
    a634:	47a1                	li	a5,8
    a636:	a011                	j	a63a <usbd_ep_start_read+0xf0>
    a638:	4781                	li	a5,0
    a63a:	40023737          	lui	a4,0x40023
    a63e:	40070713          	addi	a4,a4,1024 # 40023400 <_eusrstack+0x2001b400>
    a642:	0cf70da3          	sb	a5,219(a4)
    a646:	4781                	li	a5,0
    a648:	a889                	j	a69a <usbd_ep_start_read+0x150>
    a64a:	fef44783          	lbu	a5,-17(s0)
    a64e:	17fd                	addi	a5,a5,-1
    a650:	078a                	slli	a5,a5,0x2
    a652:	873e                	mv	a4,a5
    a654:	400237b7          	lui	a5,0x40023
    a658:	42078793          	addi	a5,a5,1056 # 40023420 <_eusrstack+0x2001b420>
    a65c:	97ba                	add	a5,a5,a4
    a65e:	873e                	mv	a4,a5
    a660:	fd842783          	lw	a5,-40(s0)
    a664:	c31c                	sw	a5,0(a4)
    a666:	fef44783          	lbu	a5,-17(s0)
    a66a:	078a                	slli	a5,a5,0x2
    a66c:	873e                	mv	a4,a5
    a66e:	400237b7          	lui	a5,0x40023
    a672:	4db78793          	addi	a5,a5,1243 # 400234db <_eusrstack+0x2001b4db>
    a676:	97ba                	add	a5,a5,a4
    a678:	239c                	.2byte	0x239c
    a67a:	0ff7f793          	zext.b	a5,a5
    a67e:	fef44703          	lbu	a4,-17(s0)
    a682:	070a                	slli	a4,a4,0x2
    a684:	86ba                	mv	a3,a4
    a686:	40023737          	lui	a4,0x40023
    a68a:	4db70713          	addi	a4,a4,1243 # 400234db <_eusrstack+0x2001b4db>
    a68e:	9736                	add	a4,a4,a3
    a690:	9bf1                	andi	a5,a5,-4
    a692:	0ff7f793          	zext.b	a5,a5
    a696:	a31c                	.2byte	0xa31c
    a698:	4781                	li	a5,0
    a69a:	853e                	mv	a0,a5
    a69c:	5432                	lw	s0,44(sp)
    a69e:	6145                	addi	sp,sp,48
    a6a0:	8082                	ret

0000a6a2 <USBHS_IRQHandler>:
    a6a2:	7179                	addi	sp,sp,-48
    a6a4:	d622                	sw	s0,44(sp)
    a6a6:	1800                	addi	s0,sp,48
    a6a8:	fe040723          	sb	zero,-18(s0)
    a6ac:	400237b7          	lui	a5,0x40023
    a6b0:	40078793          	addi	a5,a5,1024 # 40023400 <_eusrstack+0x2001b400>
    a6b4:	27bc                	.2byte	0x27bc
    a6b6:	fef40723          	sb	a5,-18(s0)
    a6ba:	fee44783          	lbu	a5,-18(s0)
    a6be:	8b89                	andi	a5,a5,2
    a6c0:	0e0788e3          	beqz	a5,afb0 <USBHS_IRQHandler+0x90e>
    a6c4:	400237b7          	lui	a5,0x40023
    a6c8:	40078793          	addi	a5,a5,1024 # 40023400 <_eusrstack+0x2001b400>
    a6cc:	37bc                	.2byte	0x37bc
    a6ce:	0ff7f793          	zext.b	a5,a5
    a6d2:	8bbd                	andi	a5,a5,15
    a6d4:	fef42423          	sw	a5,-24(s0)
    a6d8:	400237b7          	lui	a5,0x40023
    a6dc:	40078793          	addi	a5,a5,1024 # 40023400 <_eusrstack+0x2001b400>
    a6e0:	37bc                	.2byte	0x37bc
    a6e2:	0ff7f793          	zext.b	a5,a5
    a6e6:	8791                	srai	a5,a5,0x4
    a6e8:	8b8d                	andi	a5,a5,3
    a6ea:	fef42223          	sw	a5,-28(s0)
    a6ee:	fe442703          	lw	a4,-28(s0)
    a6f2:	4789                	li	a5,2
    a6f4:	5af71263          	bne	a4,a5,ac98 <USBHS_IRQHandler+0x5f6>
    a6f8:	fe842783          	lw	a5,-24(s0)
    a6fc:	24079263          	bnez	a5,a940 <USBHS_IRQHandler+0x29e>
    a700:	200067b7          	lui	a5,0x20006
    a704:	6d878693          	addi	a3,a5,1752 # 200066d8 <g_ch32_usbhs_udc>
    a708:	fe842703          	lw	a4,-24(s0)
    a70c:	87ba                	mv	a5,a4
    a70e:	078a                	slli	a5,a5,0x2
    a710:	97ba                	add	a5,a5,a4
    a712:	078a                	slli	a5,a5,0x2
    a714:	97b6                	add	a5,a5,a3
    a716:	4f94                	lw	a3,24(a5)
    a718:	200067b7          	lui	a5,0x20006
    a71c:	6d878613          	addi	a2,a5,1752 # 200066d8 <g_ch32_usbhs_udc>
    a720:	fe842703          	lw	a4,-24(s0)
    a724:	87ba                	mv	a5,a4
    a726:	078a                	slli	a5,a5,0x2
    a728:	97ba                	add	a5,a5,a4
    a72a:	078a                	slli	a5,a5,0x2
    a72c:	97b2                	add	a5,a5,a2
    a72e:	27de                	.2byte	0x27de
    a730:	0af6ef63          	bltu	a3,a5,a7ee <USBHS_IRQHandler+0x14c>
    a734:	200067b7          	lui	a5,0x20006
    a738:	6d878693          	addi	a3,a5,1752 # 200066d8 <g_ch32_usbhs_udc>
    a73c:	fe842703          	lw	a4,-24(s0)
    a740:	87ba                	mv	a5,a4
    a742:	078a                	slli	a5,a5,0x2
    a744:	97ba                	add	a5,a5,a4
    a746:	078a                	slli	a5,a5,0x2
    a748:	97b6                	add	a5,a5,a3
    a74a:	4f94                	lw	a3,24(a5)
    a74c:	200067b7          	lui	a5,0x20006
    a750:	6d878613          	addi	a2,a5,1752 # 200066d8 <g_ch32_usbhs_udc>
    a754:	fe842703          	lw	a4,-24(s0)
    a758:	87ba                	mv	a5,a4
    a75a:	078a                	slli	a5,a5,0x2
    a75c:	97ba                	add	a5,a5,a4
    a75e:	078a                	slli	a5,a5,0x2
    a760:	97b2                	add	a5,a5,a2
    a762:	27de                	.2byte	0x27de
    a764:	8e9d                	sub	a3,a3,a5
    a766:	200067b7          	lui	a5,0x20006
    a76a:	6d878613          	addi	a2,a5,1752 # 200066d8 <g_ch32_usbhs_udc>
    a76e:	fe842703          	lw	a4,-24(s0)
    a772:	87ba                	mv	a5,a4
    a774:	078a                	slli	a5,a5,0x2
    a776:	97ba                	add	a5,a5,a4
    a778:	078a                	slli	a5,a5,0x2
    a77a:	97b2                	add	a5,a5,a2
    a77c:	cf94                	sw	a3,24(a5)
    a77e:	200067b7          	lui	a5,0x20006
    a782:	6d878693          	addi	a3,a5,1752 # 200066d8 <g_ch32_usbhs_udc>
    a786:	fe842703          	lw	a4,-24(s0)
    a78a:	87ba                	mv	a5,a4
    a78c:	078a                	slli	a5,a5,0x2
    a78e:	97ba                	add	a5,a5,a4
    a790:	078a                	slli	a5,a5,0x2
    a792:	97b6                	add	a5,a5,a3
    a794:	4fd4                	lw	a3,28(a5)
    a796:	200067b7          	lui	a5,0x20006
    a79a:	6d878613          	addi	a2,a5,1752 # 200066d8 <g_ch32_usbhs_udc>
    a79e:	fe842703          	lw	a4,-24(s0)
    a7a2:	87ba                	mv	a5,a4
    a7a4:	078a                	slli	a5,a5,0x2
    a7a6:	97ba                	add	a5,a5,a4
    a7a8:	078a                	slli	a5,a5,0x2
    a7aa:	97b2                	add	a5,a5,a2
    a7ac:	27de                	.2byte	0x27de
    a7ae:	96be                	add	a3,a3,a5
    a7b0:	200067b7          	lui	a5,0x20006
    a7b4:	6d878613          	addi	a2,a5,1752 # 200066d8 <g_ch32_usbhs_udc>
    a7b8:	fe842703          	lw	a4,-24(s0)
    a7bc:	87ba                	mv	a5,a4
    a7be:	078a                	slli	a5,a5,0x2
    a7c0:	97ba                	add	a5,a5,a4
    a7c2:	078a                	slli	a5,a5,0x2
    a7c4:	97b2                	add	a5,a5,a2
    a7c6:	cfd4                	sw	a3,28(a5)
    a7c8:	200067b7          	lui	a5,0x20006
    a7cc:	5d57c783          	lbu	a5,1493(a5) # 200065d5 <ep0_tx_data_toggle>
    a7d0:	0ff7f793          	zext.b	a5,a5
    a7d4:	0017c793          	xori	a5,a5,1
    a7d8:	0ff7f793          	zext.b	a5,a5
    a7dc:	00f037b3          	snez	a5,a5
    a7e0:	0ff7f713          	zext.b	a4,a5
    a7e4:	200067b7          	lui	a5,0x20006
    a7e8:	5ce78aa3          	sb	a4,1493(a5) # 200065d5 <ep0_tx_data_toggle>
    a7ec:	a885                	j	a85c <USBHS_IRQHandler+0x1ba>
    a7ee:	200067b7          	lui	a5,0x20006
    a7f2:	6d878693          	addi	a3,a5,1752 # 200066d8 <g_ch32_usbhs_udc>
    a7f6:	fe842703          	lw	a4,-24(s0)
    a7fa:	87ba                	mv	a5,a4
    a7fc:	078a                	slli	a5,a5,0x2
    a7fe:	97ba                	add	a5,a5,a4
    a800:	078a                	slli	a5,a5,0x2
    a802:	97b6                	add	a5,a5,a3
    a804:	4fd4                	lw	a3,28(a5)
    a806:	200067b7          	lui	a5,0x20006
    a80a:	6d878613          	addi	a2,a5,1752 # 200066d8 <g_ch32_usbhs_udc>
    a80e:	fe842703          	lw	a4,-24(s0)
    a812:	87ba                	mv	a5,a4
    a814:	078a                	slli	a5,a5,0x2
    a816:	97ba                	add	a5,a5,a4
    a818:	078a                	slli	a5,a5,0x2
    a81a:	97b2                	add	a5,a5,a2
    a81c:	4f9c                	lw	a5,24(a5)
    a81e:	96be                	add	a3,a3,a5
    a820:	200067b7          	lui	a5,0x20006
    a824:	6d878613          	addi	a2,a5,1752 # 200066d8 <g_ch32_usbhs_udc>
    a828:	fe842703          	lw	a4,-24(s0)
    a82c:	87ba                	mv	a5,a4
    a82e:	078a                	slli	a5,a5,0x2
    a830:	97ba                	add	a5,a5,a4
    a832:	078a                	slli	a5,a5,0x2
    a834:	97b2                	add	a5,a5,a2
    a836:	cfd4                	sw	a3,28(a5)
    a838:	200067b7          	lui	a5,0x20006
    a83c:	6d878693          	addi	a3,a5,1752 # 200066d8 <g_ch32_usbhs_udc>
    a840:	fe842703          	lw	a4,-24(s0)
    a844:	87ba                	mv	a5,a4
    a846:	078a                	slli	a5,a5,0x2
    a848:	97ba                	add	a5,a5,a4
    a84a:	078a                	slli	a5,a5,0x2
    a84c:	97b6                	add	a5,a5,a3
    a84e:	0007ac23          	sw	zero,24(a5)
    a852:	200067b7          	lui	a5,0x20006
    a856:	4705                	li	a4,1
    a858:	5ce78aa3          	sb	a4,1493(a5) # 200065d5 <ep0_tx_data_toggle>
    a85c:	fe842783          	lw	a5,-24(s0)
    a860:	0ff7f793          	zext.b	a5,a5
    a864:	f807e793          	ori	a5,a5,-128
    a868:	0ff7f613          	zext.b	a2,a5
    a86c:	200067b7          	lui	a5,0x20006
    a870:	6d878693          	addi	a3,a5,1752 # 200066d8 <g_ch32_usbhs_udc>
    a874:	fe842703          	lw	a4,-24(s0)
    a878:	87ba                	mv	a5,a4
    a87a:	078a                	slli	a5,a5,0x2
    a87c:	97ba                	add	a5,a5,a4
    a87e:	078a                	slli	a5,a5,0x2
    a880:	97b6                	add	a5,a5,a3
    a882:	4fdc                	lw	a5,28(a5)
    a884:	85be                	mv	a1,a5
    a886:	8532                	mv	a0,a2
    a888:	c08ff0ef          	jal	ra,9c90 <usbd_event_ep_in_complete_handler>
    a88c:	200067b7          	lui	a5,0x20006
    a890:	6d878793          	addi	a5,a5,1752 # 200066d8 <g_ch32_usbhs_udc>
    a894:	279c                	.2byte	0x279c
    a896:	0ff7f793          	zext.b	a5,a5
    a89a:	c39d                	beqz	a5,a8c0 <USBHS_IRQHandler+0x21e>
    a89c:	400237b7          	lui	a5,0x40023
    a8a0:	40078793          	addi	a5,a5,1024 # 40023400 <_eusrstack+0x2001b400>
    a8a4:	20006737          	lui	a4,0x20006
    a8a8:	6d870713          	addi	a4,a4,1752 # 200066d8 <g_ch32_usbhs_udc>
    a8ac:	2718                	.2byte	0x2718
    a8ae:	0ff77713          	zext.b	a4,a4
    a8b2:	b3b8                	.2byte	0xb3b8
    a8b4:	200067b7          	lui	a5,0x20006
    a8b8:	6d878793          	addi	a5,a5,1752 # 200066d8 <g_ch32_usbhs_udc>
    a8bc:	00078423          	sb	zero,8(a5)
    a8c0:	200067b7          	lui	a5,0x20006
    a8c4:	6d878793          	addi	a5,a5,1752 # 200066d8 <g_ch32_usbhs_udc>
    a8c8:	23fe                	.2byte	0x23fe
    a8ca:	cf9d                	beqz	a5,a908 <USBHS_IRQHandler+0x266>
    a8cc:	200067b7          	lui	a5,0x20006
    a8d0:	6d878793          	addi	a5,a5,1752 # 200066d8 <g_ch32_usbhs_udc>
    a8d4:	239c                	.2byte	0x239c
    a8d6:	07e2                	slli	a5,a5,0x18
    a8d8:	87e1                	srai	a5,a5,0x18
    a8da:	0207c763          	bltz	a5,a908 <USBHS_IRQHandler+0x266>
    a8de:	400237b7          	lui	a5,0x40023
    a8e2:	40078793          	addi	a5,a5,1024 # 40023400 <_eusrstack+0x2001b400>
    a8e6:	20006737          	lui	a4,0x20006
    a8ea:	6d870713          	addi	a4,a4,1752 # 200066d8 <g_ch32_usbhs_udc>
    a8ee:	cfd8                	sw	a4,28(a5)
    a8f0:	400237b7          	lui	a5,0x40023
    a8f4:	40078793          	addi	a5,a5,1024 # 40023400 <_eusrstack+0x2001b400>
    a8f8:	0c078da3          	sb	zero,219(a5)
    a8fc:	200067b7          	lui	a5,0x20006
    a900:	4705                	li	a4,1
    a902:	5ce78aa3          	sb	a4,1493(a5) # 200065d5 <ep0_tx_data_toggle>
    a906:	ad71                	j	afa2 <USBHS_IRQHandler+0x900>
    a908:	200067b7          	lui	a5,0x20006
    a90c:	6d878793          	addi	a5,a5,1752 # 200066d8 <g_ch32_usbhs_udc>
    a910:	23fe                	.2byte	0x23fe
    a912:	68079863          	bnez	a5,afa2 <USBHS_IRQHandler+0x900>
    a916:	400237b7          	lui	a5,0x40023
    a91a:	40078793          	addi	a5,a5,1024 # 40023400 <_eusrstack+0x2001b400>
    a91e:	20006737          	lui	a4,0x20006
    a922:	6d870713          	addi	a4,a4,1752 # 200066d8 <g_ch32_usbhs_udc>
    a926:	cfd8                	sw	a4,28(a5)
    a928:	400237b7          	lui	a5,0x40023
    a92c:	40078793          	addi	a5,a5,1024 # 40023400 <_eusrstack+0x2001b400>
    a930:	0c078da3          	sb	zero,219(a5)
    a934:	200067b7          	lui	a5,0x20006
    a938:	4705                	li	a4,1
    a93a:	5ce78aa3          	sb	a4,1493(a5) # 200065d5 <ep0_tx_data_toggle>
    a93e:	a595                	j	afa2 <USBHS_IRQHandler+0x900>
    a940:	fe842783          	lw	a5,-24(s0)
    a944:	00279713          	slli	a4,a5,0x2
    a948:	400237b7          	lui	a5,0x40023
    a94c:	4da78793          	addi	a5,a5,1242 # 400234da <_eusrstack+0x2001b4da>
    a950:	97ba                	add	a5,a5,a4
    a952:	239c                	.2byte	0x239c
    a954:	0ff7f793          	zext.b	a5,a5
    a958:	07e2                	slli	a5,a5,0x18
    a95a:	87e1                	srai	a5,a5,0x18
    a95c:	9b91                	andi	a5,a5,-28
    a95e:	07e2                	slli	a5,a5,0x18
    a960:	87e1                	srai	a5,a5,0x18
    a962:	0027e793          	ori	a5,a5,2
    a966:	01879693          	slli	a3,a5,0x18
    a96a:	86e1                	srai	a3,a3,0x18
    a96c:	fe842783          	lw	a5,-24(s0)
    a970:	00279713          	slli	a4,a5,0x2
    a974:	400237b7          	lui	a5,0x40023
    a978:	4da78793          	addi	a5,a5,1242 # 400234da <_eusrstack+0x2001b4da>
    a97c:	97ba                	add	a5,a5,a4
    a97e:	873e                	mv	a4,a5
    a980:	0ff6f793          	zext.b	a5,a3
    a984:	a31c                	.2byte	0xa31c
    a986:	200067b7          	lui	a5,0x20006
    a98a:	6d878693          	addi	a3,a5,1752 # 200066d8 <g_ch32_usbhs_udc>
    a98e:	fe842703          	lw	a4,-24(s0)
    a992:	87ba                	mv	a5,a4
    a994:	078a                	slli	a5,a5,0x2
    a996:	97ba                	add	a5,a5,a4
    a998:	078a                	slli	a5,a5,0x2
    a99a:	97b6                	add	a5,a5,a3
    a99c:	4f94                	lw	a3,24(a5)
    a99e:	200067b7          	lui	a5,0x20006
    a9a2:	6d878613          	addi	a2,a5,1752 # 200066d8 <g_ch32_usbhs_udc>
    a9a6:	fe842703          	lw	a4,-24(s0)
    a9aa:	87ba                	mv	a5,a4
    a9ac:	078a                	slli	a5,a5,0x2
    a9ae:	97ba                	add	a5,a5,a4
    a9b0:	078a                	slli	a5,a5,0x2
    a9b2:	97b2                	add	a5,a5,a2
    a9b4:	27de                	.2byte	0x27de
    a9b6:	20d7f963          	bgeu	a5,a3,abc8 <USBHS_IRQHandler+0x526>
    a9ba:	200067b7          	lui	a5,0x20006
    a9be:	6d878693          	addi	a3,a5,1752 # 200066d8 <g_ch32_usbhs_udc>
    a9c2:	fe842703          	lw	a4,-24(s0)
    a9c6:	87ba                	mv	a5,a4
    a9c8:	078a                	slli	a5,a5,0x2
    a9ca:	97ba                	add	a5,a5,a4
    a9cc:	078a                	slli	a5,a5,0x2
    a9ce:	97b6                	add	a5,a5,a3
    a9d0:	4bd4                	lw	a3,20(a5)
    a9d2:	200067b7          	lui	a5,0x20006
    a9d6:	6d878613          	addi	a2,a5,1752 # 200066d8 <g_ch32_usbhs_udc>
    a9da:	fe842703          	lw	a4,-24(s0)
    a9de:	87ba                	mv	a5,a4
    a9e0:	078a                	slli	a5,a5,0x2
    a9e2:	97ba                	add	a5,a5,a4
    a9e4:	078a                	slli	a5,a5,0x2
    a9e6:	97b2                	add	a5,a5,a2
    a9e8:	27de                	.2byte	0x27de
    a9ea:	96be                	add	a3,a3,a5
    a9ec:	200067b7          	lui	a5,0x20006
    a9f0:	6d878613          	addi	a2,a5,1752 # 200066d8 <g_ch32_usbhs_udc>
    a9f4:	fe842703          	lw	a4,-24(s0)
    a9f8:	87ba                	mv	a5,a4
    a9fa:	078a                	slli	a5,a5,0x2
    a9fc:	97ba                	add	a5,a5,a4
    a9fe:	078a                	slli	a5,a5,0x2
    aa00:	97b2                	add	a5,a5,a2
    aa02:	cbd4                	sw	a3,20(a5)
    aa04:	200067b7          	lui	a5,0x20006
    aa08:	6d878693          	addi	a3,a5,1752 # 200066d8 <g_ch32_usbhs_udc>
    aa0c:	fe842703          	lw	a4,-24(s0)
    aa10:	87ba                	mv	a5,a4
    aa12:	078a                	slli	a5,a5,0x2
    aa14:	97ba                	add	a5,a5,a4
    aa16:	078a                	slli	a5,a5,0x2
    aa18:	97b6                	add	a5,a5,a3
    aa1a:	4f94                	lw	a3,24(a5)
    aa1c:	200067b7          	lui	a5,0x20006
    aa20:	6d878613          	addi	a2,a5,1752 # 200066d8 <g_ch32_usbhs_udc>
    aa24:	fe842703          	lw	a4,-24(s0)
    aa28:	87ba                	mv	a5,a4
    aa2a:	078a                	slli	a5,a5,0x2
    aa2c:	97ba                	add	a5,a5,a4
    aa2e:	078a                	slli	a5,a5,0x2
    aa30:	97b2                	add	a5,a5,a2
    aa32:	27de                	.2byte	0x27de
    aa34:	8e9d                	sub	a3,a3,a5
    aa36:	200067b7          	lui	a5,0x20006
    aa3a:	6d878613          	addi	a2,a5,1752 # 200066d8 <g_ch32_usbhs_udc>
    aa3e:	fe842703          	lw	a4,-24(s0)
    aa42:	87ba                	mv	a5,a4
    aa44:	078a                	slli	a5,a5,0x2
    aa46:	97ba                	add	a5,a5,a4
    aa48:	078a                	slli	a5,a5,0x2
    aa4a:	97b2                	add	a5,a5,a2
    aa4c:	cf94                	sw	a3,24(a5)
    aa4e:	200067b7          	lui	a5,0x20006
    aa52:	6d878693          	addi	a3,a5,1752 # 200066d8 <g_ch32_usbhs_udc>
    aa56:	fe842703          	lw	a4,-24(s0)
    aa5a:	87ba                	mv	a5,a4
    aa5c:	078a                	slli	a5,a5,0x2
    aa5e:	97ba                	add	a5,a5,a4
    aa60:	078a                	slli	a5,a5,0x2
    aa62:	97b6                	add	a5,a5,a3
    aa64:	4fd4                	lw	a3,28(a5)
    aa66:	200067b7          	lui	a5,0x20006
    aa6a:	6d878613          	addi	a2,a5,1752 # 200066d8 <g_ch32_usbhs_udc>
    aa6e:	fe842703          	lw	a4,-24(s0)
    aa72:	87ba                	mv	a5,a4
    aa74:	078a                	slli	a5,a5,0x2
    aa76:	97ba                	add	a5,a5,a4
    aa78:	078a                	slli	a5,a5,0x2
    aa7a:	97b2                	add	a5,a5,a2
    aa7c:	27de                	.2byte	0x27de
    aa7e:	96be                	add	a3,a3,a5
    aa80:	200067b7          	lui	a5,0x20006
    aa84:	6d878613          	addi	a2,a5,1752 # 200066d8 <g_ch32_usbhs_udc>
    aa88:	fe842703          	lw	a4,-24(s0)
    aa8c:	87ba                	mv	a5,a4
    aa8e:	078a                	slli	a5,a5,0x2
    aa90:	97ba                	add	a5,a5,a4
    aa92:	078a                	slli	a5,a5,0x2
    aa94:	97b2                	add	a5,a5,a2
    aa96:	cfd4                	sw	a3,28(a5)
    aa98:	fe842783          	lw	a5,-24(s0)
    aa9c:	17fd                	addi	a5,a5,-1
    aa9e:	20007737          	lui	a4,0x20007
    aaa2:	96470713          	addi	a4,a4,-1692 # 20006964 <epx_tx_data_toggle>
    aaa6:	97ba                	add	a5,a5,a4
    aaa8:	239c                	.2byte	0x239c
    aaaa:	0ff7f793          	zext.b	a5,a5
    aaae:	0017c793          	xori	a5,a5,1
    aab2:	0ff7f793          	zext.b	a5,a5
    aab6:	873e                	mv	a4,a5
    aab8:	fe842783          	lw	a5,-24(s0)
    aabc:	17fd                	addi	a5,a5,-1
    aabe:	00e03733          	snez	a4,a4
    aac2:	0ff77713          	zext.b	a4,a4
    aac6:	200076b7          	lui	a3,0x20007
    aaca:	96468693          	addi	a3,a3,-1692 # 20006964 <epx_tx_data_toggle>
    aace:	97b6                	add	a5,a5,a3
    aad0:	a398                	.2byte	0xa398
    aad2:	200067b7          	lui	a5,0x20006
    aad6:	6d878693          	addi	a3,a5,1752 # 200066d8 <g_ch32_usbhs_udc>
    aada:	fe842703          	lw	a4,-24(s0)
    aade:	87ba                	mv	a5,a4
    aae0:	078a                	slli	a5,a5,0x2
    aae2:	97ba                	add	a5,a5,a4
    aae4:	078a                	slli	a5,a5,0x2
    aae6:	97b6                	add	a5,a5,a3
    aae8:	27de                	.2byte	0x27de
    aaea:	863e                	mv	a2,a5
    aaec:	200067b7          	lui	a5,0x20006
    aaf0:	6d878693          	addi	a3,a5,1752 # 200066d8 <g_ch32_usbhs_udc>
    aaf4:	fe842703          	lw	a4,-24(s0)
    aaf8:	87ba                	mv	a5,a4
    aafa:	078a                	slli	a5,a5,0x2
    aafc:	97ba                	add	a5,a5,a4
    aafe:	078a                	slli	a5,a5,0x2
    ab00:	97b6                	add	a5,a5,a3
    ab02:	4f98                	lw	a4,24(a5)
    ab04:	87b2                	mv	a5,a2
    ab06:	00f77363          	bgeu	a4,a5,ab0c <USBHS_IRQHandler+0x46a>
    ab0a:	87ba                	mv	a5,a4
    ab0c:	fcf42e23          	sw	a5,-36(s0)
    ab10:	fe842703          	lw	a4,-24(s0)
    ab14:	100097b7          	lui	a5,0x10009
    ab18:	d3678793          	addi	a5,a5,-714 # 10008d36 <_data_lma+0xfffaf66>
    ab1c:	97ba                	add	a5,a5,a4
    ab1e:	078a                	slli	a5,a5,0x2
    ab20:	873e                	mv	a4,a5
    ab22:	fdc42783          	lw	a5,-36(s0)
    ab26:	07c2                	slli	a5,a5,0x10
    ab28:	83c1                	srli	a5,a5,0x10
    ab2a:	a31e                	.2byte	0xa31e
    ab2c:	200067b7          	lui	a5,0x20006
    ab30:	6d878693          	addi	a3,a5,1752 # 200066d8 <g_ch32_usbhs_udc>
    ab34:	fe842703          	lw	a4,-24(s0)
    ab38:	87ba                	mv	a5,a4
    ab3a:	078a                	slli	a5,a5,0x2
    ab3c:	97ba                	add	a5,a5,a4
    ab3e:	078a                	slli	a5,a5,0x2
    ab40:	97b6                	add	a5,a5,a3
    ab42:	4bd4                	lw	a3,20(a5)
    ab44:	fe842703          	lw	a4,-24(s0)
    ab48:	100097b7          	lui	a5,0x10009
    ab4c:	d1678793          	addi	a5,a5,-746 # 10008d16 <_data_lma+0xfffaf46>
    ab50:	97ba                	add	a5,a5,a4
    ab52:	078a                	slli	a5,a5,0x2
    ab54:	8736                	mv	a4,a3
    ab56:	c398                	sw	a4,0(a5)
    ab58:	fe842783          	lw	a5,-24(s0)
    ab5c:	00279713          	slli	a4,a5,0x2
    ab60:	400237b7          	lui	a5,0x40023
    ab64:	4da78793          	addi	a5,a5,1242 # 400234da <_eusrstack+0x2001b4da>
    ab68:	97ba                	add	a5,a5,a4
    ab6a:	239c                	.2byte	0x239c
    ab6c:	0ff7f793          	zext.b	a5,a5
    ab70:	fcf42c23          	sw	a5,-40(s0)
    ab74:	fd842783          	lw	a5,-40(s0)
    ab78:	9b91                	andi	a5,a5,-28
    ab7a:	fcf42c23          	sw	a5,-40(s0)
    ab7e:	fe842783          	lw	a5,-24(s0)
    ab82:	17fd                	addi	a5,a5,-1
    ab84:	20007737          	lui	a4,0x20007
    ab88:	96470713          	addi	a4,a4,-1692 # 20006964 <epx_tx_data_toggle>
    ab8c:	97ba                	add	a5,a5,a4
    ab8e:	239c                	.2byte	0x239c
    ab90:	0ff7f793          	zext.b	a5,a5
    ab94:	c399                	beqz	a5,ab9a <USBHS_IRQHandler+0x4f8>
    ab96:	47a1                	li	a5,8
    ab98:	a011                	j	ab9c <USBHS_IRQHandler+0x4fa>
    ab9a:	4781                	li	a5,0
    ab9c:	873e                	mv	a4,a5
    ab9e:	fd842783          	lw	a5,-40(s0)
    aba2:	8fd9                	or	a5,a5,a4
    aba4:	fcf42c23          	sw	a5,-40(s0)
    aba8:	fe842783          	lw	a5,-24(s0)
    abac:	00279713          	slli	a4,a5,0x2
    abb0:	400237b7          	lui	a5,0x40023
    abb4:	4da78793          	addi	a5,a5,1242 # 400234da <_eusrstack+0x2001b4da>
    abb8:	97ba                	add	a5,a5,a4
    abba:	873e                	mv	a4,a5
    abbc:	fd842783          	lw	a5,-40(s0)
    abc0:	0ff7f793          	zext.b	a5,a5
    abc4:	a31c                	.2byte	0xa31c
    abc6:	aef1                	j	afa2 <USBHS_IRQHandler+0x900>
    abc8:	200067b7          	lui	a5,0x20006
    abcc:	6d878693          	addi	a3,a5,1752 # 200066d8 <g_ch32_usbhs_udc>
    abd0:	fe842703          	lw	a4,-24(s0)
    abd4:	87ba                	mv	a5,a4
    abd6:	078a                	slli	a5,a5,0x2
    abd8:	97ba                	add	a5,a5,a4
    abda:	078a                	slli	a5,a5,0x2
    abdc:	97b6                	add	a5,a5,a3
    abde:	4fd4                	lw	a3,28(a5)
    abe0:	200067b7          	lui	a5,0x20006
    abe4:	6d878613          	addi	a2,a5,1752 # 200066d8 <g_ch32_usbhs_udc>
    abe8:	fe842703          	lw	a4,-24(s0)
    abec:	87ba                	mv	a5,a4
    abee:	078a                	slli	a5,a5,0x2
    abf0:	97ba                	add	a5,a5,a4
    abf2:	078a                	slli	a5,a5,0x2
    abf4:	97b2                	add	a5,a5,a2
    abf6:	4f9c                	lw	a5,24(a5)
    abf8:	96be                	add	a3,a3,a5
    abfa:	200067b7          	lui	a5,0x20006
    abfe:	6d878613          	addi	a2,a5,1752 # 200066d8 <g_ch32_usbhs_udc>
    ac02:	fe842703          	lw	a4,-24(s0)
    ac06:	87ba                	mv	a5,a4
    ac08:	078a                	slli	a5,a5,0x2
    ac0a:	97ba                	add	a5,a5,a4
    ac0c:	078a                	slli	a5,a5,0x2
    ac0e:	97b2                	add	a5,a5,a2
    ac10:	cfd4                	sw	a3,28(a5)
    ac12:	200067b7          	lui	a5,0x20006
    ac16:	6d878693          	addi	a3,a5,1752 # 200066d8 <g_ch32_usbhs_udc>
    ac1a:	fe842703          	lw	a4,-24(s0)
    ac1e:	87ba                	mv	a5,a4
    ac20:	078a                	slli	a5,a5,0x2
    ac22:	97ba                	add	a5,a5,a4
    ac24:	078a                	slli	a5,a5,0x2
    ac26:	97b6                	add	a5,a5,a3
    ac28:	0007ac23          	sw	zero,24(a5)
    ac2c:	fe842783          	lw	a5,-24(s0)
    ac30:	17fd                	addi	a5,a5,-1
    ac32:	20007737          	lui	a4,0x20007
    ac36:	96470713          	addi	a4,a4,-1692 # 20006964 <epx_tx_data_toggle>
    ac3a:	97ba                	add	a5,a5,a4
    ac3c:	239c                	.2byte	0x239c
    ac3e:	0ff7f793          	zext.b	a5,a5
    ac42:	0017c793          	xori	a5,a5,1
    ac46:	0ff7f793          	zext.b	a5,a5
    ac4a:	873e                	mv	a4,a5
    ac4c:	fe842783          	lw	a5,-24(s0)
    ac50:	17fd                	addi	a5,a5,-1
    ac52:	00e03733          	snez	a4,a4
    ac56:	0ff77713          	zext.b	a4,a4
    ac5a:	200076b7          	lui	a3,0x20007
    ac5e:	96468693          	addi	a3,a3,-1692 # 20006964 <epx_tx_data_toggle>
    ac62:	97b6                	add	a5,a5,a3
    ac64:	a398                	.2byte	0xa398
    ac66:	fe842783          	lw	a5,-24(s0)
    ac6a:	0ff7f793          	zext.b	a5,a5
    ac6e:	f807e793          	ori	a5,a5,-128
    ac72:	0ff7f613          	zext.b	a2,a5
    ac76:	200067b7          	lui	a5,0x20006
    ac7a:	6d878693          	addi	a3,a5,1752 # 200066d8 <g_ch32_usbhs_udc>
    ac7e:	fe842703          	lw	a4,-24(s0)
    ac82:	87ba                	mv	a5,a4
    ac84:	078a                	slli	a5,a5,0x2
    ac86:	97ba                	add	a5,a5,a4
    ac88:	078a                	slli	a5,a5,0x2
    ac8a:	97b6                	add	a5,a5,a3
    ac8c:	4fdc                	lw	a5,28(a5)
    ac8e:	85be                	mv	a1,a5
    ac90:	8532                	mv	a0,a2
    ac92:	ffffe0ef          	jal	ra,9c90 <usbd_event_ep_in_complete_handler>
    ac96:	a631                	j	afa2 <USBHS_IRQHandler+0x900>
    ac98:	fe442783          	lw	a5,-28(s0)
    ac9c:	30079363          	bnez	a5,afa2 <USBHS_IRQHandler+0x900>
    aca0:	fe842783          	lw	a5,-24(s0)
    aca4:	10079863          	bnez	a5,adb4 <USBHS_IRQHandler+0x712>
    aca8:	400237b7          	lui	a5,0x40023
    acac:	40078793          	addi	a5,a5,1024 # 40023400 <_eusrstack+0x2001b400>
    acb0:	27de                	.2byte	0x27de
    acb2:	07c2                	slli	a5,a5,0x10
    acb4:	83c1                	srli	a5,a5,0x10
    acb6:	fef42023          	sw	a5,-32(s0)
    acba:	200067b7          	lui	a5,0x20006
    acbe:	6d878693          	addi	a3,a5,1752 # 200066d8 <g_ch32_usbhs_udc>
    acc2:	fe842703          	lw	a4,-24(s0)
    acc6:	87ba                	mv	a5,a4
    acc8:	078a                	slli	a5,a5,0x2
    acca:	97ba                	add	a5,a5,a4
    accc:	078a                	slli	a5,a5,0x2
    acce:	97b6                	add	a5,a5,a3
    acd0:	15c7a703          	lw	a4,348(a5)
    acd4:	fe042783          	lw	a5,-32(s0)
    acd8:	00f706b3          	add	a3,a4,a5
    acdc:	200067b7          	lui	a5,0x20006
    ace0:	6d878613          	addi	a2,a5,1752 # 200066d8 <g_ch32_usbhs_udc>
    ace4:	fe842703          	lw	a4,-24(s0)
    ace8:	87ba                	mv	a5,a4
    acea:	078a                	slli	a5,a5,0x2
    acec:	97ba                	add	a5,a5,a4
    acee:	078a                	slli	a5,a5,0x2
    acf0:	97b2                	add	a5,a5,a2
    acf2:	14d7ae23          	sw	a3,348(a5)
    acf6:	200067b7          	lui	a5,0x20006
    acfa:	6d878693          	addi	a3,a5,1752 # 200066d8 <g_ch32_usbhs_udc>
    acfe:	fe842703          	lw	a4,-24(s0)
    ad02:	87ba                	mv	a5,a4
    ad04:	078a                	slli	a5,a5,0x2
    ad06:	97ba                	add	a5,a5,a4
    ad08:	078a                	slli	a5,a5,0x2
    ad0a:	97b6                	add	a5,a5,a3
    ad0c:	1587a703          	lw	a4,344(a5)
    ad10:	fe042783          	lw	a5,-32(s0)
    ad14:	40f706b3          	sub	a3,a4,a5
    ad18:	200067b7          	lui	a5,0x20006
    ad1c:	6d878613          	addi	a2,a5,1752 # 200066d8 <g_ch32_usbhs_udc>
    ad20:	fe842703          	lw	a4,-24(s0)
    ad24:	87ba                	mv	a5,a4
    ad26:	078a                	slli	a5,a5,0x2
    ad28:	97ba                	add	a5,a5,a4
    ad2a:	078a                	slli	a5,a5,0x2
    ad2c:	97b2                	add	a5,a5,a2
    ad2e:	14d7ac23          	sw	a3,344(a5)
    ad32:	200067b7          	lui	a5,0x20006
    ad36:	6d878693          	addi	a3,a5,1752 # 200066d8 <g_ch32_usbhs_udc>
    ad3a:	fe842703          	lw	a4,-24(s0)
    ad3e:	87ba                	mv	a5,a4
    ad40:	078a                	slli	a5,a5,0x2
    ad42:	97ba                	add	a5,a5,a4
    ad44:	078a                	slli	a5,a5,0x2
    ad46:	97b6                	add	a5,a5,a3
    ad48:	15c7a783          	lw	a5,348(a5)
    ad4c:	85be                	mv	a1,a5
    ad4e:	4501                	li	a0,0
    ad50:	fa7fe0ef          	jal	ra,9cf6 <usbd_event_ep_out_complete_handler>
    ad54:	fe042783          	lw	a5,-32(s0)
    ad58:	eb9d                	bnez	a5,ad8e <USBHS_IRQHandler+0x6ec>
    ad5a:	400237b7          	lui	a5,0x40023
    ad5e:	40078793          	addi	a5,a5,1024 # 40023400 <_eusrstack+0x2001b400>
    ad62:	20006737          	lui	a4,0x20006
    ad66:	6d870713          	addi	a4,a4,1752 # 200066d8 <g_ch32_usbhs_udc>
    ad6a:	cfd8                	sw	a4,28(a5)
    ad6c:	400237b7          	lui	a5,0x40023
    ad70:	40078793          	addi	a5,a5,1024 # 40023400 <_eusrstack+0x2001b400>
    ad74:	0c078da3          	sb	zero,219(a5)
    ad78:	200067b7          	lui	a5,0x20006
    ad7c:	4705                	li	a4,1
    ad7e:	5ce78a23          	sb	a4,1492(a5) # 200065d4 <ep0_rx_data_toggle>
    ad82:	200067b7          	lui	a5,0x20006
    ad86:	4705                	li	a4,1
    ad88:	5ce78aa3          	sb	a4,1493(a5) # 200065d5 <ep0_tx_data_toggle>
    ad8c:	ac19                	j	afa2 <USBHS_IRQHandler+0x900>
    ad8e:	200067b7          	lui	a5,0x20006
    ad92:	5d47c783          	lbu	a5,1492(a5) # 200065d4 <ep0_rx_data_toggle>
    ad96:	0ff7f793          	zext.b	a5,a5
    ad9a:	0017c793          	xori	a5,a5,1
    ad9e:	0ff7f793          	zext.b	a5,a5
    ada2:	00f037b3          	snez	a5,a5
    ada6:	0ff7f713          	zext.b	a4,a5
    adaa:	200067b7          	lui	a5,0x20006
    adae:	5ce78a23          	sb	a4,1492(a5) # 200065d4 <ep0_rx_data_toggle>
    adb2:	aac5                	j	afa2 <USBHS_IRQHandler+0x900>
    adb4:	400237b7          	lui	a5,0x40023
    adb8:	40078793          	addi	a5,a5,1024 # 40023400 <_eusrstack+0x2001b400>
    adbc:	37bc                	.2byte	0x37bc
    adbe:	0ff7f793          	zext.b	a5,a5
    adc2:	0407f793          	andi	a5,a5,64
    adc6:	1c078e63          	beqz	a5,afa2 <USBHS_IRQHandler+0x900>
    adca:	fe842783          	lw	a5,-24(s0)
    adce:	00279713          	slli	a4,a5,0x2
    add2:	400237b7          	lui	a5,0x40023
    add6:	4db78793          	addi	a5,a5,1243 # 400234db <_eusrstack+0x2001b4db>
    adda:	97ba                	add	a5,a5,a4
    addc:	239c                	.2byte	0x239c
    adde:	0ff7f793          	zext.b	a5,a5
    ade2:	07e2                	slli	a5,a5,0x18
    ade4:	87e1                	srai	a5,a5,0x18
    ade6:	9bf1                	andi	a5,a5,-4
    ade8:	07e2                	slli	a5,a5,0x18
    adea:	87e1                	srai	a5,a5,0x18
    adec:	0027e793          	ori	a5,a5,2
    adf0:	01879693          	slli	a3,a5,0x18
    adf4:	86e1                	srai	a3,a3,0x18
    adf6:	fe842783          	lw	a5,-24(s0)
    adfa:	00279713          	slli	a4,a5,0x2
    adfe:	400237b7          	lui	a5,0x40023
    ae02:	4db78793          	addi	a5,a5,1243 # 400234db <_eusrstack+0x2001b4db>
    ae06:	97ba                	add	a5,a5,a4
    ae08:	873e                	mv	a4,a5
    ae0a:	0ff6f793          	zext.b	a5,a3
    ae0e:	a31c                	.2byte	0xa31c
    ae10:	400237b7          	lui	a5,0x40023
    ae14:	40078793          	addi	a5,a5,1024 # 40023400 <_eusrstack+0x2001b400>
    ae18:	27de                	.2byte	0x27de
    ae1a:	07c2                	slli	a5,a5,0x10
    ae1c:	83c1                	srli	a5,a5,0x10
    ae1e:	fef42023          	sw	a5,-32(s0)
    ae22:	200067b7          	lui	a5,0x20006
    ae26:	6d878693          	addi	a3,a5,1752 # 200066d8 <g_ch32_usbhs_udc>
    ae2a:	fe842703          	lw	a4,-24(s0)
    ae2e:	87ba                	mv	a5,a4
    ae30:	078a                	slli	a5,a5,0x2
    ae32:	97ba                	add	a5,a5,a4
    ae34:	078a                	slli	a5,a5,0x2
    ae36:	97b6                	add	a5,a5,a3
    ae38:	1547a703          	lw	a4,340(a5)
    ae3c:	fe042783          	lw	a5,-32(s0)
    ae40:	00f706b3          	add	a3,a4,a5
    ae44:	200067b7          	lui	a5,0x20006
    ae48:	6d878613          	addi	a2,a5,1752 # 200066d8 <g_ch32_usbhs_udc>
    ae4c:	fe842703          	lw	a4,-24(s0)
    ae50:	87ba                	mv	a5,a4
    ae52:	078a                	slli	a5,a5,0x2
    ae54:	97ba                	add	a5,a5,a4
    ae56:	078a                	slli	a5,a5,0x2
    ae58:	97b2                	add	a5,a5,a2
    ae5a:	14d7aa23          	sw	a3,340(a5)
    ae5e:	200067b7          	lui	a5,0x20006
    ae62:	6d878693          	addi	a3,a5,1752 # 200066d8 <g_ch32_usbhs_udc>
    ae66:	fe842703          	lw	a4,-24(s0)
    ae6a:	87ba                	mv	a5,a4
    ae6c:	078a                	slli	a5,a5,0x2
    ae6e:	97ba                	add	a5,a5,a4
    ae70:	078a                	slli	a5,a5,0x2
    ae72:	97b6                	add	a5,a5,a3
    ae74:	15c7a703          	lw	a4,348(a5)
    ae78:	fe042783          	lw	a5,-32(s0)
    ae7c:	00f706b3          	add	a3,a4,a5
    ae80:	200067b7          	lui	a5,0x20006
    ae84:	6d878613          	addi	a2,a5,1752 # 200066d8 <g_ch32_usbhs_udc>
    ae88:	fe842703          	lw	a4,-24(s0)
    ae8c:	87ba                	mv	a5,a4
    ae8e:	078a                	slli	a5,a5,0x2
    ae90:	97ba                	add	a5,a5,a4
    ae92:	078a                	slli	a5,a5,0x2
    ae94:	97b2                	add	a5,a5,a2
    ae96:	14d7ae23          	sw	a3,348(a5)
    ae9a:	200067b7          	lui	a5,0x20006
    ae9e:	6d878693          	addi	a3,a5,1752 # 200066d8 <g_ch32_usbhs_udc>
    aea2:	fe842703          	lw	a4,-24(s0)
    aea6:	87ba                	mv	a5,a4
    aea8:	078a                	slli	a5,a5,0x2
    aeaa:	97ba                	add	a5,a5,a4
    aeac:	078a                	slli	a5,a5,0x2
    aeae:	97b6                	add	a5,a5,a3
    aeb0:	1587a703          	lw	a4,344(a5)
    aeb4:	fe042783          	lw	a5,-32(s0)
    aeb8:	40f706b3          	sub	a3,a4,a5
    aebc:	200067b7          	lui	a5,0x20006
    aec0:	6d878613          	addi	a2,a5,1752 # 200066d8 <g_ch32_usbhs_udc>
    aec4:	fe842703          	lw	a4,-24(s0)
    aec8:	87ba                	mv	a5,a4
    aeca:	078a                	slli	a5,a5,0x2
    aecc:	97ba                	add	a5,a5,a4
    aece:	078a                	slli	a5,a5,0x2
    aed0:	97b2                	add	a5,a5,a2
    aed2:	14d7ac23          	sw	a3,344(a5)
    aed6:	200067b7          	lui	a5,0x20006
    aeda:	6d878693          	addi	a3,a5,1752 # 200066d8 <g_ch32_usbhs_udc>
    aede:	fe842703          	lw	a4,-24(s0)
    aee2:	87ba                	mv	a5,a4
    aee4:	078a                	slli	a5,a5,0x2
    aee6:	97ba                	add	a5,a5,a4
    aee8:	078a                	slli	a5,a5,0x2
    aeea:	97b6                	add	a5,a5,a3
    aeec:	14c7d783          	lhu	a5,332(a5)
    aef0:	873e                	mv	a4,a5
    aef2:	fe042783          	lw	a5,-32(s0)
    aef6:	02e7e063          	bltu	a5,a4,af16 <USBHS_IRQHandler+0x874>
    aefa:	200067b7          	lui	a5,0x20006
    aefe:	6d878693          	addi	a3,a5,1752 # 200066d8 <g_ch32_usbhs_udc>
    af02:	fe842703          	lw	a4,-24(s0)
    af06:	87ba                	mv	a5,a4
    af08:	078a                	slli	a5,a5,0x2
    af0a:	97ba                	add	a5,a5,a4
    af0c:	078a                	slli	a5,a5,0x2
    af0e:	97b6                	add	a5,a5,a3
    af10:	1587a783          	lw	a5,344(a5)
    af14:	e79d                	bnez	a5,af42 <USBHS_IRQHandler+0x8a0>
    af16:	fe842783          	lw	a5,-24(s0)
    af1a:	0ff7f613          	zext.b	a2,a5
    af1e:	200067b7          	lui	a5,0x20006
    af22:	6d878693          	addi	a3,a5,1752 # 200066d8 <g_ch32_usbhs_udc>
    af26:	fe842703          	lw	a4,-24(s0)
    af2a:	87ba                	mv	a5,a4
    af2c:	078a                	slli	a5,a5,0x2
    af2e:	97ba                	add	a5,a5,a4
    af30:	078a                	slli	a5,a5,0x2
    af32:	97b6                	add	a5,a5,a3
    af34:	15c7a783          	lw	a5,348(a5)
    af38:	85be                	mv	a1,a5
    af3a:	8532                	mv	a0,a2
    af3c:	dbbfe0ef          	jal	ra,9cf6 <usbd_event_ep_out_complete_handler>
    af40:	a08d                	j	afa2 <USBHS_IRQHandler+0x900>
    af42:	200067b7          	lui	a5,0x20006
    af46:	6d878693          	addi	a3,a5,1752 # 200066d8 <g_ch32_usbhs_udc>
    af4a:	fe842703          	lw	a4,-24(s0)
    af4e:	87ba                	mv	a5,a4
    af50:	078a                	slli	a5,a5,0x2
    af52:	97ba                	add	a5,a5,a4
    af54:	078a                	slli	a5,a5,0x2
    af56:	97b6                	add	a5,a5,a3
    af58:	1547a683          	lw	a3,340(a5)
    af5c:	fe842703          	lw	a4,-24(s0)
    af60:	100097b7          	lui	a5,0x10009
    af64:	d0778793          	addi	a5,a5,-761 # 10008d07 <_data_lma+0xfffaf37>
    af68:	97ba                	add	a5,a5,a4
    af6a:	078a                	slli	a5,a5,0x2
    af6c:	8736                	mv	a4,a3
    af6e:	c398                	sw	a4,0(a5)
    af70:	fe842783          	lw	a5,-24(s0)
    af74:	00279713          	slli	a4,a5,0x2
    af78:	400237b7          	lui	a5,0x40023
    af7c:	4db78793          	addi	a5,a5,1243 # 400234db <_eusrstack+0x2001b4db>
    af80:	97ba                	add	a5,a5,a4
    af82:	239c                	.2byte	0x239c
    af84:	0ff7f793          	zext.b	a5,a5
    af88:	fe842703          	lw	a4,-24(s0)
    af8c:	00271693          	slli	a3,a4,0x2
    af90:	40023737          	lui	a4,0x40023
    af94:	4db70713          	addi	a4,a4,1243 # 400234db <_eusrstack+0x2001b4db>
    af98:	9736                	add	a4,a4,a3
    af9a:	9bf1                	andi	a5,a5,-4
    af9c:	0ff7f793          	zext.b	a5,a5
    afa0:	a31c                	.2byte	0xa31c
    afa2:	400237b7          	lui	a5,0x40023
    afa6:	40078793          	addi	a5,a5,1024 # 40023400 <_eusrstack+0x2001b400>
    afaa:	4709                	li	a4,2
    afac:	a7b8                	.2byte	0xa7b8
    afae:	a225                	j	b0d6 <USBHS_IRQHandler+0xa34>
    afb0:	fee44783          	lbu	a5,-18(s0)
    afb4:	0207f793          	andi	a5,a5,32
    afb8:	cf99                	beqz	a5,afd6 <USBHS_IRQHandler+0x934>
    afba:	200067b7          	lui	a5,0x20006
    afbe:	6d878513          	addi	a0,a5,1752 # 200066d8 <g_ch32_usbhs_udc>
    afc2:	95dfe0ef          	jal	ra,991e <usbd_event_ep0_setup_complete_handler>
    afc6:	400237b7          	lui	a5,0x40023
    afca:	40078793          	addi	a5,a5,1024 # 40023400 <_eusrstack+0x2001b400>
    afce:	02000713          	li	a4,32
    afd2:	a7b8                	.2byte	0xa7b8
    afd4:	a209                	j	b0d6 <USBHS_IRQHandler+0xa34>
    afd6:	fee44783          	lbu	a5,-18(s0)
    afda:	8b85                	andi	a5,a5,1
    afdc:	0e078d63          	beqz	a5,b0d6 <USBHS_IRQHandler+0xa34>
    afe0:	400237b7          	lui	a5,0x40023
    afe4:	40078793          	addi	a5,a5,1024 # 40023400 <_eusrstack+0x2001b400>
    afe8:	6741                	lui	a4,0x10
    afea:	0705                	addi	a4,a4,1 # 10001 <_data_lma+0x2231>
    afec:	cb98                	sw	a4,16(a5)
    afee:	400237b7          	lui	a5,0x40023
    aff2:	40078793          	addi	a5,a5,1024 # 40023400 <_eusrstack+0x2001b400>
    aff6:	0c079c23          	sh	zero,216(a5)
    affa:	400237b7          	lui	a5,0x40023
    affe:	40078793          	addi	a5,a5,1024 # 40023400 <_eusrstack+0x2001b400>
    b002:	4709                	li	a4,2
    b004:	0ce78d23          	sb	a4,218(a5)
    b008:	200067b7          	lui	a5,0x20006
    b00c:	4705                	li	a4,1
    b00e:	5ce78aa3          	sb	a4,1493(a5) # 200065d5 <ep0_tx_data_toggle>
    b012:	200067b7          	lui	a5,0x20006
    b016:	4705                	li	a4,1
    b018:	5ce78a23          	sb	a4,1492(a5) # 200065d4 <ep0_rx_data_toggle>
    b01c:	4785                	li	a5,1
    b01e:	fef407a3          	sb	a5,-17(s0)
    b022:	a0ad                	j	b08c <USBHS_IRQHandler+0x9ea>
    b024:	fef44783          	lbu	a5,-17(s0)
    b028:	078a                	slli	a5,a5,0x2
    b02a:	873e                	mv	a4,a5
    b02c:	400237b7          	lui	a5,0x40023
    b030:	4d878793          	addi	a5,a5,1240 # 400234d8 <_eusrstack+0x2001b4d8>
    b034:	97ba                	add	a5,a5,a4
    b036:	00079023          	sh	zero,0(a5)
    b03a:	fef44783          	lbu	a5,-17(s0)
    b03e:	078a                	slli	a5,a5,0x2
    b040:	873e                	mv	a4,a5
    b042:	400237b7          	lui	a5,0x40023
    b046:	4da78793          	addi	a5,a5,1242 # 400234da <_eusrstack+0x2001b4da>
    b04a:	97ba                	add	a5,a5,a4
    b04c:	873e                	mv	a4,a5
    b04e:	02200793          	li	a5,34
    b052:	a31c                	.2byte	0xa31c
    b054:	fef44783          	lbu	a5,-17(s0)
    b058:	078a                	slli	a5,a5,0x2
    b05a:	873e                	mv	a4,a5
    b05c:	400237b7          	lui	a5,0x40023
    b060:	4db78793          	addi	a5,a5,1243 # 400234db <_eusrstack+0x2001b4db>
    b064:	97ba                	add	a5,a5,a4
    b066:	873e                	mv	a4,a5
    b068:	02200793          	li	a5,34
    b06c:	a31c                	.2byte	0xa31c
    b06e:	fef44783          	lbu	a5,-17(s0)
    b072:	17fd                	addi	a5,a5,-1
    b074:	20007737          	lui	a4,0x20007
    b078:	96470713          	addi	a4,a4,-1692 # 20006964 <epx_tx_data_toggle>
    b07c:	97ba                	add	a5,a5,a4
    b07e:	00078023          	sb	zero,0(a5)
    b082:	fef44783          	lbu	a5,-17(s0)
    b086:	0785                	addi	a5,a5,1
    b088:	fef407a3          	sb	a5,-17(s0)
    b08c:	fef44703          	lbu	a4,-17(s0)
    b090:	47bd                	li	a5,15
    b092:	f8e7f9e3          	bgeu	a5,a4,b024 <USBHS_IRQHandler+0x982>
    b096:	28c00613          	li	a2,652
    b09a:	4581                	li	a1,0
    b09c:	200067b7          	lui	a5,0x20006
    b0a0:	6d878513          	addi	a0,a5,1752 # 200066d8 <g_ch32_usbhs_udc>
    b0a4:	972f50ef          	jal	ra,216 <memset>
    b0a8:	821fe0ef          	jal	ra,98c8 <usbd_event_reset_handler>
    b0ac:	400237b7          	lui	a5,0x40023
    b0b0:	40078793          	addi	a5,a5,1024 # 40023400 <_eusrstack+0x2001b400>
    b0b4:	20006737          	lui	a4,0x20006
    b0b8:	6d870713          	addi	a4,a4,1752 # 200066d8 <g_ch32_usbhs_udc>
    b0bc:	cfd8                	sw	a4,28(a5)
    b0be:	400237b7          	lui	a5,0x40023
    b0c2:	40078793          	addi	a5,a5,1024 # 40023400 <_eusrstack+0x2001b400>
    b0c6:	0c078da3          	sb	zero,219(a5)
    b0ca:	400237b7          	lui	a5,0x40023
    b0ce:	40078793          	addi	a5,a5,1024 # 40023400 <_eusrstack+0x2001b400>
    b0d2:	4705                	li	a4,1
    b0d4:	a7b8                	.2byte	0xa7b8
    b0d6:	0001                	nop
    b0d8:	5432                	lw	s0,44(sp)
    b0da:	6145                	addi	sp,sp,48
    b0dc:	30200073          	mret

0000b0e0 <swd_get_apsel>:
    b0e0:	1101                	addi	sp,sp,-32
    b0e2:	ce22                	sw	s0,28(sp)
    b0e4:	1000                	addi	s0,sp,32
    b0e6:	fea42623          	sw	a0,-20(s0)
    b0ea:	fec42703          	lw	a4,-20(s0)
    b0ee:	ff0007b7          	lui	a5,0xff000
    b0f2:	8ff9                	and	a5,a5,a4
    b0f4:	853e                	mv	a0,a5
    b0f6:	4472                	lw	s0,28(sp)
    b0f8:	6105                	addi	sp,sp,32
    b0fa:	8082                	ret

0000b0fc <swd_set_target_reset>:
    b0fc:	1101                	addi	sp,sp,-32
    b0fe:	ce06                	sw	ra,28(sp)
    b100:	cc22                	sw	s0,24(sp)
    b102:	1000                	addi	s0,sp,32
    b104:	87aa                	mv	a5,a0
    b106:	fef407a3          	sb	a5,-17(s0)
    b10a:	e000f7b7          	lui	a5,0xe000f
    b10e:	d0078793          	addi	a5,a5,-768 # e000ed00 <_eusrstack+0xc0006d00>
    b112:	47dc                	lw	a5,12(a5)
    b114:	7007f713          	andi	a4,a5,1792
    b118:	05fa07b7          	lui	a5,0x5fa0
    b11c:	0791                	addi	a5,a5,4 # 5fa0004 <_data_lma+0x5f92234>
    b11e:	8fd9                	or	a5,a5,a4
    b120:	85be                	mv	a1,a5
    b122:	e000f7b7          	lui	a5,0xe000f
    b126:	d0c78513          	addi	a0,a5,-756 # e000ed0c <_eusrstack+0xc0006d0c>
    b12a:	2cc9                	jal	b3fc <swd_write_word>
    b12c:	0001                	nop
    b12e:	40f2                	lw	ra,28(sp)
    b130:	4462                	lw	s0,24(sp)
    b132:	6105                	addi	sp,sp,32
    b134:	8082                	ret

0000b136 <int2array>:
    b136:	7179                	addi	sp,sp,-48
    b138:	d622                	sw	s0,44(sp)
    b13a:	1800                	addi	s0,sp,48
    b13c:	fca42e23          	sw	a0,-36(s0)
    b140:	fcb42c23          	sw	a1,-40(s0)
    b144:	87b2                	mv	a5,a2
    b146:	fcf40ba3          	sb	a5,-41(s0)
    b14a:	fe0407a3          	sb	zero,-17(s0)
    b14e:	fe0407a3          	sb	zero,-17(s0)
    b152:	a02d                	j	b17c <int2array+0x46>
    b154:	fef44783          	lbu	a5,-17(s0)
    b158:	078e                	slli	a5,a5,0x3
    b15a:	fd842703          	lw	a4,-40(s0)
    b15e:	00f756b3          	srl	a3,a4,a5
    b162:	fef44783          	lbu	a5,-17(s0)
    b166:	fdc42703          	lw	a4,-36(s0)
    b16a:	97ba                	add	a5,a5,a4
    b16c:	0ff6f713          	zext.b	a4,a3
    b170:	a398                	.2byte	0xa398
    b172:	fef44783          	lbu	a5,-17(s0)
    b176:	0785                	addi	a5,a5,1
    b178:	fef407a3          	sb	a5,-17(s0)
    b17c:	fef44703          	lbu	a4,-17(s0)
    b180:	fd744783          	lbu	a5,-41(s0)
    b184:	fcf768e3          	bltu	a4,a5,b154 <int2array+0x1e>
    b188:	0001                	nop
    b18a:	0001                	nop
    b18c:	5432                	lw	s0,44(sp)
    b18e:	6145                	addi	sp,sp,48
    b190:	8082                	ret

0000b192 <swd_transfer_retry>:
    b192:	7179                	addi	sp,sp,-48
    b194:	d606                	sw	ra,44(sp)
    b196:	d422                	sw	s0,40(sp)
    b198:	1800                	addi	s0,sp,48
    b19a:	fca42e23          	sw	a0,-36(s0)
    b19e:	fcb42c23          	sw	a1,-40(s0)
    b1a2:	fe0407a3          	sb	zero,-17(s0)
    b1a6:	a03d                	j	b1d4 <swd_transfer_retry+0x42>
    b1a8:	fd842583          	lw	a1,-40(s0)
    b1ac:	fdc42503          	lw	a0,-36(s0)
    b1b0:	897fc0ef          	jal	ra,7a46 <SWD_Transfer>
    b1b4:	87aa                	mv	a5,a0
    b1b6:	fef40723          	sb	a5,-18(s0)
    b1ba:	fee44703          	lbu	a4,-18(s0)
    b1be:	4789                	li	a5,2
    b1c0:	00f70563          	beq	a4,a5,b1ca <swd_transfer_retry+0x38>
    b1c4:	fee44783          	lbu	a5,-18(s0)
    b1c8:	a831                	j	b1e4 <swd_transfer_retry+0x52>
    b1ca:	fef44783          	lbu	a5,-17(s0)
    b1ce:	0785                	addi	a5,a5,1
    b1d0:	fef407a3          	sb	a5,-17(s0)
    b1d4:	fef44703          	lbu	a4,-17(s0)
    b1d8:	06300793          	li	a5,99
    b1dc:	fce7f6e3          	bgeu	a5,a4,b1a8 <swd_transfer_retry+0x16>
    b1e0:	fee44783          	lbu	a5,-18(s0)
    b1e4:	853e                	mv	a0,a5
    b1e6:	50b2                	lw	ra,44(sp)
    b1e8:	5422                	lw	s0,40(sp)
    b1ea:	6145                	addi	sp,sp,48
    b1ec:	8082                	ret

0000b1ee <swd_write_dp>:
    b1ee:	7179                	addi	sp,sp,-48
    b1f0:	d606                	sw	ra,44(sp)
    b1f2:	d422                	sw	s0,40(sp)
    b1f4:	1800                	addi	s0,sp,48
    b1f6:	87aa                	mv	a5,a0
    b1f8:	fcb42c23          	sw	a1,-40(s0)
    b1fc:	fcf40fa3          	sb	a5,-33(s0)
    b200:	fdf44703          	lbu	a4,-33(s0)
    b204:	47a1                	li	a5,8
    b206:	00f71d63          	bne	a4,a5,b220 <swd_write_dp+0x32>
    b20a:	200067b7          	lui	a5,0x20006
    b20e:	5d878793          	addi	a5,a5,1496 # 200065d8 <dap_state>
    b212:	439c                	lw	a5,0(a5)
    b214:	fd842703          	lw	a4,-40(s0)
    b218:	00f71463          	bne	a4,a5,b220 <swd_write_dp+0x32>
    b21c:	4785                	li	a5,1
    b21e:	a8b1                	j	b27a <swd_write_dp+0x8c>
    b220:	fdf44783          	lbu	a5,-33(s0)
    b224:	8bb1                	andi	a5,a5,12
    b226:	fef42623          	sw	a5,-20(s0)
    b22a:	fe440793          	addi	a5,s0,-28
    b22e:	4611                	li	a2,4
    b230:	fd842583          	lw	a1,-40(s0)
    b234:	853e                	mv	a0,a5
    b236:	3701                	jal	b136 <int2array>
    b238:	fe440793          	addi	a5,s0,-28
    b23c:	85be                	mv	a1,a5
    b23e:	fec42503          	lw	a0,-20(s0)
    b242:	3f81                	jal	b192 <swd_transfer_retry>
    b244:	87aa                	mv	a5,a0
    b246:	fef405a3          	sb	a5,-21(s0)
    b24a:	feb44703          	lbu	a4,-21(s0)
    b24e:	4785                	li	a5,1
    b250:	00f71e63          	bne	a4,a5,b26c <swd_write_dp+0x7e>
    b254:	fdf44703          	lbu	a4,-33(s0)
    b258:	47a1                	li	a5,8
    b25a:	00f71963          	bne	a4,a5,b26c <swd_write_dp+0x7e>
    b25e:	200067b7          	lui	a5,0x20006
    b262:	5d878793          	addi	a5,a5,1496 # 200065d8 <dap_state>
    b266:	fd842703          	lw	a4,-40(s0)
    b26a:	c398                	sw	a4,0(a5)
    b26c:	feb44783          	lbu	a5,-21(s0)
    b270:	17fd                	addi	a5,a5,-1
    b272:	0017b793          	seqz	a5,a5
    b276:	0ff7f793          	zext.b	a5,a5
    b27a:	853e                	mv	a0,a5
    b27c:	50b2                	lw	ra,44(sp)
    b27e:	5422                	lw	s0,40(sp)
    b280:	6145                	addi	sp,sp,48
    b282:	8082                	ret

0000b284 <swd_write_ap>:
    b284:	7179                	addi	sp,sp,-48
    b286:	d606                	sw	ra,44(sp)
    b288:	d422                	sw	s0,40(sp)
    b28a:	1800                	addi	s0,sp,48
    b28c:	fca42e23          	sw	a0,-36(s0)
    b290:	fcb42c23          	sw	a1,-40(s0)
    b294:	fdc42503          	lw	a0,-36(s0)
    b298:	35a1                	jal	b0e0 <swd_get_apsel>
    b29a:	fea42623          	sw	a0,-20(s0)
    b29e:	fdc42783          	lw	a5,-36(s0)
    b2a2:	0f07f793          	andi	a5,a5,240
    b2a6:	fef42423          	sw	a5,-24(s0)
    b2aa:	fec42703          	lw	a4,-20(s0)
    b2ae:	fe842783          	lw	a5,-24(s0)
    b2b2:	8fd9                	or	a5,a5,a4
    b2b4:	85be                	mv	a1,a5
    b2b6:	4521                	li	a0,8
    b2b8:	3f1d                	jal	b1ee <swd_write_dp>
    b2ba:	87aa                	mv	a5,a0
    b2bc:	e399                	bnez	a5,b2c2 <swd_write_ap+0x3e>
    b2be:	4781                	li	a5,0
    b2c0:	a851                	j	b354 <swd_write_ap+0xd0>
    b2c2:	fdc42783          	lw	a5,-36(s0)
    b2c6:	e785                	bnez	a5,b2ee <swd_write_ap+0x6a>
    b2c8:	200067b7          	lui	a5,0x20006
    b2cc:	5d878793          	addi	a5,a5,1496 # 200065d8 <dap_state>
    b2d0:	43dc                	lw	a5,4(a5)
    b2d2:	fd842703          	lw	a4,-40(s0)
    b2d6:	00f71463          	bne	a4,a5,b2de <swd_write_ap+0x5a>
    b2da:	4785                	li	a5,1
    b2dc:	a8a5                	j	b354 <swd_write_ap+0xd0>
    b2de:	200067b7          	lui	a5,0x20006
    b2e2:	5d878793          	addi	a5,a5,1496 # 200065d8 <dap_state>
    b2e6:	fd842703          	lw	a4,-40(s0)
    b2ea:	c3d8                	sw	a4,4(a5)
    b2ec:	a011                	j	b2f0 <swd_write_ap+0x6c>
    b2ee:	0001                	nop
    b2f0:	fdc42783          	lw	a5,-36(s0)
    b2f4:	0ff7f793          	zext.b	a5,a5
    b2f8:	8bb1                	andi	a5,a5,12
    b2fa:	0ff7f793          	zext.b	a5,a5
    b2fe:	0017e793          	ori	a5,a5,1
    b302:	fef403a3          	sb	a5,-25(s0)
    b306:	fe040793          	addi	a5,s0,-32
    b30a:	4611                	li	a2,4
    b30c:	fd842583          	lw	a1,-40(s0)
    b310:	853e                	mv	a0,a5
    b312:	3515                	jal	b136 <int2array>
    b314:	fe744783          	lbu	a5,-25(s0)
    b318:	fe040713          	addi	a4,s0,-32
    b31c:	85ba                	mv	a1,a4
    b31e:	853e                	mv	a0,a5
    b320:	3d8d                	jal	b192 <swd_transfer_retry>
    b322:	87aa                	mv	a5,a0
    b324:	873e                	mv	a4,a5
    b326:	4785                	li	a5,1
    b328:	00f70463          	beq	a4,a5,b330 <swd_write_ap+0xac>
    b32c:	4781                	li	a5,0
    b32e:	a01d                	j	b354 <swd_write_ap+0xd0>
    b330:	47b9                	li	a5,14
    b332:	fef403a3          	sb	a5,-25(s0)
    b336:	fe744783          	lbu	a5,-25(s0)
    b33a:	4581                	li	a1,0
    b33c:	853e                	mv	a0,a5
    b33e:	3d91                	jal	b192 <swd_transfer_retry>
    b340:	87aa                	mv	a5,a0
    b342:	fef40323          	sb	a5,-26(s0)
    b346:	fe644783          	lbu	a5,-26(s0)
    b34a:	17fd                	addi	a5,a5,-1
    b34c:	0017b793          	seqz	a5,a5
    b350:	0ff7f793          	zext.b	a5,a5
    b354:	853e                	mv	a0,a5
    b356:	50b2                	lw	ra,44(sp)
    b358:	5422                	lw	s0,40(sp)
    b35a:	6145                	addi	sp,sp,48
    b35c:	8082                	ret

0000b35e <swd_write_data>:
    b35e:	7179                	addi	sp,sp,-48
    b360:	d606                	sw	ra,44(sp)
    b362:	d422                	sw	s0,40(sp)
    b364:	1800                	addi	s0,sp,48
    b366:	fca42e23          	sw	a0,-36(s0)
    b36a:	fcb42c23          	sw	a1,-40(s0)
    b36e:	fe840793          	addi	a5,s0,-24
    b372:	4611                	li	a2,4
    b374:	fdc42583          	lw	a1,-36(s0)
    b378:	853e                	mv	a0,a5
    b37a:	3b75                	jal	b136 <int2array>
    b37c:	4795                	li	a5,5
    b37e:	fef407a3          	sb	a5,-17(s0)
    b382:	fef44783          	lbu	a5,-17(s0)
    b386:	fe840713          	addi	a4,s0,-24
    b38a:	85ba                	mv	a1,a4
    b38c:	853e                	mv	a0,a5
    b38e:	3511                	jal	b192 <swd_transfer_retry>
    b390:	87aa                	mv	a5,a0
    b392:	873e                	mv	a4,a5
    b394:	4785                	li	a5,1
    b396:	00f70463          	beq	a4,a5,b39e <swd_write_data+0x40>
    b39a:	4781                	li	a5,0
    b39c:	a899                	j	b3f2 <swd_write_data+0x94>
    b39e:	fe840793          	addi	a5,s0,-24
    b3a2:	4611                	li	a2,4
    b3a4:	fd842583          	lw	a1,-40(s0)
    b3a8:	853e                	mv	a0,a5
    b3aa:	3371                	jal	b136 <int2array>
    b3ac:	47b5                	li	a5,13
    b3ae:	fef407a3          	sb	a5,-17(s0)
    b3b2:	fef44783          	lbu	a5,-17(s0)
    b3b6:	fe840713          	addi	a4,s0,-24
    b3ba:	85ba                	mv	a1,a4
    b3bc:	853e                	mv	a0,a5
    b3be:	3bd1                	jal	b192 <swd_transfer_retry>
    b3c0:	87aa                	mv	a5,a0
    b3c2:	873e                	mv	a4,a5
    b3c4:	4785                	li	a5,1
    b3c6:	00f70463          	beq	a4,a5,b3ce <swd_write_data+0x70>
    b3ca:	4781                	li	a5,0
    b3cc:	a01d                	j	b3f2 <swd_write_data+0x94>
    b3ce:	47b9                	li	a5,14
    b3d0:	fef407a3          	sb	a5,-17(s0)
    b3d4:	fef44783          	lbu	a5,-17(s0)
    b3d8:	4581                	li	a1,0
    b3da:	853e                	mv	a0,a5
    b3dc:	3b5d                	jal	b192 <swd_transfer_retry>
    b3de:	87aa                	mv	a5,a0
    b3e0:	fef40723          	sb	a5,-18(s0)
    b3e4:	fee44783          	lbu	a5,-18(s0)
    b3e8:	17fd                	addi	a5,a5,-1
    b3ea:	0017b793          	seqz	a5,a5
    b3ee:	0ff7f793          	zext.b	a5,a5
    b3f2:	853e                	mv	a0,a5
    b3f4:	50b2                	lw	ra,44(sp)
    b3f6:	5422                	lw	s0,40(sp)
    b3f8:	6145                	addi	sp,sp,48
    b3fa:	8082                	ret

0000b3fc <swd_write_word>:
    b3fc:	1101                	addi	sp,sp,-32
    b3fe:	ce06                	sw	ra,28(sp)
    b400:	cc22                	sw	s0,24(sp)
    b402:	1000                	addi	s0,sp,32
    b404:	fea42623          	sw	a0,-20(s0)
    b408:	feb42423          	sw	a1,-24(s0)
    b40c:	230007b7          	lui	a5,0x23000
    b410:	05278593          	addi	a1,a5,82 # 23000052 <_eusrstack+0x2ff8052>
    b414:	4501                	li	a0,0
    b416:	35bd                	jal	b284 <swd_write_ap>
    b418:	87aa                	mv	a5,a0
    b41a:	e399                	bnez	a5,b420 <swd_write_word+0x24>
    b41c:	4781                	li	a5,0
    b41e:	a819                	j	b434 <swd_write_word+0x38>
    b420:	fe842583          	lw	a1,-24(s0)
    b424:	fec42503          	lw	a0,-20(s0)
    b428:	3f1d                	jal	b35e <swd_write_data>
    b42a:	87aa                	mv	a5,a0
    b42c:	e399                	bnez	a5,b432 <swd_write_word+0x36>
    b42e:	4781                	li	a5,0
    b430:	a011                	j	b434 <swd_write_word+0x38>
    b432:	4785                	li	a5,1
    b434:	853e                	mv	a0,a5
    b436:	40f2                	lw	ra,28(sp)
    b438:	4462                	lw	s0,24(sp)
    b43a:	6105                	addi	sp,sp,32
    b43c:	8082                	ret

0000b43e <Delay_Init>:
    b43e:	1141                	addi	sp,sp,-16
    b440:	c622                	sw	s0,12(sp)
    b442:	0800                	addi	s0,sp,16
    b444:	8381a703          	lw	a4,-1992(gp) # 20000190 <SystemCoreClock>
    b448:	007a17b7          	lui	a5,0x7a1
    b44c:	20078793          	addi	a5,a5,512 # 7a1200 <_data_lma+0x793430>
    b450:	02f757b3          	divu	a5,a4,a5
    b454:	0ff7f713          	zext.b	a4,a5
    b458:	200067b7          	lui	a5,0x20006
    b45c:	5ee78023          	sb	a4,1504(a5) # 200065e0 <p_us>
    b460:	200067b7          	lui	a5,0x20006
    b464:	5e07c783          	lbu	a5,1504(a5) # 200065e0 <p_us>
    b468:	873e                	mv	a4,a5
    b46a:	3e800793          	li	a5,1000
    b46e:	02f707b3          	mul	a5,a4,a5
    b472:	01079713          	slli	a4,a5,0x10
    b476:	8341                	srli	a4,a4,0x10
    b478:	200067b7          	lui	a5,0x20006
    b47c:	5ee79123          	sh	a4,1506(a5) # 200065e2 <p_ms>
    b480:	0001                	nop
    b482:	4432                	lw	s0,12(sp)
    b484:	0141                	addi	sp,sp,16
    b486:	8082                	ret

0000b488 <_sbrk>:
    b488:	1101                	addi	sp,sp,-32
    b48a:	ce22                	sw	s0,28(sp)
    b48c:	1000                	addi	s0,sp,32
    b48e:	fea42623          	sw	a0,-20(s0)
    b492:	8301a703          	lw	a4,-2000(gp) # 20000188 <curbrk.0>
    b496:	fec42783          	lw	a5,-20(s0)
    b49a:	973e                	add	a4,a4,a5
    b49c:	200077b7          	lui	a5,0x20007
    b4a0:	b7478793          	addi	a5,a5,-1164 # 20006b74 <_ebss>
    b4a4:	00f76d63          	bltu	a4,a5,b4be <_sbrk+0x36>
    b4a8:	8301a703          	lw	a4,-2000(gp) # 20000188 <curbrk.0>
    b4ac:	fec42783          	lw	a5,-20(s0)
    b4b0:	973e                	add	a4,a4,a5
    b4b2:	200087b7          	lui	a5,0x20008
    b4b6:	80078793          	addi	a5,a5,-2048 # 20007800 <_heap_end>
    b4ba:	00e7f463          	bgeu	a5,a4,b4c2 <_sbrk+0x3a>
    b4be:	57fd                	li	a5,-1
    b4c0:	a839                	j	b4de <_sbrk+0x56>
    b4c2:	8301a703          	lw	a4,-2000(gp) # 20000188 <curbrk.0>
    b4c6:	fec42783          	lw	a5,-20(s0)
    b4ca:	973e                	add	a4,a4,a5
    b4cc:	82e1a823          	sw	a4,-2000(gp) # 20000188 <curbrk.0>
    b4d0:	8301a703          	lw	a4,-2000(gp) # 20000188 <curbrk.0>
    b4d4:	fec42783          	lw	a5,-20(s0)
    b4d8:	40f007b3          	neg	a5,a5
    b4dc:	97ba                	add	a5,a5,a4
    b4de:	853e                	mv	a0,a5
    b4e0:	4472                	lw	s0,28(sp)
    b4e2:	6105                	addi	sp,sp,32
    b4e4:	8082                	ret

0000b4e6 <DMA_DeInit>:
    b4e6:	1101                	addi	sp,sp,-32
    b4e8:	ce22                	sw	s0,28(sp)
    b4ea:	1000                	addi	s0,sp,32
    b4ec:	fea42623          	sw	a0,-20(s0)
    b4f0:	fec42783          	lw	a5,-20(s0)
    b4f4:	4398                	lw	a4,0(a5)
    b4f6:	67c1                	lui	a5,0x10
    b4f8:	17f9                	addi	a5,a5,-2 # fffe <_data_lma+0x222e>
    b4fa:	8f7d                	and	a4,a4,a5
    b4fc:	fec42783          	lw	a5,-20(s0)
    b500:	c398                	sw	a4,0(a5)
    b502:	fec42783          	lw	a5,-20(s0)
    b506:	0007a023          	sw	zero,0(a5)
    b50a:	fec42783          	lw	a5,-20(s0)
    b50e:	0007a223          	sw	zero,4(a5)
    b512:	fec42783          	lw	a5,-20(s0)
    b516:	0007a423          	sw	zero,8(a5)
    b51a:	fec42783          	lw	a5,-20(s0)
    b51e:	0007a623          	sw	zero,12(a5)
    b522:	fec42703          	lw	a4,-20(s0)
    b526:	400207b7          	lui	a5,0x40020
    b52a:	07a1                	addi	a5,a5,8 # 40020008 <_eusrstack+0x20018008>
    b52c:	00f71b63          	bne	a4,a5,b542 <DMA_DeInit+0x5c>
    b530:	400207b7          	lui	a5,0x40020
    b534:	43d8                	lw	a4,4(a5)
    b536:	400207b7          	lui	a5,0x40020
    b53a:	00f76713          	ori	a4,a4,15
    b53e:	c3d8                	sw	a4,4(a5)
    b540:	ac45                	j	b7f0 <DMA_DeInit+0x30a>
    b542:	fec42703          	lw	a4,-20(s0)
    b546:	400207b7          	lui	a5,0x40020
    b54a:	07f1                	addi	a5,a5,28 # 4002001c <_eusrstack+0x2001801c>
    b54c:	00f71b63          	bne	a4,a5,b562 <DMA_DeInit+0x7c>
    b550:	400207b7          	lui	a5,0x40020
    b554:	43d8                	lw	a4,4(a5)
    b556:	400207b7          	lui	a5,0x40020
    b55a:	0f076713          	ori	a4,a4,240
    b55e:	c3d8                	sw	a4,4(a5)
    b560:	ac41                	j	b7f0 <DMA_DeInit+0x30a>
    b562:	fec42703          	lw	a4,-20(s0)
    b566:	400207b7          	lui	a5,0x40020
    b56a:	03078793          	addi	a5,a5,48 # 40020030 <_eusrstack+0x20018030>
    b56e:	00f71d63          	bne	a4,a5,b588 <DMA_DeInit+0xa2>
    b572:	400207b7          	lui	a5,0x40020
    b576:	43d4                	lw	a3,4(a5)
    b578:	400207b7          	lui	a5,0x40020
    b57c:	6705                	lui	a4,0x1
    b57e:	f0070713          	addi	a4,a4,-256 # f00 <DAP_SWD_Sequence+0xe8>
    b582:	8f55                	or	a4,a4,a3
    b584:	c3d8                	sw	a4,4(a5)
    b586:	a4ad                	j	b7f0 <DMA_DeInit+0x30a>
    b588:	fec42703          	lw	a4,-20(s0)
    b58c:	400207b7          	lui	a5,0x40020
    b590:	04478793          	addi	a5,a5,68 # 40020044 <_eusrstack+0x20018044>
    b594:	00f71b63          	bne	a4,a5,b5aa <DMA_DeInit+0xc4>
    b598:	400207b7          	lui	a5,0x40020
    b59c:	43d4                	lw	a3,4(a5)
    b59e:	400207b7          	lui	a5,0x40020
    b5a2:	673d                	lui	a4,0xf
    b5a4:	8f55                	or	a4,a4,a3
    b5a6:	c3d8                	sw	a4,4(a5)
    b5a8:	a4a1                	j	b7f0 <DMA_DeInit+0x30a>
    b5aa:	fec42703          	lw	a4,-20(s0)
    b5ae:	400207b7          	lui	a5,0x40020
    b5b2:	05878793          	addi	a5,a5,88 # 40020058 <_eusrstack+0x20018058>
    b5b6:	00f71c63          	bne	a4,a5,b5ce <DMA_DeInit+0xe8>
    b5ba:	400207b7          	lui	a5,0x40020
    b5be:	43d4                	lw	a3,4(a5)
    b5c0:	400207b7          	lui	a5,0x40020
    b5c4:	000f0737          	lui	a4,0xf0
    b5c8:	8f55                	or	a4,a4,a3
    b5ca:	c3d8                	sw	a4,4(a5)
    b5cc:	a415                	j	b7f0 <DMA_DeInit+0x30a>
    b5ce:	fec42703          	lw	a4,-20(s0)
    b5d2:	400207b7          	lui	a5,0x40020
    b5d6:	06c78793          	addi	a5,a5,108 # 4002006c <_eusrstack+0x2001806c>
    b5da:	00f71c63          	bne	a4,a5,b5f2 <DMA_DeInit+0x10c>
    b5de:	400207b7          	lui	a5,0x40020
    b5e2:	43d4                	lw	a3,4(a5)
    b5e4:	400207b7          	lui	a5,0x40020
    b5e8:	00f00737          	lui	a4,0xf00
    b5ec:	8f55                	or	a4,a4,a3
    b5ee:	c3d8                	sw	a4,4(a5)
    b5f0:	a401                	j	b7f0 <DMA_DeInit+0x30a>
    b5f2:	fec42703          	lw	a4,-20(s0)
    b5f6:	400207b7          	lui	a5,0x40020
    b5fa:	08078793          	addi	a5,a5,128 # 40020080 <_eusrstack+0x20018080>
    b5fe:	00f71c63          	bne	a4,a5,b616 <DMA_DeInit+0x130>
    b602:	400207b7          	lui	a5,0x40020
    b606:	43d4                	lw	a3,4(a5)
    b608:	400207b7          	lui	a5,0x40020
    b60c:	0f000737          	lui	a4,0xf000
    b610:	8f55                	or	a4,a4,a3
    b612:	c3d8                	sw	a4,4(a5)
    b614:	aaf1                	j	b7f0 <DMA_DeInit+0x30a>
    b616:	fec42703          	lw	a4,-20(s0)
    b61a:	400207b7          	lui	a5,0x40020
    b61e:	40878793          	addi	a5,a5,1032 # 40020408 <_eusrstack+0x20018408>
    b622:	00f71f63          	bne	a4,a5,b640 <DMA_DeInit+0x15a>
    b626:	400207b7          	lui	a5,0x40020
    b62a:	40078793          	addi	a5,a5,1024 # 40020400 <_eusrstack+0x20018400>
    b62e:	43d8                	lw	a4,4(a5)
    b630:	400207b7          	lui	a5,0x40020
    b634:	40078793          	addi	a5,a5,1024 # 40020400 <_eusrstack+0x20018400>
    b638:	00f76713          	ori	a4,a4,15
    b63c:	c3d8                	sw	a4,4(a5)
    b63e:	aa4d                	j	b7f0 <DMA_DeInit+0x30a>
    b640:	fec42703          	lw	a4,-20(s0)
    b644:	400207b7          	lui	a5,0x40020
    b648:	41c78793          	addi	a5,a5,1052 # 4002041c <_eusrstack+0x2001841c>
    b64c:	00f71f63          	bne	a4,a5,b66a <DMA_DeInit+0x184>
    b650:	400207b7          	lui	a5,0x40020
    b654:	40078793          	addi	a5,a5,1024 # 40020400 <_eusrstack+0x20018400>
    b658:	43d8                	lw	a4,4(a5)
    b65a:	400207b7          	lui	a5,0x40020
    b65e:	40078793          	addi	a5,a5,1024 # 40020400 <_eusrstack+0x20018400>
    b662:	0f076713          	ori	a4,a4,240
    b666:	c3d8                	sw	a4,4(a5)
    b668:	a261                	j	b7f0 <DMA_DeInit+0x30a>
    b66a:	fec42703          	lw	a4,-20(s0)
    b66e:	400207b7          	lui	a5,0x40020
    b672:	43078793          	addi	a5,a5,1072 # 40020430 <_eusrstack+0x20018430>
    b676:	02f71163          	bne	a4,a5,b698 <DMA_DeInit+0x1b2>
    b67a:	400207b7          	lui	a5,0x40020
    b67e:	40078793          	addi	a5,a5,1024 # 40020400 <_eusrstack+0x20018400>
    b682:	43d4                	lw	a3,4(a5)
    b684:	400207b7          	lui	a5,0x40020
    b688:	40078793          	addi	a5,a5,1024 # 40020400 <_eusrstack+0x20018400>
    b68c:	6705                	lui	a4,0x1
    b68e:	f0070713          	addi	a4,a4,-256 # f00 <DAP_SWD_Sequence+0xe8>
    b692:	8f55                	or	a4,a4,a3
    b694:	c3d8                	sw	a4,4(a5)
    b696:	aaa9                	j	b7f0 <DMA_DeInit+0x30a>
    b698:	fec42703          	lw	a4,-20(s0)
    b69c:	400207b7          	lui	a5,0x40020
    b6a0:	44478793          	addi	a5,a5,1092 # 40020444 <_eusrstack+0x20018444>
    b6a4:	00f71f63          	bne	a4,a5,b6c2 <DMA_DeInit+0x1dc>
    b6a8:	400207b7          	lui	a5,0x40020
    b6ac:	40078793          	addi	a5,a5,1024 # 40020400 <_eusrstack+0x20018400>
    b6b0:	43d4                	lw	a3,4(a5)
    b6b2:	400207b7          	lui	a5,0x40020
    b6b6:	40078793          	addi	a5,a5,1024 # 40020400 <_eusrstack+0x20018400>
    b6ba:	673d                	lui	a4,0xf
    b6bc:	8f55                	or	a4,a4,a3
    b6be:	c3d8                	sw	a4,4(a5)
    b6c0:	aa05                	j	b7f0 <DMA_DeInit+0x30a>
    b6c2:	fec42703          	lw	a4,-20(s0)
    b6c6:	400207b7          	lui	a5,0x40020
    b6ca:	45878793          	addi	a5,a5,1112 # 40020458 <_eusrstack+0x20018458>
    b6ce:	02f71063          	bne	a4,a5,b6ee <DMA_DeInit+0x208>
    b6d2:	400207b7          	lui	a5,0x40020
    b6d6:	40078793          	addi	a5,a5,1024 # 40020400 <_eusrstack+0x20018400>
    b6da:	43d4                	lw	a3,4(a5)
    b6dc:	400207b7          	lui	a5,0x40020
    b6e0:	40078793          	addi	a5,a5,1024 # 40020400 <_eusrstack+0x20018400>
    b6e4:	000f0737          	lui	a4,0xf0
    b6e8:	8f55                	or	a4,a4,a3
    b6ea:	c3d8                	sw	a4,4(a5)
    b6ec:	a211                	j	b7f0 <DMA_DeInit+0x30a>
    b6ee:	fec42703          	lw	a4,-20(s0)
    b6f2:	400207b7          	lui	a5,0x40020
    b6f6:	46c78793          	addi	a5,a5,1132 # 4002046c <_eusrstack+0x2001846c>
    b6fa:	02f71063          	bne	a4,a5,b71a <DMA_DeInit+0x234>
    b6fe:	400207b7          	lui	a5,0x40020
    b702:	40078793          	addi	a5,a5,1024 # 40020400 <_eusrstack+0x20018400>
    b706:	43d4                	lw	a3,4(a5)
    b708:	400207b7          	lui	a5,0x40020
    b70c:	40078793          	addi	a5,a5,1024 # 40020400 <_eusrstack+0x20018400>
    b710:	00f00737          	lui	a4,0xf00
    b714:	8f55                	or	a4,a4,a3
    b716:	c3d8                	sw	a4,4(a5)
    b718:	a8e1                	j	b7f0 <DMA_DeInit+0x30a>
    b71a:	fec42703          	lw	a4,-20(s0)
    b71e:	400207b7          	lui	a5,0x40020
    b722:	48078793          	addi	a5,a5,1152 # 40020480 <_eusrstack+0x20018480>
    b726:	02f71063          	bne	a4,a5,b746 <DMA_DeInit+0x260>
    b72a:	400207b7          	lui	a5,0x40020
    b72e:	40078793          	addi	a5,a5,1024 # 40020400 <_eusrstack+0x20018400>
    b732:	43d4                	lw	a3,4(a5)
    b734:	400207b7          	lui	a5,0x40020
    b738:	40078793          	addi	a5,a5,1024 # 40020400 <_eusrstack+0x20018400>
    b73c:	0f000737          	lui	a4,0xf000
    b740:	8f55                	or	a4,a4,a3
    b742:	c3d8                	sw	a4,4(a5)
    b744:	a075                	j	b7f0 <DMA_DeInit+0x30a>
    b746:	fec42703          	lw	a4,-20(s0)
    b74a:	400207b7          	lui	a5,0x40020
    b74e:	49078793          	addi	a5,a5,1168 # 40020490 <_eusrstack+0x20018490>
    b752:	00f71f63          	bne	a4,a5,b770 <DMA_DeInit+0x28a>
    b756:	400207b7          	lui	a5,0x40020
    b75a:	4d078793          	addi	a5,a5,1232 # 400204d0 <_eusrstack+0x200184d0>
    b75e:	43d8                	lw	a4,4(a5)
    b760:	400207b7          	lui	a5,0x40020
    b764:	4d078793          	addi	a5,a5,1232 # 400204d0 <_eusrstack+0x200184d0>
    b768:	00f76713          	ori	a4,a4,15
    b76c:	c3d8                	sw	a4,4(a5)
    b76e:	a049                	j	b7f0 <DMA_DeInit+0x30a>
    b770:	fec42703          	lw	a4,-20(s0)
    b774:	400207b7          	lui	a5,0x40020
    b778:	4a078793          	addi	a5,a5,1184 # 400204a0 <_eusrstack+0x200184a0>
    b77c:	00f71f63          	bne	a4,a5,b79a <DMA_DeInit+0x2b4>
    b780:	400207b7          	lui	a5,0x40020
    b784:	4d078793          	addi	a5,a5,1232 # 400204d0 <_eusrstack+0x200184d0>
    b788:	43d8                	lw	a4,4(a5)
    b78a:	400207b7          	lui	a5,0x40020
    b78e:	4d078793          	addi	a5,a5,1232 # 400204d0 <_eusrstack+0x200184d0>
    b792:	0f076713          	ori	a4,a4,240
    b796:	c3d8                	sw	a4,4(a5)
    b798:	a8a1                	j	b7f0 <DMA_DeInit+0x30a>
    b79a:	fec42703          	lw	a4,-20(s0)
    b79e:	400207b7          	lui	a5,0x40020
    b7a2:	4b078793          	addi	a5,a5,1200 # 400204b0 <_eusrstack+0x200184b0>
    b7a6:	02f71163          	bne	a4,a5,b7c8 <DMA_DeInit+0x2e2>
    b7aa:	400207b7          	lui	a5,0x40020
    b7ae:	4d078793          	addi	a5,a5,1232 # 400204d0 <_eusrstack+0x200184d0>
    b7b2:	43d4                	lw	a3,4(a5)
    b7b4:	400207b7          	lui	a5,0x40020
    b7b8:	4d078793          	addi	a5,a5,1232 # 400204d0 <_eusrstack+0x200184d0>
    b7bc:	6705                	lui	a4,0x1
    b7be:	f0070713          	addi	a4,a4,-256 # f00 <DAP_SWD_Sequence+0xe8>
    b7c2:	8f55                	or	a4,a4,a3
    b7c4:	c3d8                	sw	a4,4(a5)
    b7c6:	a02d                	j	b7f0 <DMA_DeInit+0x30a>
    b7c8:	fec42703          	lw	a4,-20(s0)
    b7cc:	400207b7          	lui	a5,0x40020
    b7d0:	4c078793          	addi	a5,a5,1216 # 400204c0 <_eusrstack+0x200184c0>
    b7d4:	00f71e63          	bne	a4,a5,b7f0 <DMA_DeInit+0x30a>
    b7d8:	400207b7          	lui	a5,0x40020
    b7dc:	4d078793          	addi	a5,a5,1232 # 400204d0 <_eusrstack+0x200184d0>
    b7e0:	43d4                	lw	a3,4(a5)
    b7e2:	400207b7          	lui	a5,0x40020
    b7e6:	4d078793          	addi	a5,a5,1232 # 400204d0 <_eusrstack+0x200184d0>
    b7ea:	673d                	lui	a4,0xf
    b7ec:	8f55                	or	a4,a4,a3
    b7ee:	c3d8                	sw	a4,4(a5)
    b7f0:	0001                	nop
    b7f2:	4472                	lw	s0,28(sp)
    b7f4:	6105                	addi	sp,sp,32
    b7f6:	8082                	ret

0000b7f8 <DMA_Init>:
    b7f8:	7179                	addi	sp,sp,-48
    b7fa:	d622                	sw	s0,44(sp)
    b7fc:	1800                	addi	s0,sp,48
    b7fe:	fca42e23          	sw	a0,-36(s0)
    b802:	fcb42c23          	sw	a1,-40(s0)
    b806:	fe042623          	sw	zero,-20(s0)
    b80a:	fdc42783          	lw	a5,-36(s0)
    b80e:	439c                	lw	a5,0(a5)
    b810:	fef42623          	sw	a5,-20(s0)
    b814:	fec42703          	lw	a4,-20(s0)
    b818:	77e1                	lui	a5,0xffff8
    b81a:	07bd                	addi	a5,a5,15 # ffff800f <_eusrstack+0xdfff000f>
    b81c:	8ff9                	and	a5,a5,a4
    b81e:	fef42623          	sw	a5,-20(s0)
    b822:	fd842783          	lw	a5,-40(s0)
    b826:	4798                	lw	a4,8(a5)
    b828:	fd842783          	lw	a5,-40(s0)
    b82c:	539c                	lw	a5,32(a5)
    b82e:	8f5d                	or	a4,a4,a5
    b830:	fd842783          	lw	a5,-40(s0)
    b834:	4b9c                	lw	a5,16(a5)
    b836:	8f5d                	or	a4,a4,a5
    b838:	fd842783          	lw	a5,-40(s0)
    b83c:	4bdc                	lw	a5,20(a5)
    b83e:	8f5d                	or	a4,a4,a5
    b840:	fd842783          	lw	a5,-40(s0)
    b844:	4f9c                	lw	a5,24(a5)
    b846:	8f5d                	or	a4,a4,a5
    b848:	fd842783          	lw	a5,-40(s0)
    b84c:	4fdc                	lw	a5,28(a5)
    b84e:	8f5d                	or	a4,a4,a5
    b850:	fd842783          	lw	a5,-40(s0)
    b854:	53dc                	lw	a5,36(a5)
    b856:	8f5d                	or	a4,a4,a5
    b858:	fd842783          	lw	a5,-40(s0)
    b85c:	579c                	lw	a5,40(a5)
    b85e:	8fd9                	or	a5,a5,a4
    b860:	fec42703          	lw	a4,-20(s0)
    b864:	8fd9                	or	a5,a5,a4
    b866:	fef42623          	sw	a5,-20(s0)
    b86a:	fdc42783          	lw	a5,-36(s0)
    b86e:	fec42703          	lw	a4,-20(s0)
    b872:	c398                	sw	a4,0(a5)
    b874:	fd842783          	lw	a5,-40(s0)
    b878:	47d8                	lw	a4,12(a5)
    b87a:	fdc42783          	lw	a5,-36(s0)
    b87e:	c3d8                	sw	a4,4(a5)
    b880:	fd842783          	lw	a5,-40(s0)
    b884:	4398                	lw	a4,0(a5)
    b886:	fdc42783          	lw	a5,-36(s0)
    b88a:	c798                	sw	a4,8(a5)
    b88c:	fd842783          	lw	a5,-40(s0)
    b890:	43d8                	lw	a4,4(a5)
    b892:	fdc42783          	lw	a5,-36(s0)
    b896:	c7d8                	sw	a4,12(a5)
    b898:	0001                	nop
    b89a:	5432                	lw	s0,44(sp)
    b89c:	6145                	addi	sp,sp,48
    b89e:	8082                	ret

0000b8a0 <DMA_Cmd>:
    b8a0:	1101                	addi	sp,sp,-32
    b8a2:	ce22                	sw	s0,28(sp)
    b8a4:	1000                	addi	s0,sp,32
    b8a6:	fea42623          	sw	a0,-20(s0)
    b8aa:	feb42423          	sw	a1,-24(s0)
    b8ae:	fe842783          	lw	a5,-24(s0)
    b8b2:	cb91                	beqz	a5,b8c6 <DMA_Cmd+0x26>
    b8b4:	fec42783          	lw	a5,-20(s0)
    b8b8:	439c                	lw	a5,0(a5)
    b8ba:	0017e713          	ori	a4,a5,1
    b8be:	fec42783          	lw	a5,-20(s0)
    b8c2:	c398                	sw	a4,0(a5)
    b8c4:	a811                	j	b8d8 <DMA_Cmd+0x38>
    b8c6:	fec42783          	lw	a5,-20(s0)
    b8ca:	4398                	lw	a4,0(a5)
    b8cc:	67c1                	lui	a5,0x10
    b8ce:	17f9                	addi	a5,a5,-2 # fffe <_data_lma+0x222e>
    b8d0:	8f7d                	and	a4,a4,a5
    b8d2:	fec42783          	lw	a5,-20(s0)
    b8d6:	c398                	sw	a4,0(a5)
    b8d8:	0001                	nop
    b8da:	4472                	lw	s0,28(sp)
    b8dc:	6105                	addi	sp,sp,32
    b8de:	8082                	ret

0000b8e0 <DMA_SetCurrDataCounter>:
    b8e0:	1101                	addi	sp,sp,-32
    b8e2:	ce22                	sw	s0,28(sp)
    b8e4:	1000                	addi	s0,sp,32
    b8e6:	fea42623          	sw	a0,-20(s0)
    b8ea:	87ae                	mv	a5,a1
    b8ec:	fef41523          	sh	a5,-22(s0)
    b8f0:	fea45703          	lhu	a4,-22(s0)
    b8f4:	fec42783          	lw	a5,-20(s0)
    b8f8:	c3d8                	sw	a4,4(a5)
    b8fa:	0001                	nop
    b8fc:	4472                	lw	s0,28(sp)
    b8fe:	6105                	addi	sp,sp,32
    b900:	8082                	ret

0000b902 <DMA_GetCurrDataCounter>:
    b902:	1101                	addi	sp,sp,-32
    b904:	ce22                	sw	s0,28(sp)
    b906:	1000                	addi	s0,sp,32
    b908:	fea42623          	sw	a0,-20(s0)
    b90c:	fec42783          	lw	a5,-20(s0)
    b910:	43dc                	lw	a5,4(a5)
    b912:	07c2                	slli	a5,a5,0x10
    b914:	83c1                	srli	a5,a5,0x10
    b916:	853e                	mv	a0,a5
    b918:	4472                	lw	s0,28(sp)
    b91a:	6105                	addi	sp,sp,32
    b91c:	8082                	ret

0000b91e <GPIO_Init>:
    b91e:	7139                	addi	sp,sp,-64
    b920:	de22                	sw	s0,60(sp)
    b922:	0080                	addi	s0,sp,64
    b924:	fca42623          	sw	a0,-52(s0)
    b928:	fcb42423          	sw	a1,-56(s0)
    b92c:	fe042623          	sw	zero,-20(s0)
    b930:	fe042023          	sw	zero,-32(s0)
    b934:	fe042423          	sw	zero,-24(s0)
    b938:	fc042e23          	sw	zero,-36(s0)
    b93c:	fe042223          	sw	zero,-28(s0)
    b940:	fc042c23          	sw	zero,-40(s0)
    b944:	fc842783          	lw	a5,-56(s0)
    b948:	479c                	lw	a5,8(a5)
    b94a:	8bbd                	andi	a5,a5,15
    b94c:	fef42623          	sw	a5,-20(s0)
    b950:	fc842783          	lw	a5,-56(s0)
    b954:	479c                	lw	a5,8(a5)
    b956:	8bc1                	andi	a5,a5,16
    b958:	cb89                	beqz	a5,b96a <GPIO_Init+0x4c>
    b95a:	fc842783          	lw	a5,-56(s0)
    b95e:	43dc                	lw	a5,4(a5)
    b960:	fec42703          	lw	a4,-20(s0)
    b964:	8fd9                	or	a5,a5,a4
    b966:	fef42623          	sw	a5,-20(s0)
    b96a:	fc842783          	lw	a5,-56(s0)
    b96e:	239e                	.2byte	0x239e
    b970:	0ff7f793          	zext.b	a5,a5
    b974:	cfe9                	beqz	a5,ba4e <GPIO_Init+0x130>
    b976:	fcc42783          	lw	a5,-52(s0)
    b97a:	439c                	lw	a5,0(a5)
    b97c:	fef42223          	sw	a5,-28(s0)
    b980:	fe042423          	sw	zero,-24(s0)
    b984:	a85d                	j	ba3a <GPIO_Init+0x11c>
    b986:	fe842783          	lw	a5,-24(s0)
    b98a:	4705                	li	a4,1
    b98c:	00f717b3          	sll	a5,a4,a5
    b990:	fcf42e23          	sw	a5,-36(s0)
    b994:	fc842783          	lw	a5,-56(s0)
    b998:	239e                	.2byte	0x239e
    b99a:	873e                	mv	a4,a5
    b99c:	fdc42783          	lw	a5,-36(s0)
    b9a0:	8ff9                	and	a5,a5,a4
    b9a2:	fef42023          	sw	a5,-32(s0)
    b9a6:	fe042703          	lw	a4,-32(s0)
    b9aa:	fdc42783          	lw	a5,-36(s0)
    b9ae:	08f71163          	bne	a4,a5,ba30 <GPIO_Init+0x112>
    b9b2:	fe842783          	lw	a5,-24(s0)
    b9b6:	078a                	slli	a5,a5,0x2
    b9b8:	fcf42e23          	sw	a5,-36(s0)
    b9bc:	fdc42783          	lw	a5,-36(s0)
    b9c0:	473d                	li	a4,15
    b9c2:	00f717b3          	sll	a5,a4,a5
    b9c6:	fcf42c23          	sw	a5,-40(s0)
    b9ca:	fd842783          	lw	a5,-40(s0)
    b9ce:	fff7c793          	not	a5,a5
    b9d2:	fe442703          	lw	a4,-28(s0)
    b9d6:	8ff9                	and	a5,a5,a4
    b9d8:	fef42223          	sw	a5,-28(s0)
    b9dc:	fdc42783          	lw	a5,-36(s0)
    b9e0:	fec42703          	lw	a4,-20(s0)
    b9e4:	00f717b3          	sll	a5,a4,a5
    b9e8:	fe442703          	lw	a4,-28(s0)
    b9ec:	8fd9                	or	a5,a5,a4
    b9ee:	fef42223          	sw	a5,-28(s0)
    b9f2:	fc842783          	lw	a5,-56(s0)
    b9f6:	4798                	lw	a4,8(a5)
    b9f8:	02800793          	li	a5,40
    b9fc:	00f71b63          	bne	a4,a5,ba12 <GPIO_Init+0xf4>
    ba00:	fe842783          	lw	a5,-24(s0)
    ba04:	4705                	li	a4,1
    ba06:	00f71733          	sll	a4,a4,a5
    ba0a:	fcc42783          	lw	a5,-52(s0)
    ba0e:	cbd8                	sw	a4,20(a5)
    ba10:	a005                	j	ba30 <GPIO_Init+0x112>
    ba12:	fc842783          	lw	a5,-56(s0)
    ba16:	4798                	lw	a4,8(a5)
    ba18:	04800793          	li	a5,72
    ba1c:	00f71a63          	bne	a4,a5,ba30 <GPIO_Init+0x112>
    ba20:	fe842783          	lw	a5,-24(s0)
    ba24:	4705                	li	a4,1
    ba26:	00f71733          	sll	a4,a4,a5
    ba2a:	fcc42783          	lw	a5,-52(s0)
    ba2e:	cb98                	sw	a4,16(a5)
    ba30:	fe842783          	lw	a5,-24(s0)
    ba34:	0785                	addi	a5,a5,1
    ba36:	fef42423          	sw	a5,-24(s0)
    ba3a:	fe842703          	lw	a4,-24(s0)
    ba3e:	479d                	li	a5,7
    ba40:	f4e7f3e3          	bgeu	a5,a4,b986 <GPIO_Init+0x68>
    ba44:	fcc42783          	lw	a5,-52(s0)
    ba48:	fe442703          	lw	a4,-28(s0)
    ba4c:	c398                	sw	a4,0(a5)
    ba4e:	fc842783          	lw	a5,-56(s0)
    ba52:	239a                	.2byte	0x239a
    ba54:	0ff00793          	li	a5,255
    ba58:	0ee7f063          	bgeu	a5,a4,bb38 <GPIO_Init+0x21a>
    ba5c:	fcc42783          	lw	a5,-52(s0)
    ba60:	43dc                	lw	a5,4(a5)
    ba62:	fef42223          	sw	a5,-28(s0)
    ba66:	fe042423          	sw	zero,-24(s0)
    ba6a:	a86d                	j	bb24 <GPIO_Init+0x206>
    ba6c:	fe842783          	lw	a5,-24(s0)
    ba70:	07a1                	addi	a5,a5,8
    ba72:	4705                	li	a4,1
    ba74:	00f717b3          	sll	a5,a4,a5
    ba78:	fcf42e23          	sw	a5,-36(s0)
    ba7c:	fc842783          	lw	a5,-56(s0)
    ba80:	239e                	.2byte	0x239e
    ba82:	873e                	mv	a4,a5
    ba84:	fdc42783          	lw	a5,-36(s0)
    ba88:	8ff9                	and	a5,a5,a4
    ba8a:	fef42023          	sw	a5,-32(s0)
    ba8e:	fe042703          	lw	a4,-32(s0)
    ba92:	fdc42783          	lw	a5,-36(s0)
    ba96:	08f71263          	bne	a4,a5,bb1a <GPIO_Init+0x1fc>
    ba9a:	fe842783          	lw	a5,-24(s0)
    ba9e:	078a                	slli	a5,a5,0x2
    baa0:	fcf42e23          	sw	a5,-36(s0)
    baa4:	fdc42783          	lw	a5,-36(s0)
    baa8:	473d                	li	a4,15
    baaa:	00f717b3          	sll	a5,a4,a5
    baae:	fcf42c23          	sw	a5,-40(s0)
    bab2:	fd842783          	lw	a5,-40(s0)
    bab6:	fff7c793          	not	a5,a5
    baba:	fe442703          	lw	a4,-28(s0)
    babe:	8ff9                	and	a5,a5,a4
    bac0:	fef42223          	sw	a5,-28(s0)
    bac4:	fdc42783          	lw	a5,-36(s0)
    bac8:	fec42703          	lw	a4,-20(s0)
    bacc:	00f717b3          	sll	a5,a4,a5
    bad0:	fe442703          	lw	a4,-28(s0)
    bad4:	8fd9                	or	a5,a5,a4
    bad6:	fef42223          	sw	a5,-28(s0)
    bada:	fc842783          	lw	a5,-56(s0)
    bade:	4798                	lw	a4,8(a5)
    bae0:	02800793          	li	a5,40
    bae4:	00f71b63          	bne	a4,a5,bafa <GPIO_Init+0x1dc>
    bae8:	fe842783          	lw	a5,-24(s0)
    baec:	07a1                	addi	a5,a5,8
    baee:	4705                	li	a4,1
    baf0:	00f71733          	sll	a4,a4,a5
    baf4:	fcc42783          	lw	a5,-52(s0)
    baf8:	cbd8                	sw	a4,20(a5)
    bafa:	fc842783          	lw	a5,-56(s0)
    bafe:	4798                	lw	a4,8(a5)
    bb00:	04800793          	li	a5,72
    bb04:	00f71b63          	bne	a4,a5,bb1a <GPIO_Init+0x1fc>
    bb08:	fe842783          	lw	a5,-24(s0)
    bb0c:	07a1                	addi	a5,a5,8
    bb0e:	4705                	li	a4,1
    bb10:	00f71733          	sll	a4,a4,a5
    bb14:	fcc42783          	lw	a5,-52(s0)
    bb18:	cb98                	sw	a4,16(a5)
    bb1a:	fe842783          	lw	a5,-24(s0)
    bb1e:	0785                	addi	a5,a5,1
    bb20:	fef42423          	sw	a5,-24(s0)
    bb24:	fe842703          	lw	a4,-24(s0)
    bb28:	479d                	li	a5,7
    bb2a:	f4e7f1e3          	bgeu	a5,a4,ba6c <GPIO_Init+0x14e>
    bb2e:	fcc42783          	lw	a5,-52(s0)
    bb32:	fe442703          	lw	a4,-28(s0)
    bb36:	c3d8                	sw	a4,4(a5)
    bb38:	0001                	nop
    bb3a:	5472                	lw	s0,60(sp)
    bb3c:	6121                	addi	sp,sp,64
    bb3e:	8082                	ret

0000bb40 <GPIO_ReadInputDataBit>:
    bb40:	7179                	addi	sp,sp,-48
    bb42:	d622                	sw	s0,44(sp)
    bb44:	1800                	addi	s0,sp,48
    bb46:	fca42e23          	sw	a0,-36(s0)
    bb4a:	87ae                	mv	a5,a1
    bb4c:	fcf41d23          	sh	a5,-38(s0)
    bb50:	fe0407a3          	sb	zero,-17(s0)
    bb54:	fdc42783          	lw	a5,-36(s0)
    bb58:	4798                	lw	a4,8(a5)
    bb5a:	fda45783          	lhu	a5,-38(s0)
    bb5e:	8ff9                	and	a5,a5,a4
    bb60:	c789                	beqz	a5,bb6a <GPIO_ReadInputDataBit+0x2a>
    bb62:	4785                	li	a5,1
    bb64:	fef407a3          	sb	a5,-17(s0)
    bb68:	a019                	j	bb6e <GPIO_ReadInputDataBit+0x2e>
    bb6a:	fe0407a3          	sb	zero,-17(s0)
    bb6e:	fef44783          	lbu	a5,-17(s0)
    bb72:	853e                	mv	a0,a5
    bb74:	5432                	lw	s0,44(sp)
    bb76:	6145                	addi	sp,sp,48
    bb78:	8082                	ret

0000bb7a <GPIO_SetBits>:
    bb7a:	1101                	addi	sp,sp,-32
    bb7c:	ce22                	sw	s0,28(sp)
    bb7e:	1000                	addi	s0,sp,32
    bb80:	fea42623          	sw	a0,-20(s0)
    bb84:	87ae                	mv	a5,a1
    bb86:	fef41523          	sh	a5,-22(s0)
    bb8a:	fea45703          	lhu	a4,-22(s0)
    bb8e:	fec42783          	lw	a5,-20(s0)
    bb92:	cb98                	sw	a4,16(a5)
    bb94:	0001                	nop
    bb96:	4472                	lw	s0,28(sp)
    bb98:	6105                	addi	sp,sp,32
    bb9a:	8082                	ret

0000bb9c <GPIO_ResetBits>:
    bb9c:	1101                	addi	sp,sp,-32
    bb9e:	ce22                	sw	s0,28(sp)
    bba0:	1000                	addi	s0,sp,32
    bba2:	fea42623          	sw	a0,-20(s0)
    bba6:	87ae                	mv	a5,a1
    bba8:	fef41523          	sh	a5,-22(s0)
    bbac:	fea45703          	lhu	a4,-22(s0)
    bbb0:	fec42783          	lw	a5,-20(s0)
    bbb4:	cbd8                	sw	a4,20(a5)
    bbb6:	0001                	nop
    bbb8:	4472                	lw	s0,28(sp)
    bbba:	6105                	addi	sp,sp,32
    bbbc:	8082                	ret

0000bbbe <GPIO_PinRemapConfig>:
    bbbe:	7179                	addi	sp,sp,-48
    bbc0:	d622                	sw	s0,44(sp)
    bbc2:	1800                	addi	s0,sp,48
    bbc4:	fca42e23          	sw	a0,-36(s0)
    bbc8:	fcb42c23          	sw	a1,-40(s0)
    bbcc:	fe042423          	sw	zero,-24(s0)
    bbd0:	fe042223          	sw	zero,-28(s0)
    bbd4:	fe042623          	sw	zero,-20(s0)
    bbd8:	fe042023          	sw	zero,-32(s0)
    bbdc:	fdc42783          	lw	a5,-36(s0)
    bbe0:	0007d863          	bgez	a5,bbf0 <GPIO_PinRemapConfig+0x32>
    bbe4:	400107b7          	lui	a5,0x40010
    bbe8:	4fdc                	lw	a5,28(a5)
    bbea:	fef42623          	sw	a5,-20(s0)
    bbee:	a031                	j	bbfa <GPIO_PinRemapConfig+0x3c>
    bbf0:	400107b7          	lui	a5,0x40010
    bbf4:	43dc                	lw	a5,4(a5)
    bbf6:	fef42623          	sw	a5,-20(s0)
    bbfa:	fdc42783          	lw	a5,-36(s0)
    bbfe:	83c1                	srli	a5,a5,0x10
    bc00:	8bbd                	andi	a5,a5,15
    bc02:	fef42023          	sw	a5,-32(s0)
    bc06:	fdc42703          	lw	a4,-36(s0)
    bc0a:	67c1                	lui	a5,0x10
    bc0c:	17fd                	addi	a5,a5,-1 # ffff <_data_lma+0x222f>
    bc0e:	8ff9                	and	a5,a5,a4
    bc10:	fef42423          	sw	a5,-24(s0)
    bc14:	fdc42783          	lw	a5,-36(s0)
    bc18:	0807d663          	bgez	a5,bca4 <GPIO_PinRemapConfig+0xe6>
    bc1c:	fdc42703          	lw	a4,-36(s0)
    bc20:	003007b7          	lui	a5,0x300
    bc24:	8f7d                	and	a4,a4,a5
    bc26:	003007b7          	lui	a5,0x300
    bc2a:	02f71463          	bne	a4,a5,bc52 <GPIO_PinRemapConfig+0x94>
    bc2e:	fe042783          	lw	a5,-32(s0)
    bc32:	07c1                	addi	a5,a5,16 # 300010 <_data_lma+0x2f2240>
    bc34:	470d                	li	a4,3
    bc36:	00f717b3          	sll	a5,a4,a5
    bc3a:	fef42223          	sw	a5,-28(s0)
    bc3e:	fe442783          	lw	a5,-28(s0)
    bc42:	fff7c793          	not	a5,a5
    bc46:	fec42703          	lw	a4,-20(s0)
    bc4a:	8ff9                	and	a5,a5,a4
    bc4c:	fef42623          	sw	a5,-20(s0)
    bc50:	a8d5                	j	bd44 <GPIO_PinRemapConfig+0x186>
    bc52:	fdc42703          	lw	a4,-36(s0)
    bc56:	001007b7          	lui	a5,0x100
    bc5a:	8ff9                	and	a5,a5,a4
    bc5c:	c395                	beqz	a5,bc80 <GPIO_PinRemapConfig+0xc2>
    bc5e:	fe042783          	lw	a5,-32(s0)
    bc62:	470d                	li	a4,3
    bc64:	00f717b3          	sll	a5,a4,a5
    bc68:	fef42223          	sw	a5,-28(s0)
    bc6c:	fe442783          	lw	a5,-28(s0)
    bc70:	fff7c793          	not	a5,a5
    bc74:	fec42703          	lw	a4,-20(s0)
    bc78:	8ff9                	and	a5,a5,a4
    bc7a:	fef42623          	sw	a5,-20(s0)
    bc7e:	a0d9                	j	bd44 <GPIO_PinRemapConfig+0x186>
    bc80:	fdc42783          	lw	a5,-36(s0)
    bc84:	83d5                	srli	a5,a5,0x15
    bc86:	3ff7f793          	andi	a5,a5,1023
    bc8a:	0792                	slli	a5,a5,0x4
    bc8c:	fe842703          	lw	a4,-24(s0)
    bc90:	00f717b3          	sll	a5,a4,a5
    bc94:	fff7c793          	not	a5,a5
    bc98:	fec42703          	lw	a4,-20(s0)
    bc9c:	8ff9                	and	a5,a5,a4
    bc9e:	fef42623          	sw	a5,-20(s0)
    bca2:	a04d                	j	bd44 <GPIO_PinRemapConfig+0x186>
    bca4:	fdc42703          	lw	a4,-36(s0)
    bca8:	003007b7          	lui	a5,0x300
    bcac:	8f7d                	and	a4,a4,a5
    bcae:	003007b7          	lui	a5,0x300
    bcb2:	02f71563          	bne	a4,a5,bcdc <GPIO_PinRemapConfig+0x11e>
    bcb6:	fec42703          	lw	a4,-20(s0)
    bcba:	f10007b7          	lui	a5,0xf1000
    bcbe:	17fd                	addi	a5,a5,-1 # f0ffffff <_eusrstack+0xd0ff7fff>
    bcc0:	8ff9                	and	a5,a5,a4
    bcc2:	fef42623          	sw	a5,-20(s0)
    bcc6:	400107b7          	lui	a5,0x40010
    bcca:	43d4                	lw	a3,4(a5)
    bccc:	400107b7          	lui	a5,0x40010
    bcd0:	f1000737          	lui	a4,0xf1000
    bcd4:	177d                	addi	a4,a4,-1 # f0ffffff <_eusrstack+0xd0ff7fff>
    bcd6:	8f75                	and	a4,a4,a3
    bcd8:	c3d8                	sw	a4,4(a5)
    bcda:	a0ad                	j	bd44 <GPIO_PinRemapConfig+0x186>
    bcdc:	fdc42703          	lw	a4,-36(s0)
    bce0:	001007b7          	lui	a5,0x100
    bce4:	8ff9                	and	a5,a5,a4
    bce6:	cb8d                	beqz	a5,bd18 <GPIO_PinRemapConfig+0x15a>
    bce8:	fe042783          	lw	a5,-32(s0)
    bcec:	470d                	li	a4,3
    bcee:	00f717b3          	sll	a5,a4,a5
    bcf2:	fef42223          	sw	a5,-28(s0)
    bcf6:	fe442783          	lw	a5,-28(s0)
    bcfa:	fff7c793          	not	a5,a5
    bcfe:	fec42703          	lw	a4,-20(s0)
    bd02:	8ff9                	and	a5,a5,a4
    bd04:	fef42623          	sw	a5,-20(s0)
    bd08:	fec42703          	lw	a4,-20(s0)
    bd0c:	0f0007b7          	lui	a5,0xf000
    bd10:	8fd9                	or	a5,a5,a4
    bd12:	fef42623          	sw	a5,-20(s0)
    bd16:	a03d                	j	bd44 <GPIO_PinRemapConfig+0x186>
    bd18:	fdc42783          	lw	a5,-36(s0)
    bd1c:	83d5                	srli	a5,a5,0x15
    bd1e:	0792                	slli	a5,a5,0x4
    bd20:	fe842703          	lw	a4,-24(s0)
    bd24:	00f717b3          	sll	a5,a4,a5
    bd28:	fff7c793          	not	a5,a5
    bd2c:	fec42703          	lw	a4,-20(s0)
    bd30:	8ff9                	and	a5,a5,a4
    bd32:	fef42623          	sw	a5,-20(s0)
    bd36:	fec42703          	lw	a4,-20(s0)
    bd3a:	0f0007b7          	lui	a5,0xf000
    bd3e:	8fd9                	or	a5,a5,a4
    bd40:	fef42623          	sw	a5,-20(s0)
    bd44:	fd842783          	lw	a5,-40(s0)
    bd48:	c385                	beqz	a5,bd68 <GPIO_PinRemapConfig+0x1aa>
    bd4a:	fdc42783          	lw	a5,-36(s0)
    bd4e:	83d5                	srli	a5,a5,0x15
    bd50:	3ff7f793          	andi	a5,a5,1023
    bd54:	0792                	slli	a5,a5,0x4
    bd56:	fe842703          	lw	a4,-24(s0)
    bd5a:	00f717b3          	sll	a5,a4,a5
    bd5e:	fec42703          	lw	a4,-20(s0)
    bd62:	8fd9                	or	a5,a5,a4
    bd64:	fef42623          	sw	a5,-20(s0)
    bd68:	fdc42783          	lw	a5,-36(s0)
    bd6c:	0007d863          	bgez	a5,bd7c <GPIO_PinRemapConfig+0x1be>
    bd70:	400107b7          	lui	a5,0x40010
    bd74:	fec42703          	lw	a4,-20(s0)
    bd78:	cfd8                	sw	a4,28(a5)
    bd7a:	a031                	j	bd86 <GPIO_PinRemapConfig+0x1c8>
    bd7c:	400107b7          	lui	a5,0x40010
    bd80:	fec42703          	lw	a4,-20(s0)
    bd84:	c3d8                	sw	a4,4(a5)
    bd86:	0001                	nop
    bd88:	5432                	lw	s0,44(sp)
    bd8a:	6145                	addi	sp,sp,48
    bd8c:	8082                	ret

0000bd8e <NVIC_PriorityGroupConfig>:
    bd8e:	1101                	addi	sp,sp,-32
    bd90:	ce22                	sw	s0,28(sp)
    bd92:	1000                	addi	s0,sp,32
    bd94:	fea42623          	sw	a0,-20(s0)
    bd98:	200067b7          	lui	a5,0x20006
    bd9c:	fec42703          	lw	a4,-20(s0)
    bda0:	5ee7a223          	sw	a4,1508(a5) # 200065e4 <NVIC_Priority_Group>
    bda4:	0001                	nop
    bda6:	4472                	lw	s0,28(sp)
    bda8:	6105                	addi	sp,sp,32
    bdaa:	8082                	ret

0000bdac <RCC_GetClocksFreq>:
    bdac:	7139                	addi	sp,sp,-64
    bdae:	de22                	sw	s0,60(sp)
    bdb0:	0080                	addi	s0,sp,64
    bdb2:	fca42623          	sw	a0,-52(s0)
    bdb6:	fe042223          	sw	zero,-28(s0)
    bdba:	fe042623          	sw	zero,-20(s0)
    bdbe:	fe042023          	sw	zero,-32(s0)
    bdc2:	fc042e23          	sw	zero,-36(s0)
    bdc6:	fe0405a3          	sb	zero,-21(s0)
    bdca:	fc040da3          	sb	zero,-37(s0)
    bdce:	400217b7          	lui	a5,0x40021
    bdd2:	43dc                	lw	a5,4(a5)
    bdd4:	8bb1                	andi	a5,a5,12
    bdd6:	fef42223          	sw	a5,-28(s0)
    bdda:	fe442703          	lw	a4,-28(s0)
    bdde:	47a1                	li	a5,8
    bde0:	04f70063          	beq	a4,a5,be20 <RCC_GetClocksFreq+0x74>
    bde4:	fe442703          	lw	a4,-28(s0)
    bde8:	47a1                	li	a5,8
    bdea:	22e7e663          	bltu	a5,a4,c016 <RCC_GetClocksFreq+0x26a>
    bdee:	fe442783          	lw	a5,-28(s0)
    bdf2:	c799                	beqz	a5,be00 <RCC_GetClocksFreq+0x54>
    bdf4:	fe442703          	lw	a4,-28(s0)
    bdf8:	4791                	li	a5,4
    bdfa:	00f70b63          	beq	a4,a5,be10 <RCC_GetClocksFreq+0x64>
    bdfe:	ac21                	j	c016 <RCC_GetClocksFreq+0x26a>
    be00:	fcc42783          	lw	a5,-52(s0)
    be04:	007a1737          	lui	a4,0x7a1
    be08:	20070713          	addi	a4,a4,512 # 7a1200 <_data_lma+0x793430>
    be0c:	c398                	sw	a4,0(a5)
    be0e:	ac29                	j	c028 <RCC_GetClocksFreq+0x27c>
    be10:	fcc42783          	lw	a5,-52(s0)
    be14:	00b72737          	lui	a4,0xb72
    be18:	b0070713          	addi	a4,a4,-1280 # b71b00 <_data_lma+0xb63d30>
    be1c:	c398                	sw	a4,0(a5)
    be1e:	a429                	j	c028 <RCC_GetClocksFreq+0x27c>
    be20:	400217b7          	lui	a5,0x40021
    be24:	43d8                	lw	a4,4(a5)
    be26:	003c07b7          	lui	a5,0x3c0
    be2a:	8ff9                	and	a5,a5,a4
    be2c:	fef42623          	sw	a5,-20(s0)
    be30:	400217b7          	lui	a5,0x40021
    be34:	43d8                	lw	a4,4(a5)
    be36:	67c1                	lui	a5,0x10
    be38:	8ff9                	and	a5,a5,a4
    be3a:	fef42023          	sw	a5,-32(s0)
    be3e:	fec42783          	lw	a5,-20(s0)
    be42:	83c9                	srli	a5,a5,0x12
    be44:	0789                	addi	a5,a5,2 # 10002 <_data_lma+0x2232>
    be46:	fef42623          	sw	a5,-20(s0)
    be4a:	1ffff7b7          	lui	a5,0x1ffff
    be4e:	70c78793          	addi	a5,a5,1804 # 1ffff70c <_data_lma+0x1fff193c>
    be52:	4398                	lw	a4,0(a5)
    be54:	6791                	lui	a5,0x4
    be56:	8ff9                	and	a5,a5,a4
    be58:	eb91                	bnez	a5,be6c <RCC_GetClocksFreq+0xc0>
    be5a:	fec42703          	lw	a4,-20(s0)
    be5e:	47c5                	li	a5,17
    be60:	04f71963          	bne	a4,a5,beb2 <RCC_GetClocksFreq+0x106>
    be64:	47c9                	li	a5,18
    be66:	fef42623          	sw	a5,-20(s0)
    be6a:	a0a1                	j	beb2 <RCC_GetClocksFreq+0x106>
    be6c:	fec42703          	lw	a4,-20(s0)
    be70:	4789                	li	a5,2
    be72:	00f71563          	bne	a4,a5,be7c <RCC_GetClocksFreq+0xd0>
    be76:	47c9                	li	a5,18
    be78:	fef42623          	sw	a5,-20(s0)
    be7c:	fec42703          	lw	a4,-20(s0)
    be80:	47bd                	li	a5,15
    be82:	00f71863          	bne	a4,a5,be92 <RCC_GetClocksFreq+0xe6>
    be86:	47b5                	li	a5,13
    be88:	fef42623          	sw	a5,-20(s0)
    be8c:	4785                	li	a5,1
    be8e:	fef405a3          	sb	a5,-21(s0)
    be92:	fec42703          	lw	a4,-20(s0)
    be96:	47c1                	li	a5,16
    be98:	00f71563          	bne	a4,a5,bea2 <RCC_GetClocksFreq+0xf6>
    be9c:	47bd                	li	a5,15
    be9e:	fef42623          	sw	a5,-20(s0)
    bea2:	fec42703          	lw	a4,-20(s0)
    bea6:	47c5                	li	a5,17
    bea8:	00f71563          	bne	a4,a5,beb2 <RCC_GetClocksFreq+0x106>
    beac:	47c1                	li	a5,16
    beae:	fef42623          	sw	a5,-20(s0)
    beb2:	fe042783          	lw	a5,-32(s0)
    beb6:	e3a1                	bnez	a5,bef6 <RCC_GetClocksFreq+0x14a>
    beb8:	400247b7          	lui	a5,0x40024
    bebc:	80078793          	addi	a5,a5,-2048 # 40023800 <_eusrstack+0x2001b800>
    bec0:	439c                	lw	a5,0(a5)
    bec2:	8bc1                	andi	a5,a5,16
    bec4:	cf89                	beqz	a5,bede <RCC_GetClocksFreq+0x132>
    bec6:	fec42703          	lw	a4,-20(s0)
    beca:	007a17b7          	lui	a5,0x7a1
    bece:	20078793          	addi	a5,a5,512 # 7a1200 <_data_lma+0x793430>
    bed2:	02f70733          	mul	a4,a4,a5
    bed6:	fcc42783          	lw	a5,-52(s0)
    beda:	c398                	sw	a4,0(a5)
    bedc:	aa39                	j	bffa <RCC_GetClocksFreq+0x24e>
    bede:	fec42703          	lw	a4,-20(s0)
    bee2:	003d17b7          	lui	a5,0x3d1
    bee6:	90078793          	addi	a5,a5,-1792 # 3d0900 <_data_lma+0x3c2b30>
    beea:	02f70733          	mul	a4,a4,a5
    beee:	fcc42783          	lw	a5,-52(s0)
    bef2:	c398                	sw	a4,0(a5)
    bef4:	a219                	j	bffa <RCC_GetClocksFreq+0x24e>
    bef6:	400217b7          	lui	a5,0x40021
    befa:	57d8                	lw	a4,44(a5)
    befc:	67c1                	lui	a5,0x10
    befe:	8ff9                	and	a5,a5,a4
    bf00:	c7e9                	beqz	a5,bfca <RCC_GetClocksFreq+0x21e>
    bf02:	400217b7          	lui	a5,0x40021
    bf06:	57dc                	lw	a5,44(a5)
    bf08:	8391                	srli	a5,a5,0x4
    bf0a:	8bbd                	andi	a5,a5,15
    bf0c:	0785                	addi	a5,a5,1 # 40021001 <_eusrstack+0x20019001>
    bf0e:	00b72737          	lui	a4,0xb72
    bf12:	b0070713          	addi	a4,a4,-1280 # b71b00 <_data_lma+0xb63d30>
    bf16:	02f75733          	divu	a4,a4,a5
    bf1a:	fcc42783          	lw	a5,-52(s0)
    bf1e:	c398                	sw	a4,0(a5)
    bf20:	400217b7          	lui	a5,0x40021
    bf24:	57dc                	lw	a5,44(a5)
    bf26:	83a1                	srli	a5,a5,0x8
    bf28:	0ff7f793          	zext.b	a5,a5
    bf2c:	8bbd                	andi	a5,a5,15
    bf2e:	fcf40da3          	sb	a5,-37(s0)
    bf32:	fdb44783          	lbu	a5,-37(s0)
    bf36:	ef89                	bnez	a5,bf50 <RCC_GetClocksFreq+0x1a4>
    bf38:	fcc42783          	lw	a5,-52(s0)
    bf3c:	4398                	lw	a4,0(a5)
    bf3e:	87ba                	mv	a5,a4
    bf40:	078a                	slli	a5,a5,0x2
    bf42:	97ba                	add	a5,a5,a4
    bf44:	0017d713          	srli	a4,a5,0x1
    bf48:	fcc42783          	lw	a5,-52(s0)
    bf4c:	c398                	sw	a4,0(a5)
    bf4e:	a085                	j	bfae <RCC_GetClocksFreq+0x202>
    bf50:	fdb44703          	lbu	a4,-37(s0)
    bf54:	4785                	li	a5,1
    bf56:	02f71063          	bne	a4,a5,bf76 <RCC_GetClocksFreq+0x1ca>
    bf5a:	fcc42783          	lw	a5,-52(s0)
    bf5e:	4398                	lw	a4,0(a5)
    bf60:	87ba                	mv	a5,a4
    bf62:	0786                	slli	a5,a5,0x1
    bf64:	97ba                	add	a5,a5,a4
    bf66:	078e                	slli	a5,a5,0x3
    bf68:	97ba                	add	a5,a5,a4
    bf6a:	0017d713          	srli	a4,a5,0x1
    bf6e:	fcc42783          	lw	a5,-52(s0)
    bf72:	c398                	sw	a4,0(a5)
    bf74:	a82d                	j	bfae <RCC_GetClocksFreq+0x202>
    bf76:	fdb44703          	lbu	a4,-37(s0)
    bf7a:	47bd                	li	a5,15
    bf7c:	00f71e63          	bne	a4,a5,bf98 <RCC_GetClocksFreq+0x1ec>
    bf80:	fcc42783          	lw	a5,-52(s0)
    bf84:	4398                	lw	a4,0(a5)
    bf86:	87ba                	mv	a5,a4
    bf88:	078a                	slli	a5,a5,0x2
    bf8a:	97ba                	add	a5,a5,a4
    bf8c:	078a                	slli	a5,a5,0x2
    bf8e:	873e                	mv	a4,a5
    bf90:	fcc42783          	lw	a5,-52(s0)
    bf94:	c398                	sw	a4,0(a5)
    bf96:	a821                	j	bfae <RCC_GetClocksFreq+0x202>
    bf98:	fcc42783          	lw	a5,-52(s0)
    bf9c:	439c                	lw	a5,0(a5)
    bf9e:	fdb44703          	lbu	a4,-37(s0)
    bfa2:	0709                	addi	a4,a4,2
    bfa4:	02e78733          	mul	a4,a5,a4
    bfa8:	fcc42783          	lw	a5,-52(s0)
    bfac:	c398                	sw	a4,0(a5)
    bfae:	fcc42783          	lw	a5,-52(s0)
    bfb2:	4398                	lw	a4,0(a5)
    bfb4:	400217b7          	lui	a5,0x40021
    bfb8:	57dc                	lw	a5,44(a5)
    bfba:	8bbd                	andi	a5,a5,15
    bfbc:	0785                	addi	a5,a5,1 # 40021001 <_eusrstack+0x20019001>
    bfbe:	02f75733          	divu	a4,a4,a5
    bfc2:	fcc42783          	lw	a5,-52(s0)
    bfc6:	c398                	sw	a4,0(a5)
    bfc8:	a839                	j	bfe6 <RCC_GetClocksFreq+0x23a>
    bfca:	400217b7          	lui	a5,0x40021
    bfce:	57dc                	lw	a5,44(a5)
    bfd0:	8bbd                	andi	a5,a5,15
    bfd2:	0785                	addi	a5,a5,1 # 40021001 <_eusrstack+0x20019001>
    bfd4:	00b72737          	lui	a4,0xb72
    bfd8:	b0070713          	addi	a4,a4,-1280 # b71b00 <_data_lma+0xb63d30>
    bfdc:	02f75733          	divu	a4,a4,a5
    bfe0:	fcc42783          	lw	a5,-52(s0)
    bfe4:	c398                	sw	a4,0(a5)
    bfe6:	fcc42783          	lw	a5,-52(s0)
    bfea:	4398                	lw	a4,0(a5)
    bfec:	fec42783          	lw	a5,-20(s0)
    bff0:	02f70733          	mul	a4,a4,a5
    bff4:	fcc42783          	lw	a5,-52(s0)
    bff8:	c398                	sw	a4,0(a5)
    bffa:	feb44703          	lbu	a4,-21(s0)
    bffe:	4785                	li	a5,1
    c000:	02f71363          	bne	a4,a5,c026 <RCC_GetClocksFreq+0x27a>
    c004:	fcc42783          	lw	a5,-52(s0)
    c008:	439c                	lw	a5,0(a5)
    c00a:	0017d713          	srli	a4,a5,0x1
    c00e:	fcc42783          	lw	a5,-52(s0)
    c012:	c398                	sw	a4,0(a5)
    c014:	a809                	j	c026 <RCC_GetClocksFreq+0x27a>
    c016:	fcc42783          	lw	a5,-52(s0)
    c01a:	007a1737          	lui	a4,0x7a1
    c01e:	20070713          	addi	a4,a4,512 # 7a1200 <_data_lma+0x793430>
    c022:	c398                	sw	a4,0(a5)
    c024:	a011                	j	c028 <RCC_GetClocksFreq+0x27c>
    c026:	0001                	nop
    c028:	400217b7          	lui	a5,0x40021
    c02c:	43dc                	lw	a5,4(a5)
    c02e:	0f07f793          	andi	a5,a5,240
    c032:	fef42223          	sw	a5,-28(s0)
    c036:	fe442783          	lw	a5,-28(s0)
    c03a:	8391                	srli	a5,a5,0x4
    c03c:	fef42223          	sw	a5,-28(s0)
    c040:	200007b7          	lui	a5,0x20000
    c044:	0d478713          	addi	a4,a5,212 # 200000d4 <APBAHBPrescTable>
    c048:	fe442783          	lw	a5,-28(s0)
    c04c:	97ba                	add	a5,a5,a4
    c04e:	239c                	.2byte	0x239c
    c050:	0ff7f793          	zext.b	a5,a5
    c054:	fcf42e23          	sw	a5,-36(s0)
    c058:	fcc42783          	lw	a5,-52(s0)
    c05c:	4398                	lw	a4,0(a5)
    c05e:	fdc42783          	lw	a5,-36(s0)
    c062:	00f75733          	srl	a4,a4,a5
    c066:	fcc42783          	lw	a5,-52(s0)
    c06a:	c3d8                	sw	a4,4(a5)
    c06c:	400217b7          	lui	a5,0x40021
    c070:	43dc                	lw	a5,4(a5)
    c072:	7007f793          	andi	a5,a5,1792
    c076:	fef42223          	sw	a5,-28(s0)
    c07a:	fe442783          	lw	a5,-28(s0)
    c07e:	83a1                	srli	a5,a5,0x8
    c080:	fef42223          	sw	a5,-28(s0)
    c084:	200007b7          	lui	a5,0x20000
    c088:	0d478713          	addi	a4,a5,212 # 200000d4 <APBAHBPrescTable>
    c08c:	fe442783          	lw	a5,-28(s0)
    c090:	97ba                	add	a5,a5,a4
    c092:	239c                	.2byte	0x239c
    c094:	0ff7f793          	zext.b	a5,a5
    c098:	fcf42e23          	sw	a5,-36(s0)
    c09c:	fcc42783          	lw	a5,-52(s0)
    c0a0:	43d8                	lw	a4,4(a5)
    c0a2:	fdc42783          	lw	a5,-36(s0)
    c0a6:	00f75733          	srl	a4,a4,a5
    c0aa:	fcc42783          	lw	a5,-52(s0)
    c0ae:	c798                	sw	a4,8(a5)
    c0b0:	400217b7          	lui	a5,0x40021
    c0b4:	43d8                	lw	a4,4(a5)
    c0b6:	6791                	lui	a5,0x4
    c0b8:	80078793          	addi	a5,a5,-2048 # 3800 <JTAG_TransferFast+0x390>
    c0bc:	8ff9                	and	a5,a5,a4
    c0be:	fef42223          	sw	a5,-28(s0)
    c0c2:	fe442783          	lw	a5,-28(s0)
    c0c6:	83ad                	srli	a5,a5,0xb
    c0c8:	fef42223          	sw	a5,-28(s0)
    c0cc:	200007b7          	lui	a5,0x20000
    c0d0:	0d478713          	addi	a4,a5,212 # 200000d4 <APBAHBPrescTable>
    c0d4:	fe442783          	lw	a5,-28(s0)
    c0d8:	97ba                	add	a5,a5,a4
    c0da:	239c                	.2byte	0x239c
    c0dc:	0ff7f793          	zext.b	a5,a5
    c0e0:	fcf42e23          	sw	a5,-36(s0)
    c0e4:	fcc42783          	lw	a5,-52(s0)
    c0e8:	43d8                	lw	a4,4(a5)
    c0ea:	fdc42783          	lw	a5,-36(s0)
    c0ee:	00f75733          	srl	a4,a4,a5
    c0f2:	fcc42783          	lw	a5,-52(s0)
    c0f6:	c7d8                	sw	a4,12(a5)
    c0f8:	400217b7          	lui	a5,0x40021
    c0fc:	43d8                	lw	a4,4(a5)
    c0fe:	67b1                	lui	a5,0xc
    c100:	8ff9                	and	a5,a5,a4
    c102:	fef42223          	sw	a5,-28(s0)
    c106:	fe442783          	lw	a5,-28(s0)
    c10a:	83b9                	srli	a5,a5,0xe
    c10c:	fef42223          	sw	a5,-28(s0)
    c110:	83418713          	addi	a4,gp,-1996 # 2000018c <ADCPrescTable>
    c114:	fe442783          	lw	a5,-28(s0)
    c118:	97ba                	add	a5,a5,a4
    c11a:	239c                	.2byte	0x239c
    c11c:	0ff7f793          	zext.b	a5,a5
    c120:	fcf42e23          	sw	a5,-36(s0)
    c124:	fcc42783          	lw	a5,-52(s0)
    c128:	47d8                	lw	a4,12(a5)
    c12a:	fdc42783          	lw	a5,-36(s0)
    c12e:	02f75733          	divu	a4,a4,a5
    c132:	fcc42783          	lw	a5,-52(s0)
    c136:	cb98                	sw	a4,16(a5)
    c138:	0001                	nop
    c13a:	5472                	lw	s0,60(sp)
    c13c:	6121                	addi	sp,sp,64
    c13e:	8082                	ret

0000c140 <RCC_AHBPeriphClockCmd>:
    c140:	1101                	addi	sp,sp,-32
    c142:	ce22                	sw	s0,28(sp)
    c144:	1000                	addi	s0,sp,32
    c146:	fea42623          	sw	a0,-20(s0)
    c14a:	feb42423          	sw	a1,-24(s0)
    c14e:	fe842783          	lw	a5,-24(s0)
    c152:	cb99                	beqz	a5,c168 <RCC_AHBPeriphClockCmd+0x28>
    c154:	400217b7          	lui	a5,0x40021
    c158:	4bd4                	lw	a3,20(a5)
    c15a:	400217b7          	lui	a5,0x40021
    c15e:	fec42703          	lw	a4,-20(s0)
    c162:	8f55                	or	a4,a4,a3
    c164:	cbd8                	sw	a4,20(a5)
    c166:	a821                	j	c17e <RCC_AHBPeriphClockCmd+0x3e>
    c168:	400217b7          	lui	a5,0x40021
    c16c:	4bd4                	lw	a3,20(a5)
    c16e:	fec42783          	lw	a5,-20(s0)
    c172:	fff7c713          	not	a4,a5
    c176:	400217b7          	lui	a5,0x40021
    c17a:	8f75                	and	a4,a4,a3
    c17c:	cbd8                	sw	a4,20(a5)
    c17e:	0001                	nop
    c180:	4472                	lw	s0,28(sp)
    c182:	6105                	addi	sp,sp,32
    c184:	8082                	ret

0000c186 <RCC_APB2PeriphClockCmd>:
    c186:	1101                	addi	sp,sp,-32
    c188:	ce22                	sw	s0,28(sp)
    c18a:	1000                	addi	s0,sp,32
    c18c:	fea42623          	sw	a0,-20(s0)
    c190:	feb42423          	sw	a1,-24(s0)
    c194:	fe842783          	lw	a5,-24(s0)
    c198:	cb99                	beqz	a5,c1ae <RCC_APB2PeriphClockCmd+0x28>
    c19a:	400217b7          	lui	a5,0x40021
    c19e:	4f94                	lw	a3,24(a5)
    c1a0:	400217b7          	lui	a5,0x40021
    c1a4:	fec42703          	lw	a4,-20(s0)
    c1a8:	8f55                	or	a4,a4,a3
    c1aa:	cf98                	sw	a4,24(a5)
    c1ac:	a821                	j	c1c4 <RCC_APB2PeriphClockCmd+0x3e>
    c1ae:	400217b7          	lui	a5,0x40021
    c1b2:	4f94                	lw	a3,24(a5)
    c1b4:	fec42783          	lw	a5,-20(s0)
    c1b8:	fff7c713          	not	a4,a5
    c1bc:	400217b7          	lui	a5,0x40021
    c1c0:	8f75                	and	a4,a4,a3
    c1c2:	cf98                	sw	a4,24(a5)
    c1c4:	0001                	nop
    c1c6:	4472                	lw	s0,28(sp)
    c1c8:	6105                	addi	sp,sp,32
    c1ca:	8082                	ret

0000c1cc <RCC_APB1PeriphClockCmd>:
    c1cc:	1101                	addi	sp,sp,-32
    c1ce:	ce22                	sw	s0,28(sp)
    c1d0:	1000                	addi	s0,sp,32
    c1d2:	fea42623          	sw	a0,-20(s0)
    c1d6:	feb42423          	sw	a1,-24(s0)
    c1da:	fe842783          	lw	a5,-24(s0)
    c1de:	cb99                	beqz	a5,c1f4 <RCC_APB1PeriphClockCmd+0x28>
    c1e0:	400217b7          	lui	a5,0x40021
    c1e4:	4fd4                	lw	a3,28(a5)
    c1e6:	400217b7          	lui	a5,0x40021
    c1ea:	fec42703          	lw	a4,-20(s0)
    c1ee:	8f55                	or	a4,a4,a3
    c1f0:	cfd8                	sw	a4,28(a5)
    c1f2:	a821                	j	c20a <RCC_APB1PeriphClockCmd+0x3e>
    c1f4:	400217b7          	lui	a5,0x40021
    c1f8:	4fd4                	lw	a3,28(a5)
    c1fa:	fec42783          	lw	a5,-20(s0)
    c1fe:	fff7c713          	not	a4,a5
    c202:	400217b7          	lui	a5,0x40021
    c206:	8f75                	and	a4,a4,a3
    c208:	cfd8                	sw	a4,28(a5)
    c20a:	0001                	nop
    c20c:	4472                	lw	s0,28(sp)
    c20e:	6105                	addi	sp,sp,32
    c210:	8082                	ret

0000c212 <RCC_USBHSConfig>:
    c212:	1101                	addi	sp,sp,-32
    c214:	ce22                	sw	s0,28(sp)
    c216:	1000                	addi	s0,sp,32
    c218:	fea42623          	sw	a0,-20(s0)
    c21c:	400217b7          	lui	a5,0x40021
    c220:	57d4                	lw	a3,44(a5)
    c222:	400217b7          	lui	a5,0x40021
    c226:	f9000737          	lui	a4,0xf9000
    c22a:	177d                	addi	a4,a4,-1 # f8ffffff <_eusrstack+0xd8ff7fff>
    c22c:	8f75                	and	a4,a4,a3
    c22e:	d7d8                	sw	a4,44(a5)
    c230:	400217b7          	lui	a5,0x40021
    c234:	57d4                	lw	a3,44(a5)
    c236:	fec42783          	lw	a5,-20(s0)
    c23a:	01879713          	slli	a4,a5,0x18
    c23e:	400217b7          	lui	a5,0x40021
    c242:	8f55                	or	a4,a4,a3
    c244:	d7d8                	sw	a4,44(a5)
    c246:	0001                	nop
    c248:	4472                	lw	s0,28(sp)
    c24a:	6105                	addi	sp,sp,32
    c24c:	8082                	ret

0000c24e <RCC_USBHSPLLCLKConfig>:
    c24e:	1101                	addi	sp,sp,-32
    c250:	ce22                	sw	s0,28(sp)
    c252:	1000                	addi	s0,sp,32
    c254:	fea42623          	sw	a0,-20(s0)
    c258:	400217b7          	lui	a5,0x40021
    c25c:	57d4                	lw	a3,44(a5)
    c25e:	400217b7          	lui	a5,0x40021
    c262:	f8000737          	lui	a4,0xf8000
    c266:	177d                	addi	a4,a4,-1 # f7ffffff <_eusrstack+0xd7ff7fff>
    c268:	8f75                	and	a4,a4,a3
    c26a:	d7d8                	sw	a4,44(a5)
    c26c:	400217b7          	lui	a5,0x40021
    c270:	57d4                	lw	a3,44(a5)
    c272:	fec42783          	lw	a5,-20(s0)
    c276:	01b79713          	slli	a4,a5,0x1b
    c27a:	400217b7          	lui	a5,0x40021
    c27e:	8f55                	or	a4,a4,a3
    c280:	d7d8                	sw	a4,44(a5)
    c282:	0001                	nop
    c284:	4472                	lw	s0,28(sp)
    c286:	6105                	addi	sp,sp,32
    c288:	8082                	ret

0000c28a <RCC_USBHSPLLCKREFCLKConfig>:
    c28a:	1101                	addi	sp,sp,-32
    c28c:	ce22                	sw	s0,28(sp)
    c28e:	1000                	addi	s0,sp,32
    c290:	fea42623          	sw	a0,-20(s0)
    c294:	400217b7          	lui	a5,0x40021
    c298:	57d4                	lw	a3,44(a5)
    c29a:	400217b7          	lui	a5,0x40021
    c29e:	d0000737          	lui	a4,0xd0000
    c2a2:	177d                	addi	a4,a4,-1 # cfffffff <_eusrstack+0xafff7fff>
    c2a4:	8f75                	and	a4,a4,a3
    c2a6:	d7d8                	sw	a4,44(a5)
    c2a8:	400217b7          	lui	a5,0x40021
    c2ac:	57d4                	lw	a3,44(a5)
    c2ae:	fec42783          	lw	a5,-20(s0)
    c2b2:	01c79713          	slli	a4,a5,0x1c
    c2b6:	400217b7          	lui	a5,0x40021
    c2ba:	8f55                	or	a4,a4,a3
    c2bc:	d7d8                	sw	a4,44(a5)
    c2be:	0001                	nop
    c2c0:	4472                	lw	s0,28(sp)
    c2c2:	6105                	addi	sp,sp,32
    c2c4:	8082                	ret

0000c2c6 <RCC_USBHSPHYPLLALIVEcmd>:
    c2c6:	1101                	addi	sp,sp,-32
    c2c8:	ce22                	sw	s0,28(sp)
    c2ca:	1000                	addi	s0,sp,32
    c2cc:	fea42623          	sw	a0,-20(s0)
    c2d0:	fec42783          	lw	a5,-20(s0)
    c2d4:	cb99                	beqz	a5,c2ea <RCC_USBHSPHYPLLALIVEcmd+0x24>
    c2d6:	400217b7          	lui	a5,0x40021
    c2da:	57d4                	lw	a3,44(a5)
    c2dc:	400217b7          	lui	a5,0x40021
    c2e0:	40000737          	lui	a4,0x40000
    c2e4:	8f55                	or	a4,a4,a3
    c2e6:	d7d8                	sw	a4,44(a5)
    c2e8:	a819                	j	c2fe <RCC_USBHSPHYPLLALIVEcmd+0x38>
    c2ea:	400217b7          	lui	a5,0x40021
    c2ee:	57d4                	lw	a3,44(a5)
    c2f0:	400217b7          	lui	a5,0x40021
    c2f4:	c0000737          	lui	a4,0xc0000
    c2f8:	177d                	addi	a4,a4,-1 # bfffffff <_eusrstack+0x9fff7fff>
    c2fa:	8f75                	and	a4,a4,a3
    c2fc:	d7d8                	sw	a4,44(a5)
    c2fe:	0001                	nop
    c300:	4472                	lw	s0,28(sp)
    c302:	6105                	addi	sp,sp,32
    c304:	8082                	ret

0000c306 <RCC_USBCLK48MConfig>:
    c306:	1101                	addi	sp,sp,-32
    c308:	ce22                	sw	s0,28(sp)
    c30a:	1000                	addi	s0,sp,32
    c30c:	fea42623          	sw	a0,-20(s0)
    c310:	400217b7          	lui	a5,0x40021
    c314:	57d4                	lw	a3,44(a5)
    c316:	400217b7          	lui	a5,0x40021
    c31a:	80000737          	lui	a4,0x80000
    c31e:	177d                	addi	a4,a4,-1 # 7fffffff <_eusrstack+0x5fff7fff>
    c320:	8f75                	and	a4,a4,a3
    c322:	d7d8                	sw	a4,44(a5)
    c324:	400217b7          	lui	a5,0x40021
    c328:	57d4                	lw	a3,44(a5)
    c32a:	fec42783          	lw	a5,-20(s0)
    c32e:	01f79713          	slli	a4,a5,0x1f
    c332:	400217b7          	lui	a5,0x40021
    c336:	8f55                	or	a4,a4,a3
    c338:	d7d8                	sw	a4,44(a5)
    c33a:	0001                	nop
    c33c:	4472                	lw	s0,28(sp)
    c33e:	6105                	addi	sp,sp,32
    c340:	8082                	ret

0000c342 <USART_Init>:
    c342:	715d                	addi	sp,sp,-80
    c344:	c686                	sw	ra,76(sp)
    c346:	c4a2                	sw	s0,72(sp)
    c348:	0880                	addi	s0,sp,80
    c34a:	faa42e23          	sw	a0,-68(s0)
    c34e:	fab42c23          	sw	a1,-72(s0)
    c352:	fe042623          	sw	zero,-20(s0)
    c356:	fe042423          	sw	zero,-24(s0)
    c35a:	fe042223          	sw	zero,-28(s0)
    c35e:	fe042023          	sw	zero,-32(s0)
    c362:	fc042e23          	sw	zero,-36(s0)
    c366:	fbc42783          	lw	a5,-68(s0)
    c36a:	fcf42e23          	sw	a5,-36(s0)
    c36e:	fbc42783          	lw	a5,-68(s0)
    c372:	2b9e                	.2byte	0x2b9e
    c374:	07c2                	slli	a5,a5,0x10
    c376:	83c1                	srli	a5,a5,0x10
    c378:	fef42623          	sw	a5,-20(s0)
    c37c:	fec42703          	lw	a4,-20(s0)
    c380:	67b5                	lui	a5,0xd
    c382:	17fd                	addi	a5,a5,-1 # cfff <uartx_preinit+0xfb>
    c384:	8ff9                	and	a5,a5,a4
    c386:	fef42623          	sw	a5,-20(s0)
    c38a:	fb842783          	lw	a5,-72(s0)
    c38e:	23fe                	.2byte	0x23fe
    c390:	873e                	mv	a4,a5
    c392:	fec42783          	lw	a5,-20(s0)
    c396:	8fd9                	or	a5,a5,a4
    c398:	fef42623          	sw	a5,-20(s0)
    c39c:	fec42783          	lw	a5,-20(s0)
    c3a0:	01079713          	slli	a4,a5,0x10
    c3a4:	8341                	srli	a4,a4,0x10
    c3a6:	fbc42783          	lw	a5,-68(s0)
    c3aa:	ab9a                	.2byte	0xab9a
    c3ac:	fbc42783          	lw	a5,-68(s0)
    c3b0:	27de                	.2byte	0x27de
    c3b2:	07c2                	slli	a5,a5,0x10
    c3b4:	83c1                	srli	a5,a5,0x10
    c3b6:	fef42623          	sw	a5,-20(s0)
    c3ba:	fec42703          	lw	a4,-20(s0)
    c3be:	67bd                	lui	a5,0xf
    c3c0:	9f378793          	addi	a5,a5,-1549 # e9f3 <_data_lma+0xc23>
    c3c4:	8ff9                	and	a5,a5,a4
    c3c6:	fef42623          	sw	a5,-20(s0)
    c3ca:	fb842783          	lw	a5,-72(s0)
    c3ce:	23da                	.2byte	0x23da
    c3d0:	fb842783          	lw	a5,-72(s0)
    c3d4:	279e                	.2byte	0x279e
    c3d6:	8fd9                	or	a5,a5,a4
    c3d8:	01079713          	slli	a4,a5,0x10
    c3dc:	8341                	srli	a4,a4,0x10
    c3de:	fb842783          	lw	a5,-72(s0)
    c3e2:	27be                	.2byte	0x27be
    c3e4:	8fd9                	or	a5,a5,a4
    c3e6:	07c2                	slli	a5,a5,0x10
    c3e8:	83c1                	srli	a5,a5,0x10
    c3ea:	873e                	mv	a4,a5
    c3ec:	fec42783          	lw	a5,-20(s0)
    c3f0:	8fd9                	or	a5,a5,a4
    c3f2:	fef42623          	sw	a5,-20(s0)
    c3f6:	fec42783          	lw	a5,-20(s0)
    c3fa:	01079713          	slli	a4,a5,0x10
    c3fe:	8341                	srli	a4,a4,0x10
    c400:	fbc42783          	lw	a5,-68(s0)
    c404:	a7da                	.2byte	0xa7da
    c406:	fbc42783          	lw	a5,-68(s0)
    c40a:	2bde                	.2byte	0x2bde
    c40c:	07c2                	slli	a5,a5,0x10
    c40e:	83c1                	srli	a5,a5,0x10
    c410:	fef42623          	sw	a5,-20(s0)
    c414:	fec42703          	lw	a4,-20(s0)
    c418:	67c1                	lui	a5,0x10
    c41a:	cff78793          	addi	a5,a5,-769 # fcff <_data_lma+0x1f2f>
    c41e:	8ff9                	and	a5,a5,a4
    c420:	fef42623          	sw	a5,-20(s0)
    c424:	fb842783          	lw	a5,-72(s0)
    c428:	27de                	.2byte	0x27de
    c42a:	873e                	mv	a4,a5
    c42c:	fec42783          	lw	a5,-20(s0)
    c430:	8fd9                	or	a5,a5,a4
    c432:	fef42623          	sw	a5,-20(s0)
    c436:	fec42783          	lw	a5,-20(s0)
    c43a:	01079713          	slli	a4,a5,0x10
    c43e:	8341                	srli	a4,a4,0x10
    c440:	fbc42783          	lw	a5,-68(s0)
    c444:	abda                	.2byte	0xabda
    c446:	fc840793          	addi	a5,s0,-56
    c44a:	853e                	mv	a0,a5
    c44c:	961ff0ef          	jal	ra,bdac <RCC_GetClocksFreq>
    c450:	fdc42703          	lw	a4,-36(s0)
    c454:	400147b7          	lui	a5,0x40014
    c458:	80078793          	addi	a5,a5,-2048 # 40013800 <_eusrstack+0x2000b800>
    c45c:	00f71763          	bne	a4,a5,c46a <USART_Init+0x128>
    c460:	fd442783          	lw	a5,-44(s0)
    c464:	fef42423          	sw	a5,-24(s0)
    c468:	a029                	j	c472 <USART_Init+0x130>
    c46a:	fd042783          	lw	a5,-48(s0)
    c46e:	fef42423          	sw	a5,-24(s0)
    c472:	fbc42783          	lw	a5,-68(s0)
    c476:	27de                	.2byte	0x27de
    c478:	07c2                	slli	a5,a5,0x10
    c47a:	83c1                	srli	a5,a5,0x10
    c47c:	07c2                	slli	a5,a5,0x10
    c47e:	87c1                	srai	a5,a5,0x10
    c480:	0207d263          	bgez	a5,c4a4 <USART_Init+0x162>
    c484:	fe842703          	lw	a4,-24(s0)
    c488:	87ba                	mv	a5,a4
    c48a:	0786                	slli	a5,a5,0x1
    c48c:	97ba                	add	a5,a5,a4
    c48e:	078e                	slli	a5,a5,0x3
    c490:	973e                	add	a4,a4,a5
    c492:	fb842783          	lw	a5,-72(s0)
    c496:	439c                	lw	a5,0(a5)
    c498:	0786                	slli	a5,a5,0x1
    c49a:	02f757b3          	divu	a5,a4,a5
    c49e:	fef42223          	sw	a5,-28(s0)
    c4a2:	a005                	j	c4c2 <USART_Init+0x180>
    c4a4:	fe842703          	lw	a4,-24(s0)
    c4a8:	87ba                	mv	a5,a4
    c4aa:	0786                	slli	a5,a5,0x1
    c4ac:	97ba                	add	a5,a5,a4
    c4ae:	078e                	slli	a5,a5,0x3
    c4b0:	973e                	add	a4,a4,a5
    c4b2:	fb842783          	lw	a5,-72(s0)
    c4b6:	439c                	lw	a5,0(a5)
    c4b8:	078a                	slli	a5,a5,0x2
    c4ba:	02f757b3          	divu	a5,a4,a5
    c4be:	fef42223          	sw	a5,-28(s0)
    c4c2:	fe442703          	lw	a4,-28(s0)
    c4c6:	06400793          	li	a5,100
    c4ca:	02f757b3          	divu	a5,a4,a5
    c4ce:	0792                	slli	a5,a5,0x4
    c4d0:	fef42623          	sw	a5,-20(s0)
    c4d4:	fec42783          	lw	a5,-20(s0)
    c4d8:	0047d713          	srli	a4,a5,0x4
    c4dc:	06400793          	li	a5,100
    c4e0:	02f707b3          	mul	a5,a4,a5
    c4e4:	fe442703          	lw	a4,-28(s0)
    c4e8:	40f707b3          	sub	a5,a4,a5
    c4ec:	fef42023          	sw	a5,-32(s0)
    c4f0:	fbc42783          	lw	a5,-68(s0)
    c4f4:	27de                	.2byte	0x27de
    c4f6:	07c2                	slli	a5,a5,0x10
    c4f8:	83c1                	srli	a5,a5,0x10
    c4fa:	07c2                	slli	a5,a5,0x10
    c4fc:	87c1                	srai	a5,a5,0x10
    c4fe:	0207d263          	bgez	a5,c522 <USART_Init+0x1e0>
    c502:	fe042783          	lw	a5,-32(s0)
    c506:	078e                	slli	a5,a5,0x3
    c508:	03278713          	addi	a4,a5,50
    c50c:	06400793          	li	a5,100
    c510:	02f757b3          	divu	a5,a4,a5
    c514:	8b9d                	andi	a5,a5,7
    c516:	fec42703          	lw	a4,-20(s0)
    c51a:	8fd9                	or	a5,a5,a4
    c51c:	fef42623          	sw	a5,-20(s0)
    c520:	a005                	j	c540 <USART_Init+0x1fe>
    c522:	fe042783          	lw	a5,-32(s0)
    c526:	0792                	slli	a5,a5,0x4
    c528:	03278713          	addi	a4,a5,50
    c52c:	06400793          	li	a5,100
    c530:	02f757b3          	divu	a5,a4,a5
    c534:	8bbd                	andi	a5,a5,15
    c536:	fec42703          	lw	a4,-20(s0)
    c53a:	8fd9                	or	a5,a5,a4
    c53c:	fef42623          	sw	a5,-20(s0)
    c540:	fec42783          	lw	a5,-20(s0)
    c544:	01079713          	slli	a4,a5,0x10
    c548:	8341                	srli	a4,a4,0x10
    c54a:	fbc42783          	lw	a5,-68(s0)
    c54e:	a79a                	.2byte	0xa79a
    c550:	0001                	nop
    c552:	40b6                	lw	ra,76(sp)
    c554:	4426                	lw	s0,72(sp)
    c556:	6161                	addi	sp,sp,80
    c558:	8082                	ret

0000c55a <USART_Cmd>:
    c55a:	1101                	addi	sp,sp,-32
    c55c:	ce22                	sw	s0,28(sp)
    c55e:	1000                	addi	s0,sp,32
    c560:	fea42623          	sw	a0,-20(s0)
    c564:	feb42423          	sw	a1,-24(s0)
    c568:	fe842783          	lw	a5,-24(s0)
    c56c:	c385                	beqz	a5,c58c <USART_Cmd+0x32>
    c56e:	fec42783          	lw	a5,-20(s0)
    c572:	27de                	.2byte	0x27de
    c574:	01079713          	slli	a4,a5,0x10
    c578:	8341                	srli	a4,a4,0x10
    c57a:	6789                	lui	a5,0x2
    c57c:	8fd9                	or	a5,a5,a4
    c57e:	01079713          	slli	a4,a5,0x10
    c582:	8341                	srli	a4,a4,0x10
    c584:	fec42783          	lw	a5,-20(s0)
    c588:	a7da                	.2byte	0xa7da
    c58a:	a005                	j	c5aa <USART_Cmd+0x50>
    c58c:	fec42783          	lw	a5,-20(s0)
    c590:	27de                	.2byte	0x27de
    c592:	01079713          	slli	a4,a5,0x10
    c596:	8341                	srli	a4,a4,0x10
    c598:	77f9                	lui	a5,0xffffe
    c59a:	17fd                	addi	a5,a5,-1 # ffffdfff <_eusrstack+0xdfff5fff>
    c59c:	8ff9                	and	a5,a5,a4
    c59e:	01079713          	slli	a4,a5,0x10
    c5a2:	8341                	srli	a4,a4,0x10
    c5a4:	fec42783          	lw	a5,-20(s0)
    c5a8:	a7da                	.2byte	0xa7da
    c5aa:	0001                	nop
    c5ac:	4472                	lw	s0,28(sp)
    c5ae:	6105                	addi	sp,sp,32
    c5b0:	8082                	ret

0000c5b2 <USART_DMACmd>:
    c5b2:	1101                	addi	sp,sp,-32
    c5b4:	ce22                	sw	s0,28(sp)
    c5b6:	1000                	addi	s0,sp,32
    c5b8:	fea42623          	sw	a0,-20(s0)
    c5bc:	87ae                	mv	a5,a1
    c5be:	fec42223          	sw	a2,-28(s0)
    c5c2:	fef41523          	sh	a5,-22(s0)
    c5c6:	fe442783          	lw	a5,-28(s0)
    c5ca:	c385                	beqz	a5,c5ea <USART_DMACmd+0x38>
    c5cc:	fec42783          	lw	a5,-20(s0)
    c5d0:	2bde                	.2byte	0x2bde
    c5d2:	07c2                	slli	a5,a5,0x10
    c5d4:	83c1                	srli	a5,a5,0x10
    c5d6:	fea45703          	lhu	a4,-22(s0)
    c5da:	8fd9                	or	a5,a5,a4
    c5dc:	01079713          	slli	a4,a5,0x10
    c5e0:	8341                	srli	a4,a4,0x10
    c5e2:	fec42783          	lw	a5,-20(s0)
    c5e6:	abda                	.2byte	0xabda
    c5e8:	a025                	j	c610 <USART_DMACmd+0x5e>
    c5ea:	fec42783          	lw	a5,-20(s0)
    c5ee:	2bde                	.2byte	0x2bde
    c5f0:	01079713          	slli	a4,a5,0x10
    c5f4:	8341                	srli	a4,a4,0x10
    c5f6:	fea45783          	lhu	a5,-22(s0)
    c5fa:	fff7c793          	not	a5,a5
    c5fe:	07c2                	slli	a5,a5,0x10
    c600:	83c1                	srli	a5,a5,0x10
    c602:	8ff9                	and	a5,a5,a4
    c604:	01079713          	slli	a4,a5,0x10
    c608:	8341                	srli	a4,a4,0x10
    c60a:	fec42783          	lw	a5,-20(s0)
    c60e:	abda                	.2byte	0xabda
    c610:	0001                	nop
    c612:	4472                	lw	s0,28(sp)
    c614:	6105                	addi	sp,sp,32
    c616:	8082                	ret

0000c618 <USART_SendData>:
    c618:	1101                	addi	sp,sp,-32
    c61a:	ce22                	sw	s0,28(sp)
    c61c:	1000                	addi	s0,sp,32
    c61e:	fea42623          	sw	a0,-20(s0)
    c622:	87ae                	mv	a5,a1
    c624:	fef41523          	sh	a5,-22(s0)
    c628:	fea45783          	lhu	a5,-22(s0)
    c62c:	1ff7f793          	andi	a5,a5,511
    c630:	01079713          	slli	a4,a5,0x10
    c634:	8341                	srli	a4,a4,0x10
    c636:	fec42783          	lw	a5,-20(s0)
    c63a:	a3da                	.2byte	0xa3da
    c63c:	0001                	nop
    c63e:	4472                	lw	s0,28(sp)
    c640:	6105                	addi	sp,sp,32
    c642:	8082                	ret

0000c644 <USART_GetFlagStatus>:
    c644:	7179                	addi	sp,sp,-48
    c646:	d622                	sw	s0,44(sp)
    c648:	1800                	addi	s0,sp,48
    c64a:	fca42e23          	sw	a0,-36(s0)
    c64e:	87ae                	mv	a5,a1
    c650:	fcf41d23          	sh	a5,-38(s0)
    c654:	fe042623          	sw	zero,-20(s0)
    c658:	fdc42783          	lw	a5,-36(s0)
    c65c:	239e                	.2byte	0x239e
    c65e:	07c2                	slli	a5,a5,0x10
    c660:	83c1                	srli	a5,a5,0x10
    c662:	fda45703          	lhu	a4,-38(s0)
    c666:	8ff9                	and	a5,a5,a4
    c668:	07c2                	slli	a5,a5,0x10
    c66a:	83c1                	srli	a5,a5,0x10
    c66c:	c789                	beqz	a5,c676 <USART_GetFlagStatus+0x32>
    c66e:	4785                	li	a5,1
    c670:	fef42623          	sw	a5,-20(s0)
    c674:	a019                	j	c67a <USART_GetFlagStatus+0x36>
    c676:	fe042623          	sw	zero,-20(s0)
    c67a:	fec42783          	lw	a5,-20(s0)
    c67e:	853e                	mv	a0,a5
    c680:	5432                	lw	s0,44(sp)
    c682:	6145                	addi	sp,sp,48
    c684:	8082                	ret

0000c686 <USART_ClearFlag>:
    c686:	1101                	addi	sp,sp,-32
    c688:	ce22                	sw	s0,28(sp)
    c68a:	1000                	addi	s0,sp,32
    c68c:	fea42623          	sw	a0,-20(s0)
    c690:	87ae                	mv	a5,a1
    c692:	fef41523          	sh	a5,-22(s0)
    c696:	fea45783          	lhu	a5,-22(s0)
    c69a:	fff7c793          	not	a5,a5
    c69e:	01079713          	slli	a4,a5,0x10
    c6a2:	8341                	srli	a4,a4,0x10
    c6a4:	fec42783          	lw	a5,-20(s0)
    c6a8:	a39a                	.2byte	0xa39a
    c6aa:	0001                	nop
    c6ac:	4472                	lw	s0,28(sp)
    c6ae:	6105                	addi	sp,sp,32
    c6b0:	8082                	ret
    c6b2:	a001                	j	c6b2 <USART_ClearFlag+0x2c>
    c6b4:	a001                	j	c6b4 <USART_ClearFlag+0x2e>

0000c6b6 <Ecall_M_Mode_Handler>:
    c6b6:	a001                	j	c6b6 <Ecall_M_Mode_Handler>

0000c6b8 <Ecall_U_Mode_Handler>:
    c6b8:	a001                	j	c6b8 <Ecall_U_Mode_Handler>

0000c6ba <Break_Point_Handler>:
    c6ba:	a001                	j	c6ba <Break_Point_Handler>

0000c6bc <SysTick_Handler>:
    c6bc:	a001                	j	c6bc <SysTick_Handler>

0000c6be <SW_Handler>:
    c6be:	a001                	j	c6be <SW_Handler>

0000c6c0 <WWDG_IRQHandler>:
    c6c0:	a001                	j	c6c0 <WWDG_IRQHandler>

0000c6c2 <PVD_IRQHandler>:
    c6c2:	a001                	j	c6c2 <PVD_IRQHandler>

0000c6c4 <TAMPER_IRQHandler>:
    c6c4:	a001                	j	c6c4 <TAMPER_IRQHandler>

0000c6c6 <RTC_IRQHandler>:
    c6c6:	a001                	j	c6c6 <RTC_IRQHandler>

0000c6c8 <FLASH_IRQHandler>:
    c6c8:	a001                	j	c6c8 <FLASH_IRQHandler>

0000c6ca <RCC_IRQHandler>:
    c6ca:	a001                	j	c6ca <RCC_IRQHandler>

0000c6cc <EXTI0_IRQHandler>:
    c6cc:	a001                	j	c6cc <EXTI0_IRQHandler>

0000c6ce <EXTI1_IRQHandler>:
    c6ce:	a001                	j	c6ce <EXTI1_IRQHandler>

0000c6d0 <EXTI2_IRQHandler>:
    c6d0:	a001                	j	c6d0 <EXTI2_IRQHandler>

0000c6d2 <EXTI3_IRQHandler>:
    c6d2:	a001                	j	c6d2 <EXTI3_IRQHandler>

0000c6d4 <EXTI4_IRQHandler>:
    c6d4:	a001                	j	c6d4 <EXTI4_IRQHandler>

0000c6d6 <DMA1_Channel1_IRQHandler>:
    c6d6:	a001                	j	c6d6 <DMA1_Channel1_IRQHandler>

0000c6d8 <DMA1_Channel2_IRQHandler>:
    c6d8:	a001                	j	c6d8 <DMA1_Channel2_IRQHandler>

0000c6da <DMA1_Channel3_IRQHandler>:
    c6da:	a001                	j	c6da <DMA1_Channel3_IRQHandler>

0000c6dc <DMA1_Channel4_IRQHandler>:
    c6dc:	a001                	j	c6dc <DMA1_Channel4_IRQHandler>

0000c6de <DMA1_Channel5_IRQHandler>:
    c6de:	a001                	j	c6de <DMA1_Channel5_IRQHandler>

0000c6e0 <DMA1_Channel6_IRQHandler>:
    c6e0:	a001                	j	c6e0 <DMA1_Channel6_IRQHandler>

0000c6e2 <DMA1_Channel7_IRQHandler>:
    c6e2:	a001                	j	c6e2 <DMA1_Channel7_IRQHandler>

0000c6e4 <ADC1_2_IRQHandler>:
    c6e4:	a001                	j	c6e4 <ADC1_2_IRQHandler>

0000c6e6 <USB_HP_CAN1_TX_IRQHandler>:
    c6e6:	a001                	j	c6e6 <USB_HP_CAN1_TX_IRQHandler>

0000c6e8 <USB_LP_CAN1_RX0_IRQHandler>:
    c6e8:	a001                	j	c6e8 <USB_LP_CAN1_RX0_IRQHandler>

0000c6ea <CAN1_RX1_IRQHandler>:
    c6ea:	a001                	j	c6ea <CAN1_RX1_IRQHandler>

0000c6ec <CAN1_SCE_IRQHandler>:
    c6ec:	a001                	j	c6ec <CAN1_SCE_IRQHandler>

0000c6ee <EXTI9_5_IRQHandler>:
    c6ee:	a001                	j	c6ee <EXTI9_5_IRQHandler>

0000c6f0 <TIM1_BRK_IRQHandler>:
    c6f0:	a001                	j	c6f0 <TIM1_BRK_IRQHandler>

0000c6f2 <TIM1_UP_IRQHandler>:
    c6f2:	a001                	j	c6f2 <TIM1_UP_IRQHandler>

0000c6f4 <TIM1_TRG_COM_IRQHandler>:
    c6f4:	a001                	j	c6f4 <TIM1_TRG_COM_IRQHandler>

0000c6f6 <TIM1_CC_IRQHandler>:
    c6f6:	a001                	j	c6f6 <TIM1_CC_IRQHandler>

0000c6f8 <TIM2_IRQHandler>:
    c6f8:	a001                	j	c6f8 <TIM2_IRQHandler>

0000c6fa <TIM3_IRQHandler>:
    c6fa:	a001                	j	c6fa <TIM3_IRQHandler>

0000c6fc <TIM4_IRQHandler>:
    c6fc:	a001                	j	c6fc <TIM4_IRQHandler>

0000c6fe <I2C1_EV_IRQHandler>:
    c6fe:	a001                	j	c6fe <I2C1_EV_IRQHandler>

0000c700 <I2C1_ER_IRQHandler>:
    c700:	a001                	j	c700 <I2C1_ER_IRQHandler>

0000c702 <I2C2_EV_IRQHandler>:
    c702:	a001                	j	c702 <I2C2_EV_IRQHandler>

0000c704 <I2C2_ER_IRQHandler>:
    c704:	a001                	j	c704 <I2C2_ER_IRQHandler>

0000c706 <SPI1_IRQHandler>:
    c706:	a001                	j	c706 <SPI1_IRQHandler>

0000c708 <SPI2_IRQHandler>:
    c708:	a001                	j	c708 <SPI2_IRQHandler>

0000c70a <USART1_IRQHandler>:
    c70a:	a001                	j	c70a <USART1_IRQHandler>

0000c70c <USART2_IRQHandler>:
    c70c:	a001                	j	c70c <USART2_IRQHandler>

0000c70e <USART3_IRQHandler>:
    c70e:	a001                	j	c70e <USART3_IRQHandler>

0000c710 <EXTI15_10_IRQHandler>:
    c710:	a001                	j	c710 <EXTI15_10_IRQHandler>

0000c712 <RTCAlarm_IRQHandler>:
    c712:	a001                	j	c712 <RTCAlarm_IRQHandler>

0000c714 <USBWakeUp_IRQHandler>:
    c714:	a001                	j	c714 <USBWakeUp_IRQHandler>

0000c716 <TIM8_BRK_IRQHandler>:
    c716:	a001                	j	c716 <TIM8_BRK_IRQHandler>

0000c718 <TIM8_UP_IRQHandler>:
    c718:	a001                	j	c718 <TIM8_UP_IRQHandler>

0000c71a <TIM8_TRG_COM_IRQHandler>:
    c71a:	a001                	j	c71a <TIM8_TRG_COM_IRQHandler>

0000c71c <TIM8_CC_IRQHandler>:
    c71c:	a001                	j	c71c <TIM8_CC_IRQHandler>

0000c71e <RNG_IRQHandler>:
    c71e:	a001                	j	c71e <RNG_IRQHandler>

0000c720 <FSMC_IRQHandler>:
    c720:	a001                	j	c720 <FSMC_IRQHandler>

0000c722 <SDIO_IRQHandler>:
    c722:	a001                	j	c722 <SDIO_IRQHandler>

0000c724 <TIM5_IRQHandler>:
    c724:	a001                	j	c724 <TIM5_IRQHandler>

0000c726 <SPI3_IRQHandler>:
    c726:	a001                	j	c726 <SPI3_IRQHandler>

0000c728 <UART4_IRQHandler>:
    c728:	a001                	j	c728 <UART4_IRQHandler>

0000c72a <UART5_IRQHandler>:
    c72a:	a001                	j	c72a <UART5_IRQHandler>

0000c72c <TIM6_IRQHandler>:
    c72c:	a001                	j	c72c <TIM6_IRQHandler>

0000c72e <TIM7_IRQHandler>:
    c72e:	a001                	j	c72e <TIM7_IRQHandler>

0000c730 <DMA2_Channel1_IRQHandler>:
    c730:	a001                	j	c730 <DMA2_Channel1_IRQHandler>

0000c732 <DMA2_Channel2_IRQHandler>:
    c732:	a001                	j	c732 <DMA2_Channel2_IRQHandler>

0000c734 <DMA2_Channel3_IRQHandler>:
    c734:	a001                	j	c734 <DMA2_Channel3_IRQHandler>

0000c736 <DMA2_Channel4_IRQHandler>:
    c736:	a001                	j	c736 <DMA2_Channel4_IRQHandler>

0000c738 <DMA2_Channel5_IRQHandler>:
    c738:	a001                	j	c738 <DMA2_Channel5_IRQHandler>

0000c73a <ETH_IRQHandler>:
    c73a:	a001                	j	c73a <ETH_IRQHandler>

0000c73c <ETH_WKUP_IRQHandler>:
    c73c:	a001                	j	c73c <ETH_WKUP_IRQHandler>

0000c73e <CAN2_TX_IRQHandler>:
    c73e:	a001                	j	c73e <CAN2_TX_IRQHandler>

0000c740 <CAN2_RX0_IRQHandler>:
    c740:	a001                	j	c740 <CAN2_RX0_IRQHandler>

0000c742 <CAN2_RX1_IRQHandler>:
    c742:	a001                	j	c742 <CAN2_RX1_IRQHandler>

0000c744 <CAN2_SCE_IRQHandler>:
    c744:	a001                	j	c744 <CAN2_SCE_IRQHandler>

0000c746 <OTG_FS_IRQHandler>:
    c746:	a001                	j	c746 <OTG_FS_IRQHandler>

0000c748 <USBHSWakeup_IRQHandler>:
    c748:	a001                	j	c748 <USBHSWakeup_IRQHandler>
    c74a:	a001                	j	c74a <USBHSWakeup_IRQHandler+0x2>

0000c74c <DVP_IRQHandler>:
    c74c:	a001                	j	c74c <DVP_IRQHandler>

0000c74e <UART6_IRQHandler>:
    c74e:	a001                	j	c74e <UART6_IRQHandler>

0000c750 <UART7_IRQHandler>:
    c750:	a001                	j	c750 <UART7_IRQHandler>

0000c752 <UART8_IRQHandler>:
    c752:	a001                	j	c752 <UART8_IRQHandler>

0000c754 <TIM9_BRK_IRQHandler>:
    c754:	a001                	j	c754 <TIM9_BRK_IRQHandler>

0000c756 <TIM9_UP_IRQHandler>:
    c756:	a001                	j	c756 <TIM9_UP_IRQHandler>

0000c758 <TIM9_TRG_COM_IRQHandler>:
    c758:	a001                	j	c758 <TIM9_TRG_COM_IRQHandler>

0000c75a <TIM9_CC_IRQHandler>:
    c75a:	a001                	j	c75a <TIM9_CC_IRQHandler>

0000c75c <TIM10_BRK_IRQHandler>:
    c75c:	a001                	j	c75c <TIM10_BRK_IRQHandler>

0000c75e <TIM10_UP_IRQHandler>:
    c75e:	a001                	j	c75e <TIM10_UP_IRQHandler>

0000c760 <TIM10_TRG_COM_IRQHandler>:
    c760:	a001                	j	c760 <TIM10_TRG_COM_IRQHandler>

0000c762 <TIM10_CC_IRQHandler>:
    c762:	a001                	j	c762 <TIM10_CC_IRQHandler>

0000c764 <DMA2_Channel6_IRQHandler>:
    c764:	a001                	j	c764 <DMA2_Channel6_IRQHandler>

0000c766 <DMA2_Channel7_IRQHandler>:
    c766:	a001                	j	c766 <DMA2_Channel7_IRQHandler>

0000c768 <DMA2_Channel8_IRQHandler>:
    c768:	a001                	j	c768 <DMA2_Channel8_IRQHandler>

0000c76a <DMA2_Channel9_IRQHandler>:
    c76a:	a001                	j	c76a <DMA2_Channel9_IRQHandler>

0000c76c <DMA2_Channel10_IRQHandler>:
    c76c:	a001                	j	c76c <DMA2_Channel10_IRQHandler>

0000c76e <DMA2_Channel11_IRQHandler>:
    c76e:	a001                	j	c76e <DMA2_Channel11_IRQHandler>

0000c770 <handle_reset>:
    c770:	1fff4197          	auipc	gp,0x1fff4
    c774:	1e818193          	addi	gp,gp,488 # 20000958 <__global_pointer$>
    c778:	1fffc117          	auipc	sp,0x1fffc
    c77c:	88810113          	addi	sp,sp,-1912 # 20008000 <_eusrstack>
    c780:	00001517          	auipc	a0,0x1
    c784:	65050513          	addi	a0,a0,1616 # ddd0 <_data_lma>
    c788:	1fff4597          	auipc	a1,0x1fff4
    c78c:	87858593          	addi	a1,a1,-1928 # 20000000 <cmsisdap_descriptor>
    c790:	84818613          	addi	a2,gp,-1976 # 200001a0 <USB_Request>
    c794:	00c5fa63          	bgeu	a1,a2,c7a8 <handle_reset+0x38>
    c798:	00052283          	lw	t0,0(a0)
    c79c:	0055a023          	sw	t0,0(a1)
    c7a0:	0511                	addi	a0,a0,4
    c7a2:	0591                	addi	a1,a1,4
    c7a4:	fec5eae3          	bltu	a1,a2,c798 <handle_reset+0x28>
    c7a8:	1fffa517          	auipc	a0,0x1fffa
    c7ac:	e0850513          	addi	a0,a0,-504 # 200065b0 <DAP_TransferAbort>
    c7b0:	1fffa597          	auipc	a1,0x1fffa
    c7b4:	3c458593          	addi	a1,a1,964 # 20006b74 <_ebss>
    c7b8:	00b57763          	bgeu	a0,a1,c7c6 <handle_reset+0x56>
    c7bc:	00052023          	sw	zero,0(a0)
    c7c0:	0511                	addi	a0,a0,4
    c7c2:	feb56de3          	bltu	a0,a1,c7bc <handle_reset+0x4c>
    c7c6:	42fd                	li	t0,31
    c7c8:	bc029073          	csrw	0xbc0,t0
    c7cc:	42ad                	li	t0,11
    c7ce:	80429073          	csrw	0x804,t0
    c7d2:	6299                	lui	t0,0x6
    c7d4:	08828293          	addi	t0,t0,136 # 6088 <SWD_TransferFast+0x102>
    c7d8:	3002a073          	csrs	mstatus,t0
    c7dc:	ffff4297          	auipc	t0,0xffff4
    c7e0:	85c28293          	addi	t0,t0,-1956 # 38 <_einit>
    c7e4:	0032e293          	ori	t0,t0,3
    c7e8:	30529073          	csrw	mtvec,t0
    c7ec:	220000ef          	jal	ra,ca0c <SystemInit>
    c7f0:	00000297          	auipc	t0,0x0
    c7f4:	1cc28293          	addi	t0,t0,460 # c9bc <main>
    c7f8:	34129073          	csrw	mepc,t0
    c7fc:	30200073          	mret

0000c800 <NMI_Handler>:
    c800:	1141                	addi	sp,sp,-16
    c802:	c622                	sw	s0,12(sp)
    c804:	0800                	addi	s0,sp,16
    c806:	0001                	nop
    c808:	4432                	lw	s0,12(sp)
    c80a:	0141                	addi	sp,sp,16
    c80c:	30200073          	mret

0000c810 <HardFault_Handler>:
    c810:	1141                	addi	sp,sp,-16
    c812:	c622                	sw	s0,12(sp)
    c814:	0800                	addi	s0,sp,16
    c816:	a001                	j	c816 <HardFault_Handler+0x6>

0000c818 <enable_power_output>:
    c818:	1101                	addi	sp,sp,-32
    c81a:	ce06                	sw	ra,28(sp)
    c81c:	cc22                	sw	s0,24(sp)
    c81e:	1000                	addi	s0,sp,32
    c820:	fe042223          	sw	zero,-28(s0)
    c824:	fe042423          	sw	zero,-24(s0)
    c828:	fe042623          	sw	zero,-20(s0)
    c82c:	4585                	li	a1,1
    c82e:	4511                	li	a0,4
    c830:	957ff0ef          	jal	ra,c186 <RCC_APB2PeriphClockCmd>
    c834:	02000793          	li	a5,32
    c838:	fef41223          	sh	a5,-28(s0)
    c83c:	47c1                	li	a5,16
    c83e:	fef42623          	sw	a5,-20(s0)
    c842:	478d                	li	a5,3
    c844:	fef42423          	sw	a5,-24(s0)
    c848:	fe440793          	addi	a5,s0,-28
    c84c:	85be                	mv	a1,a5
    c84e:	400117b7          	lui	a5,0x40011
    c852:	80078513          	addi	a0,a5,-2048 # 40010800 <_eusrstack+0x20008800>
    c856:	8c8ff0ef          	jal	ra,b91e <GPIO_Init>
    c85a:	4585                	li	a1,1
    c85c:	4521                	li	a0,8
    c85e:	929ff0ef          	jal	ra,c186 <RCC_APB2PeriphClockCmd>
    c862:	6785                	lui	a5,0x1
    c864:	fef41223          	sh	a5,-28(s0)
    c868:	47c1                	li	a5,16
    c86a:	fef42623          	sw	a5,-20(s0)
    c86e:	478d                	li	a5,3
    c870:	fef42423          	sw	a5,-24(s0)
    c874:	fe440793          	addi	a5,s0,-28
    c878:	85be                	mv	a1,a5
    c87a:	400117b7          	lui	a5,0x40011
    c87e:	c0078513          	addi	a0,a5,-1024 # 40010c00 <_eusrstack+0x20008c00>
    c882:	89cff0ef          	jal	ra,b91e <GPIO_Init>
    c886:	02000593          	li	a1,32
    c88a:	400117b7          	lui	a5,0x40011
    c88e:	80078513          	addi	a0,a5,-2048 # 40010800 <_eusrstack+0x20008800>
    c892:	b0aff0ef          	jal	ra,bb9c <GPIO_ResetBits>
    c896:	6585                	lui	a1,0x1
    c898:	400117b7          	lui	a5,0x40011
    c89c:	c0078513          	addi	a0,a5,-1024 # 40010c00 <_eusrstack+0x20008c00>
    c8a0:	afcff0ef          	jal	ra,bb9c <GPIO_ResetBits>
    c8a4:	0001                	nop
    c8a6:	40f2                	lw	ra,28(sp)
    c8a8:	4462                	lw	s0,24(sp)
    c8aa:	6105                	addi	sp,sp,32
    c8ac:	8082                	ret

0000c8ae <USBHS_RCC_Init>:
    c8ae:	1141                	addi	sp,sp,-16
    c8b0:	c606                	sw	ra,12(sp)
    c8b2:	c422                	sw	s0,8(sp)
    c8b4:	0800                	addi	s0,sp,16
    c8b6:	4505                	li	a0,1
    c8b8:	a4fff0ef          	jal	ra,c306 <RCC_USBCLK48MConfig>
    c8bc:	4501                	li	a0,0
    c8be:	991ff0ef          	jal	ra,c24e <RCC_USBHSPLLCLKConfig>
    c8c2:	4509                	li	a0,2
    c8c4:	94fff0ef          	jal	ra,c212 <RCC_USBHSConfig>
    c8c8:	4505                	li	a0,1
    c8ca:	9c1ff0ef          	jal	ra,c28a <RCC_USBHSPLLCKREFCLKConfig>
    c8ce:	4505                	li	a0,1
    c8d0:	9f7ff0ef          	jal	ra,c2c6 <RCC_USBHSPHYPLLALIVEcmd>
    c8d4:	4585                	li	a1,1
    c8d6:	6785                	lui	a5,0x1
    c8d8:	80078513          	addi	a0,a5,-2048 # 800 <__stack_size>
    c8dc:	865ff0ef          	jal	ra,c140 <RCC_AHBPeriphClockCmd>
    c8e0:	0001                	nop
    c8e2:	40b2                	lw	ra,12(sp)
    c8e4:	4422                	lw	s0,8(sp)
    c8e6:	0141                	addi	sp,sp,16
    c8e8:	8082                	ret

0000c8ea <usb_dc_low_level_init>:
    c8ea:	1101                	addi	sp,sp,-32
    c8ec:	ce06                	sw	ra,28(sp)
    c8ee:	cc22                	sw	s0,24(sp)
    c8f0:	1000                	addi	s0,sp,32
    c8f2:	3f75                	jal	c8ae <USBHS_RCC_Init>
    c8f4:	05500793          	li	a5,85
    c8f8:	fef42623          	sw	a5,-20(s0)
    c8fc:	fec42783          	lw	a5,-20(s0)
    c900:	8bfd                	andi	a5,a5,31
    c902:	4705                	li	a4,1
    c904:	00f716b3          	sll	a3,a4,a5
    c908:	e000e737          	lui	a4,0xe000e
    c90c:	fec42783          	lw	a5,-20(s0)
    c910:	8395                	srli	a5,a5,0x5
    c912:	04078793          	addi	a5,a5,64
    c916:	078a                	slli	a5,a5,0x2
    c918:	97ba                	add	a5,a5,a4
    c91a:	c394                	sw	a3,0(a5)
    c91c:	0001                	nop
    c91e:	0001                	nop
    c920:	40f2                	lw	ra,28(sp)
    c922:	4462                	lw	s0,24(sp)
    c924:	6105                	addi	sp,sp,32
    c926:	8082                	ret

0000c928 <check_iap_status>:
    c928:	7179                	addi	sp,sp,-48
    c92a:	d606                	sw	ra,44(sp)
    c92c:	d422                	sw	s0,40(sp)
    c92e:	1800                	addi	s0,sp,48
    c930:	fe042023          	sw	zero,-32(s0)
    c934:	fe042223          	sw	zero,-28(s0)
    c938:	fe042423          	sw	zero,-24(s0)
    c93c:	4585                	li	a1,1
    c93e:	4541                	li	a0,16
    c940:	847ff0ef          	jal	ra,c186 <RCC_APB2PeriphClockCmd>
    c944:	08000793          	li	a5,128
    c948:	fef41023          	sh	a5,-32(s0)
    c94c:	4791                	li	a5,4
    c94e:	fef42423          	sw	a5,-24(s0)
    c952:	478d                	li	a5,3
    c954:	fef42223          	sw	a5,-28(s0)
    c958:	fe040793          	addi	a5,s0,-32
    c95c:	85be                	mv	a1,a5
    c95e:	40011537          	lui	a0,0x40011
    c962:	fbdfe0ef          	jal	ra,b91e <GPIO_Init>
    c966:	fc040fa3          	sb	zero,-33(s0)
    c96a:	fe0407a3          	sb	zero,-17(s0)
    c96e:	a03d                	j	c99c <check_iap_status+0x74>
    c970:	08000593          	li	a1,128
    c974:	40011537          	lui	a0,0x40011
    c978:	9c8ff0ef          	jal	ra,bb40 <GPIO_ReadInputDataBit>
    c97c:	87aa                	mv	a5,a0
    c97e:	873e                	mv	a4,a5
    c980:	fdf44783          	lbu	a5,-33(s0)
    c984:	0ff7f793          	zext.b	a5,a5
    c988:	97ba                	add	a5,a5,a4
    c98a:	0ff7f793          	zext.b	a5,a5
    c98e:	fcf40fa3          	sb	a5,-33(s0)
    c992:	fef44783          	lbu	a5,-17(s0)
    c996:	0785                	addi	a5,a5,1
    c998:	fef407a3          	sb	a5,-17(s0)
    c99c:	fef44703          	lbu	a4,-17(s0)
    c9a0:	47a5                	li	a5,9
    c9a2:	fce7f7e3          	bgeu	a5,a4,c970 <check_iap_status+0x48>
    c9a6:	fdf44783          	lbu	a5,-33(s0)
    c9aa:	0ff7f793          	zext.b	a5,a5
    c9ae:	e391                	bnez	a5,c9b2 <check_iap_status+0x8a>
    c9b0:	a001                	j	c9b0 <check_iap_status+0x88>
    c9b2:	0001                	nop
    c9b4:	50b2                	lw	ra,44(sp)
    c9b6:	5422                	lw	s0,40(sp)
    c9b8:	6145                	addi	sp,sp,48
    c9ba:	8082                	ret

0000c9bc <main>:
    c9bc:	1141                	addi	sp,sp,-16
    c9be:	c606                	sw	ra,12(sp)
    c9c0:	c422                	sw	s0,8(sp)
    c9c2:	0800                	addi	s0,sp,16
    c9c4:	4511                	li	a0,4
    c9c6:	bc8ff0ef          	jal	ra,bd8e <NVIC_PriorityGroupConfig>
    c9ca:	28e9                	jal	caa4 <SystemCoreClockUpdate>
    c9cc:	a73fe0ef          	jal	ra,b43e <Delay_Init>
    c9d0:	3fa1                	jal	c928 <check_iap_status>
    c9d2:	4585                	li	a1,1
    c9d4:	4515                	li	a0,5
    c9d6:	fb0ff0ef          	jal	ra,c186 <RCC_APB2PeriphClockCmd>
    c9da:	4585                	li	a1,1
    c9dc:	003007b7          	lui	a5,0x300
    c9e0:	40078513          	addi	a0,a5,1024 # 300400 <_data_lma+0x2f2630>
    c9e4:	9daff0ef          	jal	ra,bbbe <GPIO_PinRemapConfig>
    c9e8:	3d05                	jal	c818 <enable_power_output>
    c9ea:	2b29                	jal	cf04 <uartx_preinit>
    c9ec:	c1efb0ef          	jal	ra,7e0a <chry_dap_init>
    c9f0:	0001                	nop
    c9f2:	d4cfd0ef          	jal	ra,9f3e <usb_device_is_configured>
    c9f6:	87aa                	mv	a5,a0
    c9f8:	0017c793          	xori	a5,a5,1
    c9fc:	0ff7f793          	zext.b	a5,a5
    ca00:	fbed                	bnez	a5,c9f2 <main+0x36>
    ca02:	e22fb0ef          	jal	ra,8024 <chry_dap_handle>
    ca06:	9adfb0ef          	jal	ra,83b2 <chry_dap_usb2uart_handle>
    ca0a:	bfe5                	j	ca02 <main+0x46>

0000ca0c <SystemInit>:
    ca0c:	1141                	addi	sp,sp,-16
    ca0e:	c606                	sw	ra,12(sp)
    ca10:	c422                	sw	s0,8(sp)
    ca12:	0800                	addi	s0,sp,16
    ca14:	400217b7          	lui	a5,0x40021
    ca18:	4398                	lw	a4,0(a5)
    ca1a:	400217b7          	lui	a5,0x40021
    ca1e:	00176713          	ori	a4,a4,1
    ca22:	c398                	sw	a4,0(a5)
    ca24:	400217b7          	lui	a5,0x40021
    ca28:	43d4                	lw	a3,4(a5)
    ca2a:	400217b7          	lui	a5,0x40021
    ca2e:	f8ff0737          	lui	a4,0xf8ff0
    ca32:	8f75                	and	a4,a4,a3
    ca34:	c3d8                	sw	a4,4(a5)
    ca36:	400217b7          	lui	a5,0x40021
    ca3a:	4394                	lw	a3,0(a5)
    ca3c:	400217b7          	lui	a5,0x40021
    ca40:	fef70737          	lui	a4,0xfef70
    ca44:	177d                	addi	a4,a4,-1 # fef6ffff <_eusrstack+0xdef67fff>
    ca46:	8f75                	and	a4,a4,a3
    ca48:	c398                	sw	a4,0(a5)
    ca4a:	400217b7          	lui	a5,0x40021
    ca4e:	4394                	lw	a3,0(a5)
    ca50:	400217b7          	lui	a5,0x40021
    ca54:	fffc0737          	lui	a4,0xfffc0
    ca58:	177d                	addi	a4,a4,-1 # fffbffff <_eusrstack+0xdffb7fff>
    ca5a:	8f75                	and	a4,a4,a3
    ca5c:	c398                	sw	a4,0(a5)
    ca5e:	400217b7          	lui	a5,0x40021
    ca62:	43d4                	lw	a3,4(a5)
    ca64:	400217b7          	lui	a5,0x40021
    ca68:	ff810737          	lui	a4,0xff810
    ca6c:	177d                	addi	a4,a4,-1 # ff80ffff <_eusrstack+0xdf807fff>
    ca6e:	8f75                	and	a4,a4,a3
    ca70:	c3d8                	sw	a4,4(a5)
    ca72:	400217b7          	lui	a5,0x40021
    ca76:	4394                	lw	a3,0(a5)
    ca78:	400217b7          	lui	a5,0x40021
    ca7c:	ec000737          	lui	a4,0xec000
    ca80:	177d                	addi	a4,a4,-1 # ebffffff <_eusrstack+0xcbff7fff>
    ca82:	8f75                	and	a4,a4,a3
    ca84:	c398                	sw	a4,0(a5)
    ca86:	400217b7          	lui	a5,0x40021
    ca8a:	00ff0737          	lui	a4,0xff0
    ca8e:	c798                	sw	a4,8(a5)
    ca90:	400217b7          	lui	a5,0x40021
    ca94:	0207a623          	sw	zero,44(a5) # 4002102c <_eusrstack+0x2001902c>
    ca98:	2a5d                	jal	cc4e <SetSysClock>
    ca9a:	0001                	nop
    ca9c:	40b2                	lw	ra,12(sp)
    ca9e:	4422                	lw	s0,8(sp)
    caa0:	0141                	addi	sp,sp,16
    caa2:	8082                	ret

0000caa4 <SystemCoreClockUpdate>:
    caa4:	1101                	addi	sp,sp,-32
    caa6:	ce22                	sw	s0,28(sp)
    caa8:	1000                	addi	s0,sp,32
    caaa:	fe042223          	sw	zero,-28(s0)
    caae:	fe042623          	sw	zero,-20(s0)
    cab2:	fe042023          	sw	zero,-32(s0)
    cab6:	fe042423          	sw	zero,-24(s0)
    caba:	400217b7          	lui	a5,0x40021
    cabe:	43dc                	lw	a5,4(a5)
    cac0:	8bb1                	andi	a5,a5,12
    cac2:	fef42223          	sw	a5,-28(s0)
    cac6:	fe442703          	lw	a4,-28(s0)
    caca:	47a1                	li	a5,8
    cacc:	02f70e63          	beq	a4,a5,cb08 <SystemCoreClockUpdate+0x64>
    cad0:	fe442703          	lw	a4,-28(s0)
    cad4:	47a1                	li	a5,8
    cad6:	12e7e963          	bltu	a5,a4,cc08 <SystemCoreClockUpdate+0x164>
    cada:	fe442783          	lw	a5,-28(s0)
    cade:	c799                	beqz	a5,caec <SystemCoreClockUpdate+0x48>
    cae0:	fe442703          	lw	a4,-28(s0)
    cae4:	4791                	li	a5,4
    cae6:	00f70a63          	beq	a4,a5,cafa <SystemCoreClockUpdate+0x56>
    caea:	aa39                	j	cc08 <SystemCoreClockUpdate+0x164>
    caec:	007a1737          	lui	a4,0x7a1
    caf0:	20070713          	addi	a4,a4,512 # 7a1200 <_data_lma+0x793430>
    caf4:	82e1ac23          	sw	a4,-1992(gp) # 20000190 <SystemCoreClock>
    caf8:	a205                	j	cc18 <SystemCoreClockUpdate+0x174>
    cafa:	00b72737          	lui	a4,0xb72
    cafe:	b0070713          	addi	a4,a4,-1280 # b71b00 <_data_lma+0xb63d30>
    cb02:	82e1ac23          	sw	a4,-1992(gp) # 20000190 <SystemCoreClock>
    cb06:	aa09                	j	cc18 <SystemCoreClockUpdate+0x174>
    cb08:	400217b7          	lui	a5,0x40021
    cb0c:	43d8                	lw	a4,4(a5)
    cb0e:	003c07b7          	lui	a5,0x3c0
    cb12:	8ff9                	and	a5,a5,a4
    cb14:	fef42623          	sw	a5,-20(s0)
    cb18:	400217b7          	lui	a5,0x40021
    cb1c:	43d8                	lw	a4,4(a5)
    cb1e:	67c1                	lui	a5,0x10
    cb20:	8ff9                	and	a5,a5,a4
    cb22:	fef42023          	sw	a5,-32(s0)
    cb26:	fec42783          	lw	a5,-20(s0)
    cb2a:	83c9                	srli	a5,a5,0x12
    cb2c:	0789                	addi	a5,a5,2 # 10002 <_data_lma+0x2232>
    cb2e:	fef42623          	sw	a5,-20(s0)
    cb32:	fec42703          	lw	a4,-20(s0)
    cb36:	4789                	li	a5,2
    cb38:	00f71563          	bne	a4,a5,cb42 <SystemCoreClockUpdate+0x9e>
    cb3c:	47c9                	li	a5,18
    cb3e:	fef42623          	sw	a5,-20(s0)
    cb42:	fec42703          	lw	a4,-20(s0)
    cb46:	47bd                	li	a5,15
    cb48:	00f71863          	bne	a4,a5,cb58 <SystemCoreClockUpdate+0xb4>
    cb4c:	47b5                	li	a5,13
    cb4e:	fef42623          	sw	a5,-20(s0)
    cb52:	4785                	li	a5,1
    cb54:	fef42423          	sw	a5,-24(s0)
    cb58:	fec42703          	lw	a4,-20(s0)
    cb5c:	47c1                	li	a5,16
    cb5e:	00f71563          	bne	a4,a5,cb68 <SystemCoreClockUpdate+0xc4>
    cb62:	47bd                	li	a5,15
    cb64:	fef42623          	sw	a5,-20(s0)
    cb68:	fec42703          	lw	a4,-20(s0)
    cb6c:	47c5                	li	a5,17
    cb6e:	00f71563          	bne	a4,a5,cb78 <SystemCoreClockUpdate+0xd4>
    cb72:	47c1                	li	a5,16
    cb74:	fef42623          	sw	a5,-20(s0)
    cb78:	fe042783          	lw	a5,-32(s0)
    cb7c:	ef95                	bnez	a5,cbb8 <SystemCoreClockUpdate+0x114>
    cb7e:	400247b7          	lui	a5,0x40024
    cb82:	80078793          	addi	a5,a5,-2048 # 40023800 <_eusrstack+0x2001b800>
    cb86:	439c                	lw	a5,0(a5)
    cb88:	8bc1                	andi	a5,a5,16
    cb8a:	cf81                	beqz	a5,cba2 <SystemCoreClockUpdate+0xfe>
    cb8c:	fec42703          	lw	a4,-20(s0)
    cb90:	007a17b7          	lui	a5,0x7a1
    cb94:	20078793          	addi	a5,a5,512 # 7a1200 <_data_lma+0x793430>
    cb98:	02f70733          	mul	a4,a4,a5
    cb9c:	82e1ac23          	sw	a4,-1992(gp) # 20000190 <SystemCoreClock>
    cba0:	a881                	j	cbf0 <SystemCoreClockUpdate+0x14c>
    cba2:	fec42703          	lw	a4,-20(s0)
    cba6:	003d17b7          	lui	a5,0x3d1
    cbaa:	90078793          	addi	a5,a5,-1792 # 3d0900 <_data_lma+0x3c2b30>
    cbae:	02f70733          	mul	a4,a4,a5
    cbb2:	82e1ac23          	sw	a4,-1992(gp) # 20000190 <SystemCoreClock>
    cbb6:	a82d                	j	cbf0 <SystemCoreClockUpdate+0x14c>
    cbb8:	400217b7          	lui	a5,0x40021
    cbbc:	43d8                	lw	a4,4(a5)
    cbbe:	000207b7          	lui	a5,0x20
    cbc2:	8ff9                	and	a5,a5,a4
    cbc4:	cf81                	beqz	a5,cbdc <SystemCoreClockUpdate+0x138>
    cbc6:	fec42703          	lw	a4,-20(s0)
    cbca:	005b97b7          	lui	a5,0x5b9
    cbce:	d8078793          	addi	a5,a5,-640 # 5b8d80 <_data_lma+0x5aafb0>
    cbd2:	02f70733          	mul	a4,a4,a5
    cbd6:	82e1ac23          	sw	a4,-1992(gp) # 20000190 <SystemCoreClock>
    cbda:	a819                	j	cbf0 <SystemCoreClockUpdate+0x14c>
    cbdc:	fec42703          	lw	a4,-20(s0)
    cbe0:	00b727b7          	lui	a5,0xb72
    cbe4:	b0078793          	addi	a5,a5,-1280 # b71b00 <_data_lma+0xb63d30>
    cbe8:	02f70733          	mul	a4,a4,a5
    cbec:	82e1ac23          	sw	a4,-1992(gp) # 20000190 <SystemCoreClock>
    cbf0:	fe842703          	lw	a4,-24(s0)
    cbf4:	4785                	li	a5,1
    cbf6:	02f71063          	bne	a4,a5,cc16 <SystemCoreClockUpdate+0x172>
    cbfa:	8381a783          	lw	a5,-1992(gp) # 20000190 <SystemCoreClock>
    cbfe:	0017d713          	srli	a4,a5,0x1
    cc02:	82e1ac23          	sw	a4,-1992(gp) # 20000190 <SystemCoreClock>
    cc06:	a801                	j	cc16 <SystemCoreClockUpdate+0x172>
    cc08:	007a1737          	lui	a4,0x7a1
    cc0c:	20070713          	addi	a4,a4,512 # 7a1200 <_data_lma+0x793430>
    cc10:	82e1ac23          	sw	a4,-1992(gp) # 20000190 <SystemCoreClock>
    cc14:	a011                	j	cc18 <SystemCoreClockUpdate+0x174>
    cc16:	0001                	nop
    cc18:	400217b7          	lui	a5,0x40021
    cc1c:	43dc                	lw	a5,4(a5)
    cc1e:	8391                	srli	a5,a5,0x4
    cc20:	8bbd                	andi	a5,a5,15
    cc22:	20000737          	lui	a4,0x20000
    cc26:	0e470713          	addi	a4,a4,228 # 200000e4 <AHBPrescTable>
    cc2a:	97ba                	add	a5,a5,a4
    cc2c:	239c                	.2byte	0x239c
    cc2e:	0ff7f793          	zext.b	a5,a5
    cc32:	fef42223          	sw	a5,-28(s0)
    cc36:	8381a703          	lw	a4,-1992(gp) # 20000190 <SystemCoreClock>
    cc3a:	fe442783          	lw	a5,-28(s0)
    cc3e:	00f75733          	srl	a4,a4,a5
    cc42:	82e1ac23          	sw	a4,-1992(gp) # 20000190 <SystemCoreClock>
    cc46:	0001                	nop
    cc48:	4472                	lw	s0,28(sp)
    cc4a:	6105                	addi	sp,sp,32
    cc4c:	8082                	ret

0000cc4e <SetSysClock>:
    cc4e:	1141                	addi	sp,sp,-16
    cc50:	c606                	sw	ra,12(sp)
    cc52:	c422                	sw	s0,8(sp)
    cc54:	0800                	addi	s0,sp,16
    cc56:	2031                	jal	cc62 <SetSysClockTo144_HSE>
    cc58:	0001                	nop
    cc5a:	40b2                	lw	ra,12(sp)
    cc5c:	4422                	lw	s0,8(sp)
    cc5e:	0141                	addi	sp,sp,16
    cc60:	8082                	ret

0000cc62 <SetSysClockTo144_HSE>:
    cc62:	1101                	addi	sp,sp,-32
    cc64:	ce22                	sw	s0,28(sp)
    cc66:	1000                	addi	s0,sp,32
    cc68:	fe042623          	sw	zero,-20(s0)
    cc6c:	fe042423          	sw	zero,-24(s0)
    cc70:	400217b7          	lui	a5,0x40021
    cc74:	4394                	lw	a3,0(a5)
    cc76:	400217b7          	lui	a5,0x40021
    cc7a:	6741                	lui	a4,0x10
    cc7c:	8f55                	or	a4,a4,a3
    cc7e:	c398                	sw	a4,0(a5)
    cc80:	400217b7          	lui	a5,0x40021
    cc84:	4398                	lw	a4,0(a5)
    cc86:	000207b7          	lui	a5,0x20
    cc8a:	8ff9                	and	a5,a5,a4
    cc8c:	fef42423          	sw	a5,-24(s0)
    cc90:	fec42783          	lw	a5,-20(s0)
    cc94:	0785                	addi	a5,a5,1 # 20001 <_data_lma+0x12231>
    cc96:	fef42623          	sw	a5,-20(s0)
    cc9a:	fe842783          	lw	a5,-24(s0)
    cc9e:	e791                	bnez	a5,ccaa <SetSysClockTo144_HSE+0x48>
    cca0:	fec42703          	lw	a4,-20(s0)
    cca4:	6785                	lui	a5,0x1
    cca6:	fcf71de3          	bne	a4,a5,cc80 <SetSysClockTo144_HSE+0x1e>
    ccaa:	400217b7          	lui	a5,0x40021
    ccae:	4398                	lw	a4,0(a5)
    ccb0:	000207b7          	lui	a5,0x20
    ccb4:	8ff9                	and	a5,a5,a4
    ccb6:	c789                	beqz	a5,ccc0 <SetSysClockTo144_HSE+0x5e>
    ccb8:	4785                	li	a5,1
    ccba:	fef42423          	sw	a5,-24(s0)
    ccbe:	a019                	j	ccc4 <SetSysClockTo144_HSE+0x62>
    ccc0:	fe042423          	sw	zero,-24(s0)
    ccc4:	fe842703          	lw	a4,-24(s0)
    ccc8:	4785                	li	a5,1
    ccca:	0af71263          	bne	a4,a5,cd6e <SetSysClockTo144_HSE+0x10c>
    ccce:	40021737          	lui	a4,0x40021
    ccd2:	400217b7          	lui	a5,0x40021
    ccd6:	4358                	lw	a4,4(a4)
    ccd8:	c3d8                	sw	a4,4(a5)
    ccda:	40021737          	lui	a4,0x40021
    ccde:	400217b7          	lui	a5,0x40021
    cce2:	4358                	lw	a4,4(a4)
    cce4:	c3d8                	sw	a4,4(a5)
    cce6:	400217b7          	lui	a5,0x40021
    ccea:	43d8                	lw	a4,4(a5)
    ccec:	400217b7          	lui	a5,0x40021
    ccf0:	40076713          	ori	a4,a4,1024
    ccf4:	c3d8                	sw	a4,4(a5)
    ccf6:	400217b7          	lui	a5,0x40021
    ccfa:	43d4                	lw	a3,4(a5)
    ccfc:	400217b7          	lui	a5,0x40021
    cd00:	ffc10737          	lui	a4,0xffc10
    cd04:	177d                	addi	a4,a4,-1 # ffc0ffff <_eusrstack+0xdfc07fff>
    cd06:	8f75                	and	a4,a4,a3
    cd08:	c3d8                	sw	a4,4(a5)
    cd0a:	400217b7          	lui	a5,0x40021
    cd0e:	43d4                	lw	a3,4(a5)
    cd10:	400217b7          	lui	a5,0x40021
    cd14:	00290737          	lui	a4,0x290
    cd18:	8f55                	or	a4,a4,a3
    cd1a:	c3d8                	sw	a4,4(a5)
    cd1c:	400217b7          	lui	a5,0x40021
    cd20:	4394                	lw	a3,0(a5)
    cd22:	400217b7          	lui	a5,0x40021
    cd26:	01000737          	lui	a4,0x1000
    cd2a:	8f55                	or	a4,a4,a3
    cd2c:	c398                	sw	a4,0(a5)
    cd2e:	0001                	nop
    cd30:	400217b7          	lui	a5,0x40021
    cd34:	4398                	lw	a4,0(a5)
    cd36:	020007b7          	lui	a5,0x2000
    cd3a:	8ff9                	and	a5,a5,a4
    cd3c:	dbf5                	beqz	a5,cd30 <SetSysClockTo144_HSE+0xce>
    cd3e:	400217b7          	lui	a5,0x40021
    cd42:	43d8                	lw	a4,4(a5)
    cd44:	400217b7          	lui	a5,0x40021
    cd48:	9b71                	andi	a4,a4,-4
    cd4a:	c3d8                	sw	a4,4(a5)
    cd4c:	400217b7          	lui	a5,0x40021
    cd50:	43d8                	lw	a4,4(a5)
    cd52:	400217b7          	lui	a5,0x40021
    cd56:	00276713          	ori	a4,a4,2
    cd5a:	c3d8                	sw	a4,4(a5)
    cd5c:	0001                	nop
    cd5e:	400217b7          	lui	a5,0x40021
    cd62:	43dc                	lw	a5,4(a5)
    cd64:	00c7f713          	andi	a4,a5,12
    cd68:	47a1                	li	a5,8
    cd6a:	fef71ae3          	bne	a4,a5,cd5e <SetSysClockTo144_HSE+0xfc>
    cd6e:	0001                	nop
    cd70:	4472                	lw	s0,28(sp)
    cd72:	6105                	addi	sp,sp,32
    cd74:	8082                	ret

0000cd76 <DMA_INIT>:
    cd76:	7139                	addi	sp,sp,-64
    cd78:	de06                	sw	ra,60(sp)
    cd7a:	dc22                	sw	s0,56(sp)
    cd7c:	0080                	addi	s0,sp,64
    cd7e:	fc042223          	sw	zero,-60(s0)
    cd82:	fc042423          	sw	zero,-56(s0)
    cd86:	fc042623          	sw	zero,-52(s0)
    cd8a:	fc042823          	sw	zero,-48(s0)
    cd8e:	fc042a23          	sw	zero,-44(s0)
    cd92:	fc042c23          	sw	zero,-40(s0)
    cd96:	fc042e23          	sw	zero,-36(s0)
    cd9a:	fe042023          	sw	zero,-32(s0)
    cd9e:	fe042223          	sw	zero,-28(s0)
    cda2:	fe042423          	sw	zero,-24(s0)
    cda6:	fe042623          	sw	zero,-20(s0)
    cdaa:	4585                	li	a1,1
    cdac:	4505                	li	a0,1
    cdae:	b92ff0ef          	jal	ra,c140 <RCC_AHBPeriphClockCmd>
    cdb2:	400047b7          	lui	a5,0x40004
    cdb6:	40478793          	addi	a5,a5,1028 # 40004404 <_eusrstack+0x1fffc404>
    cdba:	fcf42223          	sw	a5,-60(s0)
    cdbe:	fc042423          	sw	zero,-56(s0)
    cdc2:	47c1                	li	a5,16
    cdc4:	fcf42623          	sw	a5,-52(s0)
    cdc8:	fc042823          	sw	zero,-48(s0)
    cdcc:	fc042a23          	sw	zero,-44(s0)
    cdd0:	08000793          	li	a5,128
    cdd4:	fcf42c23          	sw	a5,-40(s0)
    cdd8:	fc042e23          	sw	zero,-36(s0)
    cddc:	fe042023          	sw	zero,-32(s0)
    cde0:	fe042223          	sw	zero,-28(s0)
    cde4:	678d                	lui	a5,0x3
    cde6:	fef42423          	sw	a5,-24(s0)
    cdea:	fe042623          	sw	zero,-20(s0)
    cdee:	400207b7          	lui	a5,0x40020
    cdf2:	03078513          	addi	a0,a5,48 # 40020030 <_eusrstack+0x20018030>
    cdf6:	ef0fe0ef          	jal	ra,b4e6 <DMA_DeInit>
    cdfa:	400057b7          	lui	a5,0x40005
    cdfe:	80478793          	addi	a5,a5,-2044 # 40004804 <_eusrstack+0x1fffc804>
    ce02:	fcf42223          	sw	a5,-60(s0)
    ce06:	200077b7          	lui	a5,0x20007
    ce0a:	97478793          	addi	a5,a5,-1676 # 20006974 <RxBuffer1>
    ce0e:	fcf42423          	sw	a5,-56(s0)
    ce12:	fc042623          	sw	zero,-52(s0)
    ce16:	20000793          	li	a5,512
    ce1a:	fcf42823          	sw	a5,-48(s0)
    ce1e:	fc440793          	addi	a5,s0,-60
    ce22:	85be                	mv	a1,a5
    ce24:	400207b7          	lui	a5,0x40020
    ce28:	03078513          	addi	a0,a5,48 # 40020030 <_eusrstack+0x20018030>
    ce2c:	9cdfe0ef          	jal	ra,b7f8 <DMA_Init>
    ce30:	4585                	li	a1,1
    ce32:	400207b7          	lui	a5,0x40020
    ce36:	03078513          	addi	a0,a5,48 # 40020030 <_eusrstack+0x20018030>
    ce3a:	a67fe0ef          	jal	ra,b8a0 <DMA_Cmd>
    ce3e:	0001                	nop
    ce40:	50f2                	lw	ra,60(sp)
    ce42:	5462                	lw	s0,56(sp)
    ce44:	6121                	addi	sp,sp,64
    ce46:	8082                	ret

0000ce48 <UART3_CfgInit>:
    ce48:	7179                	addi	sp,sp,-48
    ce4a:	d606                	sw	ra,44(sp)
    ce4c:	d422                	sw	s0,40(sp)
    ce4e:	1800                	addi	s0,sp,48
    ce50:	fca42e23          	sw	a0,-36(s0)
    ce54:	87ae                	mv	a5,a1
    ce56:	8732                	mv	a4,a2
    ce58:	fcf40da3          	sb	a5,-37(s0)
    ce5c:	87ba                	mv	a5,a4
    ce5e:	fcf40d23          	sb	a5,-38(s0)
    ce62:	fe042023          	sw	zero,-32(s0)
    ce66:	fe042223          	sw	zero,-28(s0)
    ce6a:	fe042423          	sw	zero,-24(s0)
    ce6e:	fe042623          	sw	zero,-20(s0)
    ce72:	fdc42783          	lw	a5,-36(s0)
    ce76:	fef42023          	sw	a5,-32(s0)
    ce7a:	fe041223          	sh	zero,-28(s0)
    ce7e:	fdb44703          	lbu	a4,-37(s0)
    ce82:	4785                	li	a5,1
    ce84:	00f71663          	bne	a4,a5,ce90 <UART3_CfgInit+0x48>
    ce88:	678d                	lui	a5,0x3
    ce8a:	fef41323          	sh	a5,-26(s0)
    ce8e:	a821                	j	cea6 <UART3_CfgInit+0x5e>
    ce90:	fdb44703          	lbu	a4,-37(s0)
    ce94:	4789                	li	a5,2
    ce96:	00f71663          	bne	a4,a5,cea2 <UART3_CfgInit+0x5a>
    ce9a:	6789                	lui	a5,0x2
    ce9c:	fef41323          	sh	a5,-26(s0)
    cea0:	a019                	j	cea6 <UART3_CfgInit+0x5e>
    cea2:	fe041323          	sh	zero,-26(s0)
    cea6:	fda44703          	lbu	a4,-38(s0)
    ceaa:	4785                	li	a5,1
    ceac:	00f71a63          	bne	a4,a5,cec0 <UART3_CfgInit+0x78>
    ceb0:	60000793          	li	a5,1536
    ceb4:	fef41423          	sh	a5,-24(s0)
    ceb8:	6785                	lui	a5,0x1
    ceba:	fef41223          	sh	a5,-28(s0)
    cebe:	a005                	j	cede <UART3_CfgInit+0x96>
    cec0:	fda44703          	lbu	a4,-38(s0)
    cec4:	4789                	li	a5,2
    cec6:	00f71a63          	bne	a4,a5,ceda <UART3_CfgInit+0x92>
    ceca:	40000793          	li	a5,1024
    cece:	fef41423          	sh	a5,-24(s0)
    ced2:	6785                	lui	a5,0x1
    ced4:	fef41223          	sh	a5,-28(s0)
    ced8:	a019                	j	cede <UART3_CfgInit+0x96>
    ceda:	fe041423          	sh	zero,-24(s0)
    cede:	fe041623          	sh	zero,-20(s0)
    cee2:	47b1                	li	a5,12
    cee4:	fef41523          	sh	a5,-22(s0)
    cee8:	fe040793          	addi	a5,s0,-32
    ceec:	85be                	mv	a1,a5
    ceee:	400057b7          	lui	a5,0x40005
    cef2:	80078513          	addi	a0,a5,-2048 # 40004800 <_eusrstack+0x1fffc800>
    cef6:	c4cff0ef          	jal	ra,c342 <USART_Init>
    cefa:	0001                	nop
    cefc:	50b2                	lw	ra,44(sp)
    cefe:	5422                	lw	s0,40(sp)
    cf00:	6145                	addi	sp,sp,48
    cf02:	8082                	ret

0000cf04 <uartx_preinit>:
    cf04:	1101                	addi	sp,sp,-32
    cf06:	ce06                	sw	ra,28(sp)
    cf08:	cc22                	sw	s0,24(sp)
    cf0a:	1000                	addi	s0,sp,32
    cf0c:	4585                	li	a1,1
    cf0e:	4511                	li	a0,4
    cf10:	a76ff0ef          	jal	ra,c186 <RCC_APB2PeriphClockCmd>
    cf14:	4585                	li	a1,1
    cf16:	4521                	li	a0,8
    cf18:	a6eff0ef          	jal	ra,c186 <RCC_APB2PeriphClockCmd>
    cf1c:	4585                	li	a1,1
    cf1e:	00040537          	lui	a0,0x40
    cf22:	aaaff0ef          	jal	ra,c1cc <RCC_APB1PeriphClockCmd>
    cf26:	4585                	li	a1,1
    cf28:	4505                	li	a0,1
    cf2a:	a16ff0ef          	jal	ra,c140 <RCC_AHBPeriphClockCmd>
    cf2e:	fe042023          	sw	zero,-32(s0)
    cf32:	fe042223          	sw	zero,-28(s0)
    cf36:	fe042423          	sw	zero,-24(s0)
    cf3a:	40000593          	li	a1,1024
    cf3e:	400117b7          	lui	a5,0x40011
    cf42:	80078513          	addi	a0,a5,-2048 # 40010800 <_eusrstack+0x20008800>
    cf46:	c35fe0ef          	jal	ra,bb7a <GPIO_SetBits>
    cf4a:	40000793          	li	a5,1024
    cf4e:	fef41023          	sh	a5,-32(s0)
    cf52:	478d                	li	a5,3
    cf54:	fef42223          	sw	a5,-28(s0)
    cf58:	47c1                	li	a5,16
    cf5a:	fef42423          	sw	a5,-24(s0)
    cf5e:	fe040793          	addi	a5,s0,-32
    cf62:	85be                	mv	a1,a5
    cf64:	400117b7          	lui	a5,0x40011
    cf68:	c0078513          	addi	a0,a5,-1024 # 40010c00 <_eusrstack+0x20008c00>
    cf6c:	9b3fe0ef          	jal	ra,b91e <GPIO_Init>
    cf70:	400057b7          	lui	a5,0x40005
    cf74:	80078793          	addi	a5,a5,-2048 # 40004800 <_eusrstack+0x1fffc800>
    cf78:	27de                	.2byte	0x27de
    cf7a:	01079713          	slli	a4,a5,0x10
    cf7e:	8341                	srli	a4,a4,0x10
    cf80:	400057b7          	lui	a5,0x40005
    cf84:	80078793          	addi	a5,a5,-2048 # 40004800 <_eusrstack+0x1fffc800>
    cf88:	9b4d                	andi	a4,a4,-13
    cf8a:	0742                	slli	a4,a4,0x10
    cf8c:	8341                	srli	a4,a4,0x10
    cf8e:	a7da                	.2byte	0xa7da
    cf90:	6785                	lui	a5,0x1
    cf92:	80078793          	addi	a5,a5,-2048 # 800 <__stack_size>
    cf96:	fef41023          	sh	a5,-32(s0)
    cf9a:	04800793          	li	a5,72
    cf9e:	fef42423          	sw	a5,-24(s0)
    cfa2:	fe040793          	addi	a5,s0,-32
    cfa6:	85be                	mv	a1,a5
    cfa8:	400117b7          	lui	a5,0x40011
    cfac:	c0078513          	addi	a0,a5,-1024 # 40010c00 <_eusrstack+0x20008c00>
    cfb0:	96ffe0ef          	jal	ra,b91e <GPIO_Init>
    cfb4:	40000793          	li	a5,1024
    cfb8:	fef41023          	sh	a5,-32(s0)
    cfbc:	478d                	li	a5,3
    cfbe:	fef42223          	sw	a5,-28(s0)
    cfc2:	47e1                	li	a5,24
    cfc4:	fef42423          	sw	a5,-24(s0)
    cfc8:	fe040793          	addi	a5,s0,-32
    cfcc:	85be                	mv	a1,a5
    cfce:	400117b7          	lui	a5,0x40011
    cfd2:	c0078513          	addi	a0,a5,-1024 # 40010c00 <_eusrstack+0x20008c00>
    cfd6:	949fe0ef          	jal	ra,b91e <GPIO_Init>
    cfda:	d9dff0ef          	jal	ra,cd76 <DMA_INIT>
    cfde:	4605                	li	a2,1
    cfe0:	04000593          	li	a1,64
    cfe4:	400057b7          	lui	a5,0x40005
    cfe8:	80078513          	addi	a0,a5,-2048 # 40004800 <_eusrstack+0x1fffc800>
    cfec:	dc6ff0ef          	jal	ra,c5b2 <USART_DMACmd>
    cff0:	4601                	li	a2,0
    cff2:	4581                	li	a1,0
    cff4:	67f1                	lui	a5,0x1c
    cff6:	20078513          	addi	a0,a5,512 # 1c200 <_data_lma+0xe430>
    cffa:	35b9                	jal	ce48 <UART3_CfgInit>
    cffc:	4585                	li	a1,1
    cffe:	400057b7          	lui	a5,0x40005
    d002:	80078513          	addi	a0,a5,-2048 # 40004800 <_eusrstack+0x1fffc800>
    d006:	d54ff0ef          	jal	ra,c55a <USART_Cmd>
    d00a:	0001                	nop
    d00c:	40f2                	lw	ra,28(sp)
    d00e:	4462                	lw	s0,24(sp)
    d010:	6105                	addi	sp,sp,32
    d012:	8082                	ret

0000d014 <chry_dap_usb2uart_uart_config_callback>:
    d014:	1101                	addi	sp,sp,-32
    d016:	ce06                	sw	ra,28(sp)
    d018:	cc22                	sw	s0,24(sp)
    d01a:	1000                	addi	s0,sp,32
    d01c:	fea42623          	sw	a0,-20(s0)
    d020:	fec42783          	lw	a5,-20(s0)
    d024:	2398                	.2byte	0x2398
    d026:	3394                	.2byte	0x3394
    d028:	06a2                	slli	a3,a3,0x8
    d02a:	8f55                	or	a4,a4,a3
    d02c:	23b4                	.2byte	0x23b4
    d02e:	06c2                	slli	a3,a3,0x10
    d030:	8f55                	or	a4,a4,a3
    d032:	33bc                	.2byte	0x33bc
    d034:	07e2                	slli	a5,a5,0x18
    d036:	8fd9                	or	a5,a5,a4
    d038:	86be                	mv	a3,a5
    d03a:	fec42783          	lw	a5,-20(s0)
    d03e:	23d8                	.2byte	0x23d8
    d040:	fec42783          	lw	a5,-20(s0)
    d044:	33dc                	.2byte	0x33dc
    d046:	863e                	mv	a2,a5
    d048:	85ba                	mv	a1,a4
    d04a:	8536                	mv	a0,a3
    d04c:	3bf5                	jal	ce48 <UART3_CfgInit>
    d04e:	0001                	nop
    d050:	40f2                	lw	ra,28(sp)
    d052:	4462                	lw	s0,24(sp)
    d054:	6105                	addi	sp,sp,32
    d056:	8082                	ret

0000d058 <memcmp>:
    d058:	4701                	li	a4,0
    d05a:	00e61463          	bne	a2,a4,d062 <memcmp+0xa>
    d05e:	4501                	li	a0,0
    d060:	8082                	ret
    d062:	00e507b3          	add	a5,a0,a4
    d066:	0705                	addi	a4,a4,1 # 1000001 <_data_lma+0xff2231>
    d068:	00e586b3          	add	a3,a1,a4
    d06c:	239c                	.2byte	0x239c
    d06e:	fff6c683          	lbu	a3,-1(a3)
    d072:	fed784e3          	beq	a5,a3,d05a <memcmp+0x2>
    d076:	40d78533          	sub	a0,a5,a3
    d07a:	8082                	ret

0000d07c <siprintf>:
    d07c:	7135                	addi	sp,sp,-160
    d07e:	cb3e                	sw	a5,148(sp)
    d080:	800007b7          	lui	a5,0x80000
    d084:	17fd                	addi	a5,a5,-1 # 7fffffff <_eusrstack+0x5fff7fff>
    d086:	ce3e                	sw	a5,28(sp)
    d088:	c83e                	sw	a5,16(sp)
    d08a:	77c1                	lui	a5,0xffff0
    d08c:	c532                	sw	a2,136(sp)
    d08e:	c736                	sw	a3,140(sp)
    d090:	c42a                	sw	a0,8(sp)
    d092:	cc2a                	sw	a0,24(sp)
    d094:	20878793          	addi	a5,a5,520 # ffff0208 <_eusrstack+0xdffe8208>
    d098:	0134                	addi	a3,sp,136
    d09a:	862e                	mv	a2,a1
    d09c:	83c1a503          	lw	a0,-1988(gp) # 20000194 <_impure_ptr>
    d0a0:	002c                	addi	a1,sp,8
    d0a2:	de86                	sw	ra,124(sp)
    d0a4:	ca3e                	sw	a5,20(sp)
    d0a6:	c93a                	sw	a4,144(sp)
    d0a8:	cd42                	sw	a6,152(sp)
    d0aa:	cf46                	sw	a7,156(sp)
    d0ac:	c236                	sw	a3,4(sp)
    d0ae:	20fd                	jal	d19c <_svfiprintf_r>
    d0b0:	47a2                	lw	a5,8(sp)
    d0b2:	00078023          	sb	zero,0(a5)
    d0b6:	50f6                	lw	ra,124(sp)
    d0b8:	610d                	addi	sp,sp,160
    d0ba:	8082                	ret

0000d0bc <__ssputs_r>:
    d0bc:	1101                	addi	sp,sp,-32
    d0be:	c84a                	sw	s2,16(sp)
    d0c0:	0085a903          	lw	s2,8(a1) # 1008 <DAP_JTAG_Sequence+0x3e>
    d0c4:	cc22                	sw	s0,24(sp)
    d0c6:	c64e                	sw	s3,12(sp)
    d0c8:	c256                	sw	s5,4(sp)
    d0ca:	c05a                	sw	s6,0(sp)
    d0cc:	ce06                	sw	ra,28(sp)
    d0ce:	ca26                	sw	s1,20(sp)
    d0d0:	c452                	sw	s4,8(sp)
    d0d2:	0005aa83          	lw	s5,0(a1)
    d0d6:	842e                	mv	s0,a1
    d0d8:	8b32                	mv	s6,a2
    d0da:	89b6                	mv	s3,a3
    d0dc:	0726e663          	bltu	a3,s2,d148 <__ssputs_r+0x8c>
    d0e0:	00c59783          	lh	a5,12(a1)
    d0e4:	4807f713          	andi	a4,a5,1152
    d0e8:	cf31                	beqz	a4,d144 <__ssputs_r+0x88>
    d0ea:	4858                	lw	a4,20(s0)
    d0ec:	448d                	li	s1,3
    d0ee:	498c                	lw	a1,16(a1)
    d0f0:	02e484b3          	mul	s1,s1,a4
    d0f4:	4709                	li	a4,2
    d0f6:	40ba8ab3          	sub	s5,s5,a1
    d0fa:	8a2a                	mv	s4,a0
    d0fc:	02e4c4b3          	div	s1,s1,a4
    d100:	00168713          	addi	a4,a3,1
    d104:	9756                	add	a4,a4,s5
    d106:	00e4f363          	bgeu	s1,a4,d10c <__ssputs_r+0x50>
    d10a:	84ba                	mv	s1,a4
    d10c:	4007f793          	andi	a5,a5,1024
    d110:	c7a5                	beqz	a5,d178 <__ssputs_r+0xbc>
    d112:	85a6                	mv	a1,s1
    d114:	8552                	mv	a0,s4
    d116:	2fa5                	jal	d88e <_malloc_r>
    d118:	892a                	mv	s2,a0
    d11a:	c925                	beqz	a0,d18a <__ssputs_r+0xce>
    d11c:	480c                	lw	a1,16(s0)
    d11e:	8656                	mv	a2,s5
    d120:	8e0f30ef          	jal	ra,200 <memcpy>
    d124:	245e                	.2byte	0x245e
    d126:	b7f7f793          	andi	a5,a5,-1153
    d12a:	0807e793          	ori	a5,a5,128
    d12e:	a45e                	.2byte	0xa45e
    d130:	01242823          	sw	s2,16(s0)
    d134:	c844                	sw	s1,20(s0)
    d136:	9956                	add	s2,s2,s5
    d138:	415484b3          	sub	s1,s1,s5
    d13c:	01242023          	sw	s2,0(s0)
    d140:	c404                	sw	s1,8(s0)
    d142:	894e                	mv	s2,s3
    d144:	0129f363          	bgeu	s3,s2,d14a <__ssputs_r+0x8e>
    d148:	894e                	mv	s2,s3
    d14a:	4008                	lw	a0,0(s0)
    d14c:	864a                	mv	a2,s2
    d14e:	85da                	mv	a1,s6
    d150:	8d6f30ef          	jal	ra,226 <memmove>
    d154:	441c                	lw	a5,8(s0)
    d156:	4501                	li	a0,0
    d158:	412787b3          	sub	a5,a5,s2
    d15c:	c41c                	sw	a5,8(s0)
    d15e:	401c                	lw	a5,0(s0)
    d160:	97ca                	add	a5,a5,s2
    d162:	c01c                	sw	a5,0(s0)
    d164:	40f2                	lw	ra,28(sp)
    d166:	4462                	lw	s0,24(sp)
    d168:	44d2                	lw	s1,20(sp)
    d16a:	4942                	lw	s2,16(sp)
    d16c:	49b2                	lw	s3,12(sp)
    d16e:	4a22                	lw	s4,8(sp)
    d170:	4a92                	lw	s5,4(sp)
    d172:	4b02                	lw	s6,0(sp)
    d174:	6105                	addi	sp,sp,32
    d176:	8082                	ret
    d178:	8626                	mv	a2,s1
    d17a:	8552                	mv	a0,s4
    d17c:	01f000ef          	jal	ra,d99a <_realloc_r>
    d180:	892a                	mv	s2,a0
    d182:	f55d                	bnez	a0,d130 <__ssputs_r+0x74>
    d184:	480c                	lw	a1,16(s0)
    d186:	8552                	mv	a0,s4
    d188:	2531                	jal	d794 <_free_r>
    d18a:	47b1                	li	a5,12
    d18c:	00fa2023          	sw	a5,0(s4)
    d190:	245e                	.2byte	0x245e
    d192:	557d                	li	a0,-1
    d194:	0407e793          	ori	a5,a5,64
    d198:	a45e                	.2byte	0xa45e
    d19a:	b7e9                	j	d164 <__ssputs_r+0xa8>

0000d19c <_svfiprintf_r>:
    d19c:	25de                	.2byte	0x25de
    d19e:	7135                	addi	sp,sp,-160
    d1a0:	cd22                	sw	s0,152(sp)
    d1a2:	cb26                	sw	s1,148(sp)
    d1a4:	c94a                	sw	s2,144(sp)
    d1a6:	c552                	sw	s4,136(sp)
    d1a8:	cf06                	sw	ra,156(sp)
    d1aa:	c74e                	sw	s3,140(sp)
    d1ac:	c356                	sw	s5,132(sp)
    d1ae:	c15a                	sw	s6,128(sp)
    d1b0:	dede                	sw	s7,124(sp)
    d1b2:	dce2                	sw	s8,120(sp)
    d1b4:	dae6                	sw	s9,116(sp)
    d1b6:	0807f793          	andi	a5,a5,128
    d1ba:	8a2a                	mv	s4,a0
    d1bc:	892e                	mv	s2,a1
    d1be:	84b2                	mv	s1,a2
    d1c0:	8436                	mv	s0,a3
    d1c2:	c3a1                	beqz	a5,d202 <_svfiprintf_r+0x66>
    d1c4:	499c                	lw	a5,16(a1)
    d1c6:	ef95                	bnez	a5,d202 <_svfiprintf_r+0x66>
    d1c8:	04000593          	li	a1,64
    d1cc:	25c9                	jal	d88e <_malloc_r>
    d1ce:	00a92023          	sw	a0,0(s2)
    d1d2:	00a92823          	sw	a0,16(s2)
    d1d6:	e115                	bnez	a0,d1fa <_svfiprintf_r+0x5e>
    d1d8:	47b1                	li	a5,12
    d1da:	00fa2023          	sw	a5,0(s4)
    d1de:	557d                	li	a0,-1
    d1e0:	40fa                	lw	ra,156(sp)
    d1e2:	446a                	lw	s0,152(sp)
    d1e4:	44da                	lw	s1,148(sp)
    d1e6:	494a                	lw	s2,144(sp)
    d1e8:	49ba                	lw	s3,140(sp)
    d1ea:	4a2a                	lw	s4,136(sp)
    d1ec:	4a9a                	lw	s5,132(sp)
    d1ee:	4b0a                	lw	s6,128(sp)
    d1f0:	5bf6                	lw	s7,124(sp)
    d1f2:	5c66                	lw	s8,120(sp)
    d1f4:	5cd6                	lw	s9,116(sp)
    d1f6:	610d                	addi	sp,sp,160
    d1f8:	8082                	ret
    d1fa:	04000793          	li	a5,64
    d1fe:	00f92a23          	sw	a5,20(s2)
    d202:	02000793          	li	a5,32
    d206:	02f104a3          	sb	a5,41(sp)
    d20a:	03000793          	li	a5,48
    d20e:	d202                	sw	zero,36(sp)
    d210:	02f10523          	sb	a5,42(sp)
    d214:	c622                	sw	s0,12(sp)
    d216:	02500b93          	li	s7,37
    d21a:	00001a97          	auipc	s5,0x1
    d21e:	b22a8a93          	addi	s5,s5,-1246 # dd3c <USBD_BinaryObjectStoreDescriptor+0xb0>
    d222:	4c05                	li	s8,1
    d224:	4b29                	li	s6,10
    d226:	8426                	mv	s0,s1
    d228:	201c                	.2byte	0x201c
    d22a:	c399                	beqz	a5,d230 <_svfiprintf_r+0x94>
    d22c:	09779763          	bne	a5,s7,d2ba <_svfiprintf_r+0x11e>
    d230:	40940cb3          	sub	s9,s0,s1
    d234:	00940d63          	beq	s0,s1,d24e <_svfiprintf_r+0xb2>
    d238:	86e6                	mv	a3,s9
    d23a:	8626                	mv	a2,s1
    d23c:	85ca                	mv	a1,s2
    d23e:	8552                	mv	a0,s4
    d240:	3db5                	jal	d0bc <__ssputs_r>
    d242:	57fd                	li	a5,-1
    d244:	18f50563          	beq	a0,a5,d3ce <_svfiprintf_r+0x232>
    d248:	5792                	lw	a5,36(sp)
    d24a:	97e6                	add	a5,a5,s9
    d24c:	d23e                	sw	a5,36(sp)
    d24e:	201c                	.2byte	0x201c
    d250:	16078f63          	beqz	a5,d3ce <_svfiprintf_r+0x232>
    d254:	57fd                	li	a5,-1
    d256:	00140493          	addi	s1,s0,1
    d25a:	c802                	sw	zero,16(sp)
    d25c:	ce02                	sw	zero,28(sp)
    d25e:	ca3e                	sw	a5,20(sp)
    d260:	cc02                	sw	zero,24(sp)
    d262:	040109a3          	sb	zero,83(sp)
    d266:	d482                	sw	zero,104(sp)
    d268:	208c                	.2byte	0x208c
    d26a:	4615                	li	a2,5
    d26c:	8556                	mv	a0,s5
    d26e:	2339                	jal	d77c <memchr>
    d270:	47c2                	lw	a5,16(sp)
    d272:	00148413          	addi	s0,s1,1
    d276:	e521                	bnez	a0,d2be <_svfiprintf_r+0x122>
    d278:	0107f713          	andi	a4,a5,16
    d27c:	c709                	beqz	a4,d286 <_svfiprintf_r+0xea>
    d27e:	02000713          	li	a4,32
    d282:	04e109a3          	sb	a4,83(sp)
    d286:	0087f713          	andi	a4,a5,8
    d28a:	c709                	beqz	a4,d294 <_svfiprintf_r+0xf8>
    d28c:	02b00713          	li	a4,43
    d290:	04e109a3          	sb	a4,83(sp)
    d294:	2094                	.2byte	0x2094
    d296:	02a00713          	li	a4,42
    d29a:	02e68a63          	beq	a3,a4,d2ce <_svfiprintf_r+0x132>
    d29e:	47f2                	lw	a5,28(sp)
    d2a0:	8426                	mv	s0,s1
    d2a2:	4681                	li	a3,0
    d2a4:	4625                	li	a2,9
    d2a6:	2018                	.2byte	0x2018
    d2a8:	00140593          	addi	a1,s0,1
    d2ac:	fd070713          	addi	a4,a4,-48
    d2b0:	06e67363          	bgeu	a2,a4,d316 <_svfiprintf_r+0x17a>
    d2b4:	c68d                	beqz	a3,d2de <_svfiprintf_r+0x142>
    d2b6:	ce3e                	sw	a5,28(sp)
    d2b8:	a01d                	j	d2de <_svfiprintf_r+0x142>
    d2ba:	0405                	addi	s0,s0,1
    d2bc:	b7b5                	j	d228 <_svfiprintf_r+0x8c>
    d2be:	41550533          	sub	a0,a0,s5
    d2c2:	00ac1533          	sll	a0,s8,a0
    d2c6:	8fc9                	or	a5,a5,a0
    d2c8:	c83e                	sw	a5,16(sp)
    d2ca:	84a2                	mv	s1,s0
    d2cc:	bf71                	j	d268 <_svfiprintf_r+0xcc>
    d2ce:	4732                	lw	a4,12(sp)
    d2d0:	00470693          	addi	a3,a4,4
    d2d4:	4318                	lw	a4,0(a4)
    d2d6:	c636                	sw	a3,12(sp)
    d2d8:	02074863          	bltz	a4,d308 <_svfiprintf_r+0x16c>
    d2dc:	ce3a                	sw	a4,28(sp)
    d2de:	2018                	.2byte	0x2018
    d2e0:	02e00793          	li	a5,46
    d2e4:	04f71c63          	bne	a4,a5,d33c <_svfiprintf_r+0x1a0>
    d2e8:	3018                	.2byte	0x3018
    d2ea:	02a00793          	li	a5,42
    d2ee:	02f71a63          	bne	a4,a5,d322 <_svfiprintf_r+0x186>
    d2f2:	47b2                	lw	a5,12(sp)
    d2f4:	0409                	addi	s0,s0,2
    d2f6:	00478713          	addi	a4,a5,4
    d2fa:	439c                	lw	a5,0(a5)
    d2fc:	c63a                	sw	a4,12(sp)
    d2fe:	0007d363          	bgez	a5,d304 <_svfiprintf_r+0x168>
    d302:	57fd                	li	a5,-1
    d304:	ca3e                	sw	a5,20(sp)
    d306:	a81d                	j	d33c <_svfiprintf_r+0x1a0>
    d308:	40e00733          	neg	a4,a4
    d30c:	0027e793          	ori	a5,a5,2
    d310:	ce3a                	sw	a4,28(sp)
    d312:	c83e                	sw	a5,16(sp)
    d314:	b7e9                	j	d2de <_svfiprintf_r+0x142>
    d316:	036787b3          	mul	a5,a5,s6
    d31a:	842e                	mv	s0,a1
    d31c:	4685                	li	a3,1
    d31e:	97ba                	add	a5,a5,a4
    d320:	b759                	j	d2a6 <_svfiprintf_r+0x10a>
    d322:	0405                	addi	s0,s0,1
    d324:	ca02                	sw	zero,20(sp)
    d326:	4681                	li	a3,0
    d328:	4781                	li	a5,0
    d32a:	4625                	li	a2,9
    d32c:	2018                	.2byte	0x2018
    d32e:	00140593          	addi	a1,s0,1
    d332:	fd070713          	addi	a4,a4,-48
    d336:	06e67263          	bgeu	a2,a4,d39a <_svfiprintf_r+0x1fe>
    d33a:	f6e9                	bnez	a3,d304 <_svfiprintf_r+0x168>
    d33c:	200c                	.2byte	0x200c
    d33e:	460d                	li	a2,3
    d340:	00001517          	auipc	a0,0x1
    d344:	a0450513          	addi	a0,a0,-1532 # dd44 <USBD_BinaryObjectStoreDescriptor+0xb8>
    d348:	2915                	jal	d77c <memchr>
    d34a:	cd11                	beqz	a0,d366 <_svfiprintf_r+0x1ca>
    d34c:	00001797          	auipc	a5,0x1
    d350:	9f878793          	addi	a5,a5,-1544 # dd44 <USBD_BinaryObjectStoreDescriptor+0xb8>
    d354:	8d1d                	sub	a0,a0,a5
    d356:	47c2                	lw	a5,16(sp)
    d358:	04000713          	li	a4,64
    d35c:	00a71733          	sll	a4,a4,a0
    d360:	8fd9                	or	a5,a5,a4
    d362:	0405                	addi	s0,s0,1
    d364:	c83e                	sw	a5,16(sp)
    d366:	200c                	.2byte	0x200c
    d368:	4619                	li	a2,6
    d36a:	00001517          	auipc	a0,0x1
    d36e:	9de50513          	addi	a0,a0,-1570 # dd48 <USBD_BinaryObjectStoreDescriptor+0xbc>
    d372:	00140493          	addi	s1,s0,1
    d376:	02b10423          	sb	a1,40(sp)
    d37a:	2109                	jal	d77c <memchr>
    d37c:	c12d                	beqz	a0,d3de <_svfiprintf_r+0x242>
    d37e:	00000793          	li	a5,0
    d382:	e795                	bnez	a5,d3ae <_svfiprintf_r+0x212>
    d384:	4742                	lw	a4,16(sp)
    d386:	47b2                	lw	a5,12(sp)
    d388:	10077713          	andi	a4,a4,256
    d38c:	cf09                	beqz	a4,d3a6 <_svfiprintf_r+0x20a>
    d38e:	0791                	addi	a5,a5,4
    d390:	c63e                	sw	a5,12(sp)
    d392:	5792                	lw	a5,36(sp)
    d394:	97ce                	add	a5,a5,s3
    d396:	d23e                	sw	a5,36(sp)
    d398:	b579                	j	d226 <_svfiprintf_r+0x8a>
    d39a:	036787b3          	mul	a5,a5,s6
    d39e:	842e                	mv	s0,a1
    d3a0:	4685                	li	a3,1
    d3a2:	97ba                	add	a5,a5,a4
    d3a4:	b761                	j	d32c <_svfiprintf_r+0x190>
    d3a6:	079d                	addi	a5,a5,7
    d3a8:	9be1                	andi	a5,a5,-8
    d3aa:	07a1                	addi	a5,a5,8
    d3ac:	b7d5                	j	d390 <_svfiprintf_r+0x1f4>
    d3ae:	0078                	addi	a4,sp,12
    d3b0:	00000697          	auipc	a3,0x0
    d3b4:	d0c68693          	addi	a3,a3,-756 # d0bc <__ssputs_r>
    d3b8:	864a                	mv	a2,s2
    d3ba:	080c                	addi	a1,sp,16
    d3bc:	8552                	mv	a0,s4
    d3be:	00000097          	auipc	ra,0x0
    d3c2:	000000e7          	jalr	zero # 0 <_sinit>
    d3c6:	57fd                	li	a5,-1
    d3c8:	89aa                	mv	s3,a0
    d3ca:	fcf514e3          	bne	a0,a5,d392 <_svfiprintf_r+0x1f6>
    d3ce:	00c95783          	lhu	a5,12(s2)
    d3d2:	0407f793          	andi	a5,a5,64
    d3d6:	e00794e3          	bnez	a5,d1de <_svfiprintf_r+0x42>
    d3da:	5512                	lw	a0,36(sp)
    d3dc:	b511                	j	d1e0 <_svfiprintf_r+0x44>
    d3de:	0078                	addi	a4,sp,12
    d3e0:	00000697          	auipc	a3,0x0
    d3e4:	cdc68693          	addi	a3,a3,-804 # d0bc <__ssputs_r>
    d3e8:	864a                	mv	a2,s2
    d3ea:	080c                	addi	a1,sp,16
    d3ec:	8552                	mv	a0,s4
    d3ee:	2a11                	jal	d502 <_printf_i>
    d3f0:	bfd9                	j	d3c6 <_svfiprintf_r+0x22a>

0000d3f2 <_printf_common>:
    d3f2:	7179                	addi	sp,sp,-48
    d3f4:	ca56                	sw	s5,20(sp)
    d3f6:	499c                	lw	a5,16(a1)
    d3f8:	8aba                	mv	s5,a4
    d3fa:	4598                	lw	a4,8(a1)
    d3fc:	d422                	sw	s0,40(sp)
    d3fe:	d04a                	sw	s2,32(sp)
    d400:	ce4e                	sw	s3,28(sp)
    d402:	cc52                	sw	s4,24(sp)
    d404:	d606                	sw	ra,44(sp)
    d406:	d226                	sw	s1,36(sp)
    d408:	c85a                	sw	s6,16(sp)
    d40a:	c65e                	sw	s7,12(sp)
    d40c:	89aa                	mv	s3,a0
    d40e:	842e                	mv	s0,a1
    d410:	8932                	mv	s2,a2
    d412:	8a36                	mv	s4,a3
    d414:	00e7d363          	bge	a5,a4,d41a <_printf_common+0x28>
    d418:	87ba                	mv	a5,a4
    d41a:	00f92023          	sw	a5,0(s2)
    d41e:	04344703          	lbu	a4,67(s0)
    d422:	c701                	beqz	a4,d42a <_printf_common+0x38>
    d424:	0785                	addi	a5,a5,1
    d426:	00f92023          	sw	a5,0(s2)
    d42a:	401c                	lw	a5,0(s0)
    d42c:	0207f793          	andi	a5,a5,32
    d430:	c791                	beqz	a5,d43c <_printf_common+0x4a>
    d432:	00092783          	lw	a5,0(s2)
    d436:	0789                	addi	a5,a5,2
    d438:	00f92023          	sw	a5,0(s2)
    d43c:	4004                	lw	s1,0(s0)
    d43e:	8899                	andi	s1,s1,6
    d440:	e891                	bnez	s1,d454 <_printf_common+0x62>
    d442:	01940b13          	addi	s6,s0,25
    d446:	5bfd                	li	s7,-1
    d448:	445c                	lw	a5,12(s0)
    d44a:	00092703          	lw	a4,0(s2)
    d44e:	8f99                	sub	a5,a5,a4
    d450:	04f4cc63          	blt	s1,a5,d4a8 <_printf_common+0xb6>
    d454:	04344783          	lbu	a5,67(s0)
    d458:	00f036b3          	snez	a3,a5
    d45c:	401c                	lw	a5,0(s0)
    d45e:	0207f793          	andi	a5,a5,32
    d462:	eba5                	bnez	a5,d4d2 <_printf_common+0xe0>
    d464:	04340613          	addi	a2,s0,67
    d468:	85d2                	mv	a1,s4
    d46a:	854e                	mv	a0,s3
    d46c:	9a82                	jalr	s5
    d46e:	57fd                	li	a5,-1
    d470:	04f50363          	beq	a0,a5,d4b6 <_printf_common+0xc4>
    d474:	401c                	lw	a5,0(s0)
    d476:	4711                	li	a4,4
    d478:	4481                	li	s1,0
    d47a:	8b99                	andi	a5,a5,6
    d47c:	00e79963          	bne	a5,a4,d48e <_printf_common+0x9c>
    d480:	4444                	lw	s1,12(s0)
    d482:	00092783          	lw	a5,0(s2)
    d486:	8c9d                	sub	s1,s1,a5
    d488:	0004d363          	bgez	s1,d48e <_printf_common+0x9c>
    d48c:	4481                	li	s1,0
    d48e:	441c                	lw	a5,8(s0)
    d490:	4818                	lw	a4,16(s0)
    d492:	00f75463          	bge	a4,a5,d49a <_printf_common+0xa8>
    d496:	8f99                	sub	a5,a5,a4
    d498:	94be                	add	s1,s1,a5
    d49a:	4901                	li	s2,0
    d49c:	0469                	addi	s0,s0,26
    d49e:	5b7d                	li	s6,-1
    d4a0:	05249863          	bne	s1,s2,d4f0 <_printf_common+0xfe>
    d4a4:	4501                	li	a0,0
    d4a6:	a809                	j	d4b8 <_printf_common+0xc6>
    d4a8:	4685                	li	a3,1
    d4aa:	865a                	mv	a2,s6
    d4ac:	85d2                	mv	a1,s4
    d4ae:	854e                	mv	a0,s3
    d4b0:	9a82                	jalr	s5
    d4b2:	01751e63          	bne	a0,s7,d4ce <_printf_common+0xdc>
    d4b6:	557d                	li	a0,-1
    d4b8:	50b2                	lw	ra,44(sp)
    d4ba:	5422                	lw	s0,40(sp)
    d4bc:	5492                	lw	s1,36(sp)
    d4be:	5902                	lw	s2,32(sp)
    d4c0:	49f2                	lw	s3,28(sp)
    d4c2:	4a62                	lw	s4,24(sp)
    d4c4:	4ad2                	lw	s5,20(sp)
    d4c6:	4b42                	lw	s6,16(sp)
    d4c8:	4bb2                	lw	s7,12(sp)
    d4ca:	6145                	addi	sp,sp,48
    d4cc:	8082                	ret
    d4ce:	0485                	addi	s1,s1,1
    d4d0:	bfa5                	j	d448 <_printf_common+0x56>
    d4d2:	00d40733          	add	a4,s0,a3
    d4d6:	03000613          	li	a2,48
    d4da:	04c701a3          	sb	a2,67(a4)
    d4de:	04544703          	lbu	a4,69(s0)
    d4e2:	00168793          	addi	a5,a3,1
    d4e6:	97a2                	add	a5,a5,s0
    d4e8:	0689                	addi	a3,a3,2
    d4ea:	04e781a3          	sb	a4,67(a5)
    d4ee:	bf9d                	j	d464 <_printf_common+0x72>
    d4f0:	4685                	li	a3,1
    d4f2:	8622                	mv	a2,s0
    d4f4:	85d2                	mv	a1,s4
    d4f6:	854e                	mv	a0,s3
    d4f8:	9a82                	jalr	s5
    d4fa:	fb650ee3          	beq	a0,s6,d4b6 <_printf_common+0xc4>
    d4fe:	0905                	addi	s2,s2,1
    d500:	b745                	j	d4a0 <_printf_common+0xae>

0000d502 <_printf_i>:
    d502:	7179                	addi	sp,sp,-48
    d504:	d422                	sw	s0,40(sp)
    d506:	d04a                	sw	s2,32(sp)
    d508:	ce4e                	sw	s3,28(sp)
    d50a:	cc52                	sw	s4,24(sp)
    d50c:	d606                	sw	ra,44(sp)
    d50e:	d226                	sw	s1,36(sp)
    d510:	ca56                	sw	s5,20(sp)
    d512:	c85a                	sw	s6,16(sp)
    d514:	0185c803          	lbu	a6,24(a1)
    d518:	07800793          	li	a5,120
    d51c:	892a                	mv	s2,a0
    d51e:	842e                	mv	s0,a1
    d520:	89b2                	mv	s3,a2
    d522:	8a36                	mv	s4,a3
    d524:	0307e263          	bltu	a5,a6,d548 <_printf_i+0x46>
    d528:	06200793          	li	a5,98
    d52c:	04358693          	addi	a3,a1,67
    d530:	0307e163          	bltu	a5,a6,d552 <_printf_i+0x50>
    d534:	1c080c63          	beqz	a6,d70c <_printf_i+0x20a>
    d538:	05800793          	li	a5,88
    d53c:	00001617          	auipc	a2,0x1
    d540:	81460613          	addi	a2,a2,-2028 # dd50 <USBD_BinaryObjectStoreDescriptor+0xc4>
    d544:	14f80863          	beq	a6,a5,d694 <_printf_i+0x192>
    d548:	04240493          	addi	s1,s0,66
    d54c:	05040123          	sb	a6,66(s0)
    d550:	a815                	j	d584 <_printf_i+0x82>
    d552:	f9d80793          	addi	a5,a6,-99
    d556:	0ff7f793          	zext.b	a5,a5
    d55a:	4655                	li	a2,21
    d55c:	fef666e3          	bltu	a2,a5,d548 <_printf_i+0x46>
    d560:	00001617          	auipc	a2,0x1
    d564:	81860613          	addi	a2,a2,-2024 # dd78 <USBD_BinaryObjectStoreDescriptor+0xec>
    d568:	078a                	slli	a5,a5,0x2
    d56a:	97b2                	add	a5,a5,a2
    d56c:	439c                	lw	a5,0(a5)
    d56e:	97b2                	add	a5,a5,a2
    d570:	8782                	jr	a5
    d572:	431c                	lw	a5,0(a4)
    d574:	04258493          	addi	s1,a1,66
    d578:	00478693          	addi	a3,a5,4
    d57c:	439c                	lw	a5,0(a5)
    d57e:	c314                	sw	a3,0(a4)
    d580:	04f58123          	sb	a5,66(a1)
    d584:	4785                	li	a5,1
    d586:	a265                	j	d72e <_printf_i+0x22c>
    d588:	4190                	lw	a2,0(a1)
    d58a:	431c                	lw	a5,0(a4)
    d58c:	08067513          	andi	a0,a2,128
    d590:	00478593          	addi	a1,a5,4
    d594:	c129                	beqz	a0,d5d6 <_printf_i+0xd4>
    d596:	439c                	lw	a5,0(a5)
    d598:	c30c                	sw	a1,0(a4)
    d59a:	4058                	lw	a4,4(s0)
    d59c:	1207df63          	bgez	a5,d6da <_printf_i+0x1d8>
    d5a0:	02d00593          	li	a1,45
    d5a4:	04b401a3          	sb	a1,67(s0)
    d5a8:	c418                	sw	a4,8(s0)
    d5aa:	02075e63          	bgez	a4,d5e6 <_printf_i+0xe4>
    d5ae:	40f007b3          	neg	a5,a5
    d5b2:	00000617          	auipc	a2,0x0
    d5b6:	79e60613          	addi	a2,a2,1950 # dd50 <USBD_BinaryObjectStoreDescriptor+0xc4>
    d5ba:	4829                	li	a6,10
    d5bc:	84b6                	mv	s1,a3
    d5be:	0307f733          	remu	a4,a5,a6
    d5c2:	14fd                	addi	s1,s1,-1
    d5c4:	9732                	add	a4,a4,a2
    d5c6:	2318                	.2byte	0x2318
    d5c8:	a098                	.2byte	0xa098
    d5ca:	873e                	mv	a4,a5
    d5cc:	0307d7b3          	divu	a5,a5,a6
    d5d0:	ff0777e3          	bgeu	a4,a6,d5be <_printf_i+0xbc>
    d5d4:	a085                	j	d634 <_printf_i+0x132>
    d5d6:	439c                	lw	a5,0(a5)
    d5d8:	04067513          	andi	a0,a2,64
    d5dc:	c30c                	sw	a1,0(a4)
    d5de:	dd55                	beqz	a0,d59a <_printf_i+0x98>
    d5e0:	07c2                	slli	a5,a5,0x10
    d5e2:	87c1                	srai	a5,a5,0x10
    d5e4:	bf5d                	j	d59a <_printf_i+0x98>
    d5e6:	9a6d                	andi	a2,a2,-5
    d5e8:	c010                	sw	a2,0(s0)
    d5ea:	b7d1                	j	d5ae <_printf_i+0xac>
    d5ec:	4190                	lw	a2,0(a1)
    d5ee:	431c                	lw	a5,0(a4)
    d5f0:	08067513          	andi	a0,a2,128
    d5f4:	00478593          	addi	a1,a5,4
    d5f8:	c501                	beqz	a0,d600 <_printf_i+0xfe>
    d5fa:	c30c                	sw	a1,0(a4)
    d5fc:	439c                	lw	a5,0(a5)
    d5fe:	a031                	j	d60a <_printf_i+0x108>
    d600:	04067613          	andi	a2,a2,64
    d604:	c30c                	sw	a1,0(a4)
    d606:	da7d                	beqz	a2,d5fc <_printf_i+0xfa>
    d608:	239e                	.2byte	0x239e
    d60a:	06f00713          	li	a4,111
    d60e:	00000617          	auipc	a2,0x0
    d612:	74260613          	addi	a2,a2,1858 # dd50 <USBD_BinaryObjectStoreDescriptor+0xc4>
    d616:	0ce81063          	bne	a6,a4,d6d6 <_printf_i+0x1d4>
    d61a:	4821                	li	a6,8
    d61c:	040401a3          	sb	zero,67(s0)
    d620:	4058                	lw	a4,4(s0)
    d622:	c418                	sw	a4,8(s0)
    d624:	f8074ce3          	bltz	a4,d5bc <_printf_i+0xba>
    d628:	400c                	lw	a1,0(s0)
    d62a:	99ed                	andi	a1,a1,-5
    d62c:	c00c                	sw	a1,0(s0)
    d62e:	f7d9                	bnez	a5,d5bc <_printf_i+0xba>
    d630:	84b6                	mv	s1,a3
    d632:	f749                	bnez	a4,d5bc <_printf_i+0xba>
    d634:	47a1                	li	a5,8
    d636:	00f81e63          	bne	a6,a5,d652 <_printf_i+0x150>
    d63a:	401c                	lw	a5,0(s0)
    d63c:	8b85                	andi	a5,a5,1
    d63e:	cb91                	beqz	a5,d652 <_printf_i+0x150>
    d640:	4058                	lw	a4,4(s0)
    d642:	481c                	lw	a5,16(s0)
    d644:	00e7c763          	blt	a5,a4,d652 <_printf_i+0x150>
    d648:	03000793          	li	a5,48
    d64c:	fef48fa3          	sb	a5,-1(s1)
    d650:	14fd                	addi	s1,s1,-1
    d652:	8e85                	sub	a3,a3,s1
    d654:	c814                	sw	a3,16(s0)
    d656:	8752                	mv	a4,s4
    d658:	86ce                	mv	a3,s3
    d65a:	0070                	addi	a2,sp,12
    d65c:	85a2                	mv	a1,s0
    d65e:	854a                	mv	a0,s2
    d660:	d93ff0ef          	jal	ra,d3f2 <_printf_common>
    d664:	5afd                	li	s5,-1
    d666:	0d551863          	bne	a0,s5,d736 <_printf_i+0x234>
    d66a:	557d                	li	a0,-1
    d66c:	50b2                	lw	ra,44(sp)
    d66e:	5422                	lw	s0,40(sp)
    d670:	5492                	lw	s1,36(sp)
    d672:	5902                	lw	s2,32(sp)
    d674:	49f2                	lw	s3,28(sp)
    d676:	4a62                	lw	s4,24(sp)
    d678:	4ad2                	lw	s5,20(sp)
    d67a:	4b42                	lw	s6,16(sp)
    d67c:	6145                	addi	sp,sp,48
    d67e:	8082                	ret
    d680:	419c                	lw	a5,0(a1)
    d682:	0207e793          	ori	a5,a5,32
    d686:	c19c                	sw	a5,0(a1)
    d688:	07800813          	li	a6,120
    d68c:	00000617          	auipc	a2,0x0
    d690:	6d860613          	addi	a2,a2,1752 # dd64 <USBD_BinaryObjectStoreDescriptor+0xd8>
    d694:	050402a3          	sb	a6,69(s0)
    d698:	400c                	lw	a1,0(s0)
    d69a:	431c                	lw	a5,0(a4)
    d69c:	0805f813          	andi	a6,a1,128
    d6a0:	00478513          	addi	a0,a5,4
    d6a4:	00080563          	beqz	a6,d6ae <_printf_i+0x1ac>
    d6a8:	c308                	sw	a0,0(a4)
    d6aa:	439c                	lw	a5,0(a5)
    d6ac:	a039                	j	d6ba <_printf_i+0x1b8>
    d6ae:	0405f813          	andi	a6,a1,64
    d6b2:	c308                	sw	a0,0(a4)
    d6b4:	fe080be3          	beqz	a6,d6aa <_printf_i+0x1a8>
    d6b8:	239e                	.2byte	0x239e
    d6ba:	0015f713          	andi	a4,a1,1
    d6be:	c701                	beqz	a4,d6c6 <_printf_i+0x1c4>
    d6c0:	0205e593          	ori	a1,a1,32
    d6c4:	c00c                	sw	a1,0(s0)
    d6c6:	c399                	beqz	a5,d6cc <_printf_i+0x1ca>
    d6c8:	4841                	li	a6,16
    d6ca:	bf89                	j	d61c <_printf_i+0x11a>
    d6cc:	4018                	lw	a4,0(s0)
    d6ce:	fdf77713          	andi	a4,a4,-33
    d6d2:	c018                	sw	a4,0(s0)
    d6d4:	bfd5                	j	d6c8 <_printf_i+0x1c6>
    d6d6:	4829                	li	a6,10
    d6d8:	b791                	j	d61c <_printf_i+0x11a>
    d6da:	00000617          	auipc	a2,0x0
    d6de:	67660613          	addi	a2,a2,1654 # dd50 <USBD_BinaryObjectStoreDescriptor+0xc4>
    d6e2:	4829                	li	a6,10
    d6e4:	bf35                	j	d620 <_printf_i+0x11e>
    d6e6:	4190                	lw	a2,0(a1)
    d6e8:	431c                	lw	a5,0(a4)
    d6ea:	49cc                	lw	a1,20(a1)
    d6ec:	08067813          	andi	a6,a2,128
    d6f0:	00478513          	addi	a0,a5,4
    d6f4:	00080663          	beqz	a6,d700 <_printf_i+0x1fe>
    d6f8:	c308                	sw	a0,0(a4)
    d6fa:	439c                	lw	a5,0(a5)
    d6fc:	c38c                	sw	a1,0(a5)
    d6fe:	a039                	j	d70c <_printf_i+0x20a>
    d700:	c308                	sw	a0,0(a4)
    d702:	04067613          	andi	a2,a2,64
    d706:	439c                	lw	a5,0(a5)
    d708:	da75                	beqz	a2,d6fc <_printf_i+0x1fa>
    d70a:	a38e                	.2byte	0xa38e
    d70c:	00042823          	sw	zero,16(s0)
    d710:	84b6                	mv	s1,a3
    d712:	b791                	j	d656 <_printf_i+0x154>
    d714:	431c                	lw	a5,0(a4)
    d716:	41d0                	lw	a2,4(a1)
    d718:	4581                	li	a1,0
    d71a:	00478693          	addi	a3,a5,4
    d71e:	c314                	sw	a3,0(a4)
    d720:	4384                	lw	s1,0(a5)
    d722:	8526                	mv	a0,s1
    d724:	28a1                	jal	d77c <memchr>
    d726:	c119                	beqz	a0,d72c <_printf_i+0x22a>
    d728:	8d05                	sub	a0,a0,s1
    d72a:	c048                	sw	a0,4(s0)
    d72c:	405c                	lw	a5,4(s0)
    d72e:	c81c                	sw	a5,16(s0)
    d730:	040401a3          	sb	zero,67(s0)
    d734:	b70d                	j	d656 <_printf_i+0x154>
    d736:	4814                	lw	a3,16(s0)
    d738:	8626                	mv	a2,s1
    d73a:	85ce                	mv	a1,s3
    d73c:	854a                	mv	a0,s2
    d73e:	9a02                	jalr	s4
    d740:	f35505e3          	beq	a0,s5,d66a <_printf_i+0x168>
    d744:	401c                	lw	a5,0(s0)
    d746:	8b89                	andi	a5,a5,2
    d748:	e78d                	bnez	a5,d772 <_printf_i+0x270>
    d74a:	47b2                	lw	a5,12(sp)
    d74c:	4448                	lw	a0,12(s0)
    d74e:	f0f55fe3          	bge	a0,a5,d66c <_printf_i+0x16a>
    d752:	853e                	mv	a0,a5
    d754:	bf21                	j	d66c <_printf_i+0x16a>
    d756:	4685                	li	a3,1
    d758:	8656                	mv	a2,s5
    d75a:	85ce                	mv	a1,s3
    d75c:	854a                	mv	a0,s2
    d75e:	9a02                	jalr	s4
    d760:	f16505e3          	beq	a0,s6,d66a <_printf_i+0x168>
    d764:	0485                	addi	s1,s1,1
    d766:	445c                	lw	a5,12(s0)
    d768:	4732                	lw	a4,12(sp)
    d76a:	8f99                	sub	a5,a5,a4
    d76c:	fef4c5e3          	blt	s1,a5,d756 <_printf_i+0x254>
    d770:	bfe9                	j	d74a <_printf_i+0x248>
    d772:	4481                	li	s1,0
    d774:	01940a93          	addi	s5,s0,25
    d778:	5b7d                	li	s6,-1
    d77a:	b7f5                	j	d766 <_printf_i+0x264>

0000d77c <memchr>:
    d77c:	0ff5f593          	zext.b	a1,a1
    d780:	962a                	add	a2,a2,a0
    d782:	00c51463          	bne	a0,a2,d78a <memchr+0xe>
    d786:	4501                	li	a0,0
    d788:	8082                	ret
    d78a:	211c                	.2byte	0x211c
    d78c:	feb78ee3          	beq	a5,a1,d788 <memchr+0xc>
    d790:	0505                	addi	a0,a0,1
    d792:	bfc5                	j	d782 <memchr+0x6>

0000d794 <_free_r>:
    d794:	c1c5                	beqz	a1,d834 <_free_r+0xa0>
    d796:	ffc5a783          	lw	a5,-4(a1)
    d79a:	1101                	addi	sp,sp,-32
    d79c:	cc22                	sw	s0,24(sp)
    d79e:	ce06                	sw	ra,28(sp)
    d7a0:	ffc58413          	addi	s0,a1,-4
    d7a4:	0007d363          	bgez	a5,d7aa <_free_r+0x16>
    d7a8:	943e                	add	s0,s0,a5
    d7aa:	c62a                	sw	a0,12(sp)
    d7ac:	2c59                	jal	da42 <__malloc_lock>
    d7ae:	1fff9717          	auipc	a4,0x1fff9
    d7b2:	e3e70713          	addi	a4,a4,-450 # 200065ec <__malloc_free_list>
    d7b6:	431c                	lw	a5,0(a4)
    d7b8:	4532                	lw	a0,12(sp)
    d7ba:	eb81                	bnez	a5,d7ca <_free_r+0x36>
    d7bc:	00042223          	sw	zero,4(s0)
    d7c0:	c300                	sw	s0,0(a4)
    d7c2:	4462                	lw	s0,24(sp)
    d7c4:	40f2                	lw	ra,28(sp)
    d7c6:	6105                	addi	sp,sp,32
    d7c8:	a451                	j	da4c <__malloc_unlock>
    d7ca:	00f47d63          	bgeu	s0,a5,d7e4 <_free_r+0x50>
    d7ce:	4010                	lw	a2,0(s0)
    d7d0:	00c406b3          	add	a3,s0,a2
    d7d4:	00d79663          	bne	a5,a3,d7e0 <_free_r+0x4c>
    d7d8:	4394                	lw	a3,0(a5)
    d7da:	43dc                	lw	a5,4(a5)
    d7dc:	96b2                	add	a3,a3,a2
    d7de:	c014                	sw	a3,0(s0)
    d7e0:	c05c                	sw	a5,4(s0)
    d7e2:	bff9                	j	d7c0 <_free_r+0x2c>
    d7e4:	873e                	mv	a4,a5
    d7e6:	43dc                	lw	a5,4(a5)
    d7e8:	c399                	beqz	a5,d7ee <_free_r+0x5a>
    d7ea:	fef47de3          	bgeu	s0,a5,d7e4 <_free_r+0x50>
    d7ee:	4314                	lw	a3,0(a4)
    d7f0:	00d70633          	add	a2,a4,a3
    d7f4:	00861f63          	bne	a2,s0,d812 <_free_r+0x7e>
    d7f8:	4010                	lw	a2,0(s0)
    d7fa:	96b2                	add	a3,a3,a2
    d7fc:	c314                	sw	a3,0(a4)
    d7fe:	00d70633          	add	a2,a4,a3
    d802:	fcc790e3          	bne	a5,a2,d7c2 <_free_r+0x2e>
    d806:	4390                	lw	a2,0(a5)
    d808:	43dc                	lw	a5,4(a5)
    d80a:	96b2                	add	a3,a3,a2
    d80c:	c314                	sw	a3,0(a4)
    d80e:	c35c                	sw	a5,4(a4)
    d810:	bf4d                	j	d7c2 <_free_r+0x2e>
    d812:	00c47563          	bgeu	s0,a2,d81c <_free_r+0x88>
    d816:	47b1                	li	a5,12
    d818:	c11c                	sw	a5,0(a0)
    d81a:	b765                	j	d7c2 <_free_r+0x2e>
    d81c:	4010                	lw	a2,0(s0)
    d81e:	00c406b3          	add	a3,s0,a2
    d822:	00d79663          	bne	a5,a3,d82e <_free_r+0x9a>
    d826:	4394                	lw	a3,0(a5)
    d828:	43dc                	lw	a5,4(a5)
    d82a:	96b2                	add	a3,a3,a2
    d82c:	c014                	sw	a3,0(s0)
    d82e:	c05c                	sw	a5,4(s0)
    d830:	c340                	sw	s0,4(a4)
    d832:	bf41                	j	d7c2 <_free_r+0x2e>
    d834:	8082                	ret

0000d836 <sbrk_aligned>:
    d836:	1141                	addi	sp,sp,-16
    d838:	c04a                	sw	s2,0(sp)
    d83a:	1fff9917          	auipc	s2,0x1fff9
    d83e:	dae90913          	addi	s2,s2,-594 # 200065e8 <__malloc_sbrk_start>
    d842:	00092783          	lw	a5,0(s2)
    d846:	c422                	sw	s0,8(sp)
    d848:	c226                	sw	s1,4(sp)
    d84a:	c606                	sw	ra,12(sp)
    d84c:	84aa                	mv	s1,a0
    d84e:	842e                	mv	s0,a1
    d850:	e789                	bnez	a5,d85a <sbrk_aligned+0x24>
    d852:	4581                	li	a1,0
    d854:	2a7d                	jal	da12 <_sbrk_r>
    d856:	00a92023          	sw	a0,0(s2)
    d85a:	85a2                	mv	a1,s0
    d85c:	8526                	mv	a0,s1
    d85e:	2a55                	jal	da12 <_sbrk_r>
    d860:	597d                	li	s2,-1
    d862:	01251a63          	bne	a0,s2,d876 <sbrk_aligned+0x40>
    d866:	547d                	li	s0,-1
    d868:	40b2                	lw	ra,12(sp)
    d86a:	8522                	mv	a0,s0
    d86c:	4422                	lw	s0,8(sp)
    d86e:	4492                	lw	s1,4(sp)
    d870:	4902                	lw	s2,0(sp)
    d872:	0141                	addi	sp,sp,16
    d874:	8082                	ret
    d876:	00350413          	addi	s0,a0,3
    d87a:	9871                	andi	s0,s0,-4
    d87c:	fe8506e3          	beq	a0,s0,d868 <sbrk_aligned+0x32>
    d880:	40a405b3          	sub	a1,s0,a0
    d884:	8526                	mv	a0,s1
    d886:	2271                	jal	da12 <_sbrk_r>
    d888:	ff2510e3          	bne	a0,s2,d868 <sbrk_aligned+0x32>
    d88c:	bfe9                	j	d866 <sbrk_aligned+0x30>

0000d88e <_malloc_r>:
    d88e:	1101                	addi	sp,sp,-32
    d890:	ca26                	sw	s1,20(sp)
    d892:	00358493          	addi	s1,a1,3
    d896:	98f1                	andi	s1,s1,-4
    d898:	c84a                	sw	s2,16(sp)
    d89a:	ce06                	sw	ra,28(sp)
    d89c:	cc22                	sw	s0,24(sp)
    d89e:	c64e                	sw	s3,12(sp)
    d8a0:	04a1                	addi	s1,s1,8
    d8a2:	47b1                	li	a5,12
    d8a4:	892a                	mv	s2,a0
    d8a6:	06f4f563          	bgeu	s1,a5,d910 <_malloc_r+0x82>
    d8aa:	44b1                	li	s1,12
    d8ac:	06b4e463          	bltu	s1,a1,d914 <_malloc_r+0x86>
    d8b0:	854a                	mv	a0,s2
    d8b2:	2a41                	jal	da42 <__malloc_lock>
    d8b4:	1fff9997          	auipc	s3,0x1fff9
    d8b8:	d3898993          	addi	s3,s3,-712 # 200065ec <__malloc_free_list>
    d8bc:	0009a783          	lw	a5,0(s3)
    d8c0:	843e                	mv	s0,a5
    d8c2:	e425                	bnez	s0,d92a <_malloc_r+0x9c>
    d8c4:	85a6                	mv	a1,s1
    d8c6:	854a                	mv	a0,s2
    d8c8:	37bd                	jal	d836 <sbrk_aligned>
    d8ca:	57fd                	li	a5,-1
    d8cc:	842a                	mv	s0,a0
    d8ce:	0cf51463          	bne	a0,a5,d996 <_malloc_r+0x108>
    d8d2:	0009a403          	lw	s0,0(s3)
    d8d6:	87a2                	mv	a5,s0
    d8d8:	e7d5                	bnez	a5,d984 <_malloc_r+0xf6>
    d8da:	00042983          	lw	s3,0(s0)
    d8de:	4581                	li	a1,0
    d8e0:	854a                	mv	a0,s2
    d8e2:	99a2                	add	s3,s3,s0
    d8e4:	223d                	jal	da12 <_sbrk_r>
    d8e6:	0aa99263          	bne	s3,a0,d98a <_malloc_r+0xfc>
    d8ea:	401c                	lw	a5,0(s0)
    d8ec:	048d                	addi	s1,s1,3
    d8ee:	8c9d                	sub	s1,s1,a5
    d8f0:	98f1                	andi	s1,s1,-4
    d8f2:	04a1                	addi	s1,s1,8
    d8f4:	47b1                	li	a5,12
    d8f6:	00f4f363          	bgeu	s1,a5,d8fc <_malloc_r+0x6e>
    d8fa:	44b1                	li	s1,12
    d8fc:	85a6                	mv	a1,s1
    d8fe:	854a                	mv	a0,s2
    d900:	3f1d                	jal	d836 <sbrk_aligned>
    d902:	57fd                	li	a5,-1
    d904:	08f50363          	beq	a0,a5,d98a <_malloc_r+0xfc>
    d908:	401c                	lw	a5,0(s0)
    d90a:	97a6                	add	a5,a5,s1
    d90c:	c01c                	sw	a5,0(s0)
    d90e:	a83d                	j	d94c <_malloc_r+0xbe>
    d910:	f804dee3          	bgez	s1,d8ac <_malloc_r+0x1e>
    d914:	47b1                	li	a5,12
    d916:	00f92023          	sw	a5,0(s2)
    d91a:	4501                	li	a0,0
    d91c:	40f2                	lw	ra,28(sp)
    d91e:	4462                	lw	s0,24(sp)
    d920:	44d2                	lw	s1,20(sp)
    d922:	4942                	lw	s2,16(sp)
    d924:	49b2                	lw	s3,12(sp)
    d926:	6105                	addi	sp,sp,32
    d928:	8082                	ret
    d92a:	4014                	lw	a3,0(s0)
    d92c:	8e85                	sub	a3,a3,s1
    d92e:	0406c863          	bltz	a3,d97e <_malloc_r+0xf0>
    d932:	472d                	li	a4,11
    d934:	02d77d63          	bgeu	a4,a3,d96e <_malloc_r+0xe0>
    d938:	c004                	sw	s1,0(s0)
    d93a:	00940733          	add	a4,s0,s1
    d93e:	02879663          	bne	a5,s0,d96a <_malloc_r+0xdc>
    d942:	00e9a023          	sw	a4,0(s3)
    d946:	405c                	lw	a5,4(s0)
    d948:	c314                	sw	a3,0(a4)
    d94a:	c35c                	sw	a5,4(a4)
    d94c:	854a                	mv	a0,s2
    d94e:	28fd                	jal	da4c <__malloc_unlock>
    d950:	00b40513          	addi	a0,s0,11
    d954:	00440793          	addi	a5,s0,4
    d958:	9961                	andi	a0,a0,-8
    d95a:	40f50733          	sub	a4,a0,a5
    d95e:	faf50fe3          	beq	a0,a5,d91c <_malloc_r+0x8e>
    d962:	943a                	add	s0,s0,a4
    d964:	8f89                	sub	a5,a5,a0
    d966:	c01c                	sw	a5,0(s0)
    d968:	bf55                	j	d91c <_malloc_r+0x8e>
    d96a:	c3d8                	sw	a4,4(a5)
    d96c:	bfe9                	j	d946 <_malloc_r+0xb8>
    d96e:	4058                	lw	a4,4(s0)
    d970:	00879563          	bne	a5,s0,d97a <_malloc_r+0xec>
    d974:	00e9a023          	sw	a4,0(s3)
    d978:	bfd1                	j	d94c <_malloc_r+0xbe>
    d97a:	c3d8                	sw	a4,4(a5)
    d97c:	bfc1                	j	d94c <_malloc_r+0xbe>
    d97e:	87a2                	mv	a5,s0
    d980:	4040                	lw	s0,4(s0)
    d982:	b781                	j	d8c2 <_malloc_r+0x34>
    d984:	843e                	mv	s0,a5
    d986:	43dc                	lw	a5,4(a5)
    d988:	bf81                	j	d8d8 <_malloc_r+0x4a>
    d98a:	47b1                	li	a5,12
    d98c:	00f92023          	sw	a5,0(s2)
    d990:	854a                	mv	a0,s2
    d992:	286d                	jal	da4c <__malloc_unlock>
    d994:	b759                	j	d91a <_malloc_r+0x8c>
    d996:	c104                	sw	s1,0(a0)
    d998:	bf55                	j	d94c <_malloc_r+0xbe>

0000d99a <_realloc_r>:
    d99a:	1101                	addi	sp,sp,-32
    d99c:	cc22                	sw	s0,24(sp)
    d99e:	ce06                	sw	ra,28(sp)
    d9a0:	ca26                	sw	s1,20(sp)
    d9a2:	c84a                	sw	s2,16(sp)
    d9a4:	c64e                	sw	s3,12(sp)
    d9a6:	c452                	sw	s4,8(sp)
    d9a8:	8432                	mv	s0,a2
    d9aa:	e991                	bnez	a1,d9be <_realloc_r+0x24>
    d9ac:	4462                	lw	s0,24(sp)
    d9ae:	40f2                	lw	ra,28(sp)
    d9b0:	44d2                	lw	s1,20(sp)
    d9b2:	4942                	lw	s2,16(sp)
    d9b4:	49b2                	lw	s3,12(sp)
    d9b6:	4a22                	lw	s4,8(sp)
    d9b8:	85b2                	mv	a1,a2
    d9ba:	6105                	addi	sp,sp,32
    d9bc:	bdc9                	j	d88e <_malloc_r>
    d9be:	ee09                	bnez	a2,d9d8 <_realloc_r+0x3e>
    d9c0:	dd5ff0ef          	jal	ra,d794 <_free_r>
    d9c4:	4481                	li	s1,0
    d9c6:	40f2                	lw	ra,28(sp)
    d9c8:	4462                	lw	s0,24(sp)
    d9ca:	4942                	lw	s2,16(sp)
    d9cc:	49b2                	lw	s3,12(sp)
    d9ce:	4a22                	lw	s4,8(sp)
    d9d0:	8526                	mv	a0,s1
    d9d2:	44d2                	lw	s1,20(sp)
    d9d4:	6105                	addi	sp,sp,32
    d9d6:	8082                	ret
    d9d8:	8a2a                	mv	s4,a0
    d9da:	84ae                	mv	s1,a1
    d9dc:	28ad                	jal	da56 <_malloc_usable_size_r>
    d9de:	892a                	mv	s2,a0
    d9e0:	00856663          	bltu	a0,s0,d9ec <_realloc_r+0x52>
    d9e4:	00155793          	srli	a5,a0,0x1
    d9e8:	fc87efe3          	bltu	a5,s0,d9c6 <_realloc_r+0x2c>
    d9ec:	85a2                	mv	a1,s0
    d9ee:	8552                	mv	a0,s4
    d9f0:	3d79                	jal	d88e <_malloc_r>
    d9f2:	89aa                	mv	s3,a0
    d9f4:	d961                	beqz	a0,d9c4 <_realloc_r+0x2a>
    d9f6:	8622                	mv	a2,s0
    d9f8:	00897363          	bgeu	s2,s0,d9fe <_realloc_r+0x64>
    d9fc:	864a                	mv	a2,s2
    d9fe:	85a6                	mv	a1,s1
    da00:	854e                	mv	a0,s3
    da02:	ffef20ef          	jal	ra,200 <memcpy>
    da06:	85a6                	mv	a1,s1
    da08:	8552                	mv	a0,s4
    da0a:	d8bff0ef          	jal	ra,d794 <_free_r>
    da0e:	84ce                	mv	s1,s3
    da10:	bf5d                	j	d9c6 <_realloc_r+0x2c>

0000da12 <_sbrk_r>:
    da12:	1141                	addi	sp,sp,-16
    da14:	c422                	sw	s0,8(sp)
    da16:	842a                	mv	s0,a0
    da18:	852e                	mv	a0,a1
    da1a:	1fff9797          	auipc	a5,0x1fff9
    da1e:	bc07ab23          	sw	zero,-1066(a5) # 200065f0 <errno>
    da22:	c606                	sw	ra,12(sp)
    da24:	a65fd0ef          	jal	ra,b488 <_sbrk>
    da28:	57fd                	li	a5,-1
    da2a:	00f51863          	bne	a0,a5,da3a <_sbrk_r+0x28>
    da2e:	1fff9797          	auipc	a5,0x1fff9
    da32:	bc27a783          	lw	a5,-1086(a5) # 200065f0 <errno>
    da36:	c391                	beqz	a5,da3a <_sbrk_r+0x28>
    da38:	c01c                	sw	a5,0(s0)
    da3a:	40b2                	lw	ra,12(sp)
    da3c:	4422                	lw	s0,8(sp)
    da3e:	0141                	addi	sp,sp,16
    da40:	8082                	ret

0000da42 <__malloc_lock>:
    da42:	1fff9517          	auipc	a0,0x1fff9
    da46:	bb250513          	addi	a0,a0,-1102 # 200065f4 <__lock___malloc_recursive_mutex>
    da4a:	a005                	j	da6a <__retarget_lock_acquire_recursive>

0000da4c <__malloc_unlock>:
    da4c:	1fff9517          	auipc	a0,0x1fff9
    da50:	ba850513          	addi	a0,a0,-1112 # 200065f4 <__lock___malloc_recursive_mutex>
    da54:	a821                	j	da6c <__retarget_lock_release_recursive>

0000da56 <_malloc_usable_size_r>:
    da56:	ffc5a783          	lw	a5,-4(a1)
    da5a:	ffc78513          	addi	a0,a5,-4
    da5e:	0007d563          	bgez	a5,da68 <_malloc_usable_size_r+0x12>
    da62:	95aa                	add	a1,a1,a0
    da64:	419c                	lw	a5,0(a1)
    da66:	953e                	add	a0,a0,a5
    da68:	8082                	ret

0000da6a <__retarget_lock_acquire_recursive>:
    da6a:	8082                	ret

0000da6c <__retarget_lock_release_recursive>:
    da6c:	8082                	ret
    da6e:	0000                	unimp
    da70:	3025                	jal	d298 <_svfiprintf_r+0xfc>
    da72:	5838                	lw	a4,112(s0)
    da74:	0000                	unimp
    da76:	0000                	unimp
    da78:	3025                	jal	d2a0 <_svfiprintf_r+0x104>
    da7a:	5838                	lw	a4,112(s0)
    da7c:	0000                	unimp
    da7e:	0000                	unimp
    da80:	0804                	addi	s1,sp,16
    da82:	0000                	unimp
    da84:	0848                	addi	a0,sp,20
    da86:	0000                	unimp
    da88:	0848                	addi	a0,sp,20
    da8a:	0000                	unimp
    da8c:	0848                	addi	a0,sp,20
    da8e:	0000                	unimp
    da90:	0848                	addi	a0,sp,20
    da92:	0000                	unimp
    da94:	0848                	addi	a0,sp,20
    da96:	0000                	unimp
    da98:	0848                	addi	a0,sp,20
    da9a:	0000                	unimp
    da9c:	0848                	addi	a0,sp,20
    da9e:	0000                	unimp
    daa0:	0848                	addi	a0,sp,20
    daa2:	0000                	unimp
    daa4:	0848                	addi	a0,sp,20
    daa6:	0000                	unimp
    daa8:	0848                	addi	a0,sp,20
    daaa:	0000                	unimp
    daac:	0848                	addi	a0,sp,20
    daae:	0000                	unimp
    dab0:	0848                	addi	a0,sp,20
    dab2:	0000                	unimp
    dab4:	0848                	addi	a0,sp,20
    dab6:	0000                	unimp
    dab8:	0838                	addi	a4,sp,24
    daba:	0000                	unimp
    dabc:	081e                	slli	a6,a6,0x7
    dabe:	0000                	unimp
    dac0:	0848                	addi	a0,sp,20
    dac2:	0000                	unimp
    dac4:	077c                	addi	a5,sp,908
    dac6:	0000                	unimp
    dac8:	078a                	slli	a5,a5,0x2
    daca:	0000                	unimp
    dacc:	0798                	addi	a4,sp,960
    dace:	0000                	unimp
    dad0:	07a6                	slli	a5,a5,0x9
    dad2:	0000                	unimp
    dad4:	07be                	slli	a5,a5,0xf
    dad6:	0000                	unimp
    dad8:	07cc                	addi	a1,sp,964
    dada:	0000                	unimp
    dadc:	07da                	slli	a5,a5,0x16
    dade:	0000                	unimp
    dae0:	07e8                	addi	a0,sp,972
    dae2:	0000                	unimp
    dae4:	07f6                	slli	a5,a5,0x1d
    dae6:	0000                	unimp
    dae8:	2be4                	.2byte	0x2be4
    daea:	0000                	unimp
    daec:	2c1a                	.2byte	0x2c1a
    daee:	0000                	unimp
    daf0:	2c2c                	.2byte	0x2c2c
    daf2:	0000                	unimp
    daf4:	2c3e                	.2byte	0x2c3e
    daf6:	0000                	unimp
    daf8:	2cfc                	.2byte	0x2cfc
    dafa:	0000                	unimp
    dafc:	2d0e                	.2byte	0x2d0e
    dafe:	0000                	unimp
    db00:	2d20                	.2byte	0x2d20
    db02:	0000                	unimp
    db04:	2d40                	.2byte	0x2d40
    db06:	0000                	unimp
    db08:	2d30                	.2byte	0x2d30
    db0a:	0000                	unimp
    db0c:	2c4c                	.2byte	0x2c4c
    db0e:	0000                	unimp
    db10:	2c5e                	.2byte	0x2c5e
    db12:	0000                	unimp
    db14:	2d40                	.2byte	0x2d40
    db16:	0000                	unimp
    db18:	2d40                	.2byte	0x2d40
    db1a:	0000                	unimp
    db1c:	2d40                	.2byte	0x2d40
    db1e:	0000                	unimp
    db20:	2d40                	.2byte	0x2d40
    db22:	0000                	unimp
    db24:	2d40                	.2byte	0x2d40
    db26:	0000                	unimp
    db28:	2c6c                	.2byte	0x2c6c
    db2a:	0000                	unimp
    db2c:	2c7e                	.2byte	0x2c7e
    db2e:	0000                	unimp
    db30:	2c90                	.2byte	0x2c90
    db32:	0000                	unimp
    db34:	2ca2                	.2byte	0x2ca2
    db36:	0000                	unimp
    db38:	2cc6                	.2byte	0x2cc6
    db3a:	0000                	unimp
    db3c:	2cd8                	.2byte	0x2cd8
    db3e:	0000                	unimp
    db40:	2cea                	.2byte	0x2cea
    db42:	0000                	unimp
    db44:	2d40                	.2byte	0x2d40
    db46:	0000                	unimp
    db48:	2d40                	.2byte	0x2d40
    db4a:	0000                	unimp
    db4c:	2d40                	.2byte	0x2d40
    db4e:	0000                	unimp
    db50:	2d40                	.2byte	0x2d40
    db52:	0000                	unimp
    db54:	2d40                	.2byte	0x2d40
    db56:	0000                	unimp
    db58:	2d40                	.2byte	0x2d40
    db5a:	0000                	unimp
    db5c:	2cb4                	.2byte	0x2cb4
    db5e:	0000                	unimp
    db60:	2f18                	.2byte	0x2f18
    db62:	0000                	unimp
    db64:	2f18                	.2byte	0x2f18
    db66:	0000                	unimp
    db68:	2f18                	.2byte	0x2f18
    db6a:	0000                	unimp
    db6c:	2f18                	.2byte	0x2f18
    db6e:	0000                	unimp
    db70:	2f18                	.2byte	0x2f18
    db72:	0000                	unimp
    db74:	2f18                	.2byte	0x2f18
    db76:	0000                	unimp
    db78:	2f18                	.2byte	0x2f18
    db7a:	0000                	unimp
    db7c:	2f18                	.2byte	0x2f18
    db7e:	0000                	unimp
    db80:	2f18                	.2byte	0x2f18
    db82:	0000                	unimp
    db84:	2f18                	.2byte	0x2f18
    db86:	0000                	unimp
    db88:	2f18                	.2byte	0x2f18
    db8a:	0000                	unimp
    db8c:	2f18                	.2byte	0x2f18
    db8e:	0000                	unimp
    db90:	2f18                	.2byte	0x2f18
    db92:	0000                	unimp
    db94:	2f18                	.2byte	0x2f18
    db96:	0000                	unimp
    db98:	2f18                	.2byte	0x2f18
    db9a:	0000                	unimp
    db9c:	2f18                	.2byte	0x2f18
    db9e:	0000                	unimp
    dba0:	2f18                	.2byte	0x2f18
    dba2:	0000                	unimp
    dba4:	2f18                	.2byte	0x2f18
    dba6:	0000                	unimp
    dba8:	2f18                	.2byte	0x2f18
    dbaa:	0000                	unimp
    dbac:	2f18                	.2byte	0x2f18
    dbae:	0000                	unimp
    dbb0:	2f18                	.2byte	0x2f18
    dbb2:	0000                	unimp
    dbb4:	2f18                	.2byte	0x2f18
    dbb6:	0000                	unimp
    dbb8:	2f18                	.2byte	0x2f18
    dbba:	0000                	unimp
    dbbc:	2f18                	.2byte	0x2f18
    dbbe:	0000                	unimp
    dbc0:	2f18                	.2byte	0x2f18
    dbc2:	0000                	unimp
    dbc4:	2f18                	.2byte	0x2f18
    dbc6:	0000                	unimp
    dbc8:	2f18                	.2byte	0x2f18
    dbca:	0000                	unimp
    dbcc:	2f18                	.2byte	0x2f18
    dbce:	0000                	unimp
    dbd0:	2f18                	.2byte	0x2f18
    dbd2:	0000                	unimp
    dbd4:	2f18                	.2byte	0x2f18
    dbd6:	0000                	unimp
    dbd8:	2f18                	.2byte	0x2f18
    dbda:	0000                	unimp
    dbdc:	2f18                	.2byte	0x2f18
	...

0000dbe0 <USBD_WinUSBDescriptorSetDescriptor>:
    dbe0:	000a 0000 0000 0603 00aa 0008 0002 0000     ................
    dbf0:	00a0 0014 0003 4957 554e 4253 0000 0000     ......WINUSB....
    dc00:	0000 0000 0000 0084 0004 0007 002a 0044     ............*.D.
    dc10:	0065 0076 0069 0063 0065 0049 006e 0074     e.v.i.c.e.I.n.t.
    dc20:	0065 0072 0066 0061 0063 0065 0047 0055     e.r.f.a.c.e.G.U.
    dc30:	0049 0044 0073 0000 0050 007b 0043 0044     I.D.s...P.{.C.D.
    dc40:	0042 0033 0042 0035 0041 0044 002d 0032     B.3.B.5.A.D.-.2.
    dc50:	0039 0033 0042 002d 0034 0036 0036 0033     9.3.B.-.4.6.6.3.
    dc60:	002d 0041 0041 0033 0036 002d 0031 0041     -.A.A.3.6.-.1.A.
    dc70:	0041 0045 0034 0036 0034 0036 0033 0037     A.E.4.6.4.6.3.7.
    dc80:	0037 0036 007d 0000 0000 0000               7.6.}.......

0000dc8c <USBD_BinaryObjectStoreDescriptor>:
    dc8c:	0f05 0021 1c01 0510 df00 dd60 89d8 c745     ..!.......`...E.
    dc9c:	9c4c 65d2 9e9d 8a64 009f 0300 aa06 2000     L..e..d........ 
    dcac:	0000 0000 7b02 0000 7ab2 0000 7b02 0000     .....{...z...{..
    dcbc:	7b02 0000 7b02 0000 7b02 0000 7b02 0000     .{...{...{...{..
    dccc:	7ad4 0000 7b02 0000 7b02 0000 7b02 0000     .z...{...{...{..
    dcdc:	8f24 0000 8f44 0000 901e 0000 8f44 0000     $...D.......D...
    dcec:	901e 0000 8f72 0000 8f8a 0000 8fa2 0000     ....r...........
    dcfc:	8fa8 0000 8fc0 0000 9018 0000 9018 0000     ................
    dd0c:	90aa 0000 915a 0000 91ac 0000 915a 0000     ....Z.......Z...
    dd1c:	91ac 0000 91ac 0000 90ca 0000 91ac 0000     ................
    dd2c:	91ac 0000 91ac 0000 9160 0000 9174 0000     ........`...t...
    dd3c:	2d23 2b30 0020 0000 6c68 004c 6665 4567     #-0+ ...hlL.efgE
    dd4c:	4746 0000 3130 3332 3534 3736 3938 4241     FG..0123456789AB
    dd5c:	4443 4645 0000 0000 3130 3332 3534 3736     CDEF....01234567
    dd6c:	3938 6261 6463 6665 0000 0000 f7fa ffff     89abcdef........
    dd7c:	f810 ffff f7d0 ffff f7d0 ffff f7d0 ffff     ................
    dd8c:	f7d0 ffff f810 ffff f7d0 ffff f7d0 ffff     ................
    dd9c:	f7d0 ffff f7d0 ffff f96e ffff f874 ffff     ........n...t...
    ddac:	f908 ffff f7d0 ffff f7d0 ffff f99c ffff     ................
    ddbc:	f7d0 ffff f874 ffff f7d0 ffff f7d0 ffff     ....t...........
    ddcc:	f910 ffff                                   ....
